Archive member included to satisfy reference by file (symbol)

/home/ethan/developer/opendrone/tools/gcc-arm-none-eabi-7-2017-q4-major/bin/../lib/gcc/arm-none-eabi/7.2.1/../../../../arm-none-eabi/lib/thumb/v7e-m/fpv4-sp/hard/libc_nano.a(lib_a-strtok_r.o)
                              obj/main/OPENDRONEBRH/fc/cli.o (symbol from plugin) (strtok_r)
/home/ethan/developer/opendrone/tools/gcc-arm-none-eabi-7-2017-q4-major/bin/../lib/gcc/arm-none-eabi/7.2.1/../../../../arm-none-eabi/lib/thumb/v7e-m/fpv4-sp/hard/libm.a(lib_a-sf_log2.o)
                              /tmp/ccjoD88l.ltrans1.ltrans.o (log2f)
/home/ethan/developer/opendrone/tools/gcc-arm-none-eabi-7-2017-q4-major/bin/../lib/gcc/arm-none-eabi/7.2.1/../../../../arm-none-eabi/lib/thumb/v7e-m/fpv4-sp/hard/libm.a(lib_a-sf_log2_data.o)
                              /home/ethan/developer/opendrone/tools/gcc-arm-none-eabi-7-2017-q4-major/bin/../lib/gcc/arm-none-eabi/7.2.1/../../../../arm-none-eabi/lib/thumb/v7e-m/fpv4-sp/hard/libm.a(lib_a-sf_log2.o) (__log2f_data)
/home/ethan/developer/opendrone/tools/gcc-arm-none-eabi-7-2017-q4-major/bin/../lib/gcc/arm-none-eabi/7.2.1/../../../../arm-none-eabi/lib/thumb/v7e-m/fpv4-sp/hard/libm.a(lib_a-sf_lrint.o)
                              /tmp/ccjoD88l.ltrans0.ltrans.o (lrintf)
/home/ethan/developer/opendrone/tools/gcc-arm-none-eabi-7-2017-q4-major/bin/../lib/gcc/arm-none-eabi/7.2.1/../../../../arm-none-eabi/lib/thumb/v7e-m/fpv4-sp/hard/libm.a(lib_a-sf_pow.o)
                              /tmp/ccjoD88l.ltrans1.ltrans.o (powf)
/home/ethan/developer/opendrone/tools/gcc-arm-none-eabi-7-2017-q4-major/bin/../lib/gcc/arm-none-eabi/7.2.1/../../../../arm-none-eabi/lib/thumb/v7e-m/fpv4-sp/hard/libm.a(lib_a-sf_pow_log2_data.o)
                              /home/ethan/developer/opendrone/tools/gcc-arm-none-eabi-7-2017-q4-major/bin/../lib/gcc/arm-none-eabi/7.2.1/../../../../arm-none-eabi/lib/thumb/v7e-m/fpv4-sp/hard/libm.a(lib_a-sf_pow.o) (__powf_log2_data)
/home/ethan/developer/opendrone/tools/gcc-arm-none-eabi-7-2017-q4-major/bin/../lib/gcc/arm-none-eabi/7.2.1/../../../../arm-none-eabi/lib/thumb/v7e-m/fpv4-sp/hard/libm.a(lib_a-wf_sqrt.o)
                              /tmp/ccjoD88l.ltrans0.ltrans.o (sqrtf)
/home/ethan/developer/opendrone/tools/gcc-arm-none-eabi-7-2017-q4-major/bin/../lib/gcc/arm-none-eabi/7.2.1/../../../../arm-none-eabi/lib/thumb/v7e-m/fpv4-sp/hard/libm.a(lib_a-ef_sqrt.o)
                              /home/ethan/developer/opendrone/tools/gcc-arm-none-eabi-7-2017-q4-major/bin/../lib/gcc/arm-none-eabi/7.2.1/../../../../arm-none-eabi/lib/thumb/v7e-m/fpv4-sp/hard/libm.a(lib_a-wf_sqrt.o) (__ieee754_sqrtf)
/home/ethan/developer/opendrone/tools/gcc-arm-none-eabi-7-2017-q4-major/bin/../lib/gcc/arm-none-eabi/7.2.1/../../../../arm-none-eabi/lib/thumb/v7e-m/fpv4-sp/hard/libm.a(lib_a-math_errf.o)
                              /home/ethan/developer/opendrone/tools/gcc-arm-none-eabi-7-2017-q4-major/bin/../lib/gcc/arm-none-eabi/7.2.1/../../../../arm-none-eabi/lib/thumb/v7e-m/fpv4-sp/hard/libm.a(lib_a-sf_pow.o) (__math_uflowf)
/home/ethan/developer/opendrone/tools/gcc-arm-none-eabi-7-2017-q4-major/bin/../lib/gcc/arm-none-eabi/7.2.1/../../../../arm-none-eabi/lib/thumb/v7e-m/fpv4-sp/hard/libm.a(lib_a-s_lib_ver.o)
                              /home/ethan/developer/opendrone/tools/gcc-arm-none-eabi-7-2017-q4-major/bin/../lib/gcc/arm-none-eabi/7.2.1/../../../../arm-none-eabi/lib/thumb/v7e-m/fpv4-sp/hard/libm.a(lib_a-wf_sqrt.o) (__fdlib_version)
/home/ethan/developer/opendrone/tools/gcc-arm-none-eabi-7-2017-q4-major/bin/../lib/gcc/arm-none-eabi/7.2.1/../../../../arm-none-eabi/lib/thumb/v7e-m/fpv4-sp/hard/libm.a(lib_a-s_matherr.o)
                              /home/ethan/developer/opendrone/tools/gcc-arm-none-eabi-7-2017-q4-major/bin/../lib/gcc/arm-none-eabi/7.2.1/../../../../arm-none-eabi/lib/thumb/v7e-m/fpv4-sp/hard/libm.a(lib_a-wf_sqrt.o) (matherr)
/home/ethan/developer/opendrone/tools/gcc-arm-none-eabi-7-2017-q4-major/bin/../lib/gcc/arm-none-eabi/7.2.1/../../../../arm-none-eabi/lib/thumb/v7e-m/fpv4-sp/hard/libm.a(lib_a-sf_exp2_data.o)
                              /home/ethan/developer/opendrone/tools/gcc-arm-none-eabi-7-2017-q4-major/bin/../lib/gcc/arm-none-eabi/7.2.1/../../../../arm-none-eabi/lib/thumb/v7e-m/fpv4-sp/hard/libm.a(lib_a-sf_pow.o) (__exp2f_data)
/home/ethan/developer/opendrone/tools/gcc-arm-none-eabi-7-2017-q4-major/bin/../lib/gcc/arm-none-eabi/7.2.1/../../../../arm-none-eabi/lib/thumb/v7e-m/fpv4-sp/hard/libc_nano.a(lib_a-errno.o)
                              /home/ethan/developer/opendrone/tools/gcc-arm-none-eabi-7-2017-q4-major/bin/../lib/gcc/arm-none-eabi/7.2.1/../../../../arm-none-eabi/lib/thumb/v7e-m/fpv4-sp/hard/libm.a(lib_a-wf_sqrt.o) (__errno)
/home/ethan/developer/opendrone/tools/gcc-arm-none-eabi-7-2017-q4-major/bin/../lib/gcc/arm-none-eabi/7.2.1/../../../../arm-none-eabi/lib/thumb/v7e-m/fpv4-sp/hard/libc_nano.a(lib_a-impure.o)
                              /home/ethan/developer/opendrone/tools/gcc-arm-none-eabi-7-2017-q4-major/bin/../lib/gcc/arm-none-eabi/7.2.1/../../../../arm-none-eabi/lib/thumb/v7e-m/fpv4-sp/hard/libc_nano.a(lib_a-errno.o) (_impure_ptr)
/home/ethan/developer/opendrone/tools/gcc-arm-none-eabi-7-2017-q4-major/bin/../lib/gcc/arm-none-eabi/7.2.1/../../../../arm-none-eabi/lib/thumb/v7e-m/fpv4-sp/hard/libc_nano.a(lib_a-memcpy-stub.o)
                              /tmp/ccjoD88l.ltrans0.ltrans.o (memcpy)
/home/ethan/developer/opendrone/tools/gcc-arm-none-eabi-7-2017-q4-major/bin/../lib/gcc/arm-none-eabi/7.2.1/../../../../arm-none-eabi/lib/thumb/v7e-m/fpv4-sp/hard/libc_nano.a(lib_a-memmove.o)
                              /tmp/ccjoD88l.ltrans0.ltrans.o (memmove)
/home/ethan/developer/opendrone/tools/gcc-arm-none-eabi-7-2017-q4-major/bin/../lib/gcc/arm-none-eabi/7.2.1/../../../../arm-none-eabi/lib/thumb/v7e-m/fpv4-sp/hard/libc_nano.a(lib_a-memset.o)
                              /tmp/ccjoD88l.ltrans0.ltrans.o (memset)
/home/ethan/developer/opendrone/tools/gcc-arm-none-eabi-7-2017-q4-major/bin/../lib/gcc/arm-none-eabi/7.2.1/../../../../arm-none-eabi/lib/thumb/v7e-m/fpv4-sp/hard/libc_nano.a(lib_a-strcat.o)
                              /tmp/ccjoD88l.ltrans1.ltrans.o (strcat)
/home/ethan/developer/opendrone/tools/gcc-arm-none-eabi-7-2017-q4-major/bin/../lib/gcc/arm-none-eabi/7.2.1/../../../../arm-none-eabi/lib/thumb/v7e-m/fpv4-sp/hard/libc_nano.a(lib_a-strchr.o)
                              /tmp/ccjoD88l.ltrans0.ltrans.o (strchr)
/home/ethan/developer/opendrone/tools/gcc-arm-none-eabi-7-2017-q4-major/bin/../lib/gcc/arm-none-eabi/7.2.1/../../../../arm-none-eabi/lib/thumb/v7e-m/fpv4-sp/hard/libc_nano.a(lib_a-strcmp.o)
                              /tmp/ccjoD88l.ltrans2.ltrans.o (strcmp)
/home/ethan/developer/opendrone/tools/gcc-arm-none-eabi-7-2017-q4-major/bin/../lib/gcc/arm-none-eabi/7.2.1/../../../../arm-none-eabi/lib/thumb/v7e-m/fpv4-sp/hard/libc_nano.a(lib_a-strcpy.o)
                              /tmp/ccjoD88l.ltrans5.ltrans.o (strcpy)
/home/ethan/developer/opendrone/tools/gcc-arm-none-eabi-7-2017-q4-major/bin/../lib/gcc/arm-none-eabi/7.2.1/../../../../arm-none-eabi/lib/thumb/v7e-m/fpv4-sp/hard/libc_nano.a(lib_a-strlen.o)
                              /tmp/ccjoD88l.ltrans0.ltrans.o (strlen)
/home/ethan/developer/opendrone/tools/gcc-arm-none-eabi-7-2017-q4-major/bin/../lib/gcc/arm-none-eabi/7.2.1/../../../../arm-none-eabi/lib/thumb/v7e-m/fpv4-sp/hard/libc_nano.a(lib_a-strncmp.o)
                              /tmp/ccjoD88l.ltrans0.ltrans.o (strncmp)
/home/ethan/developer/opendrone/tools/gcc-arm-none-eabi-7-2017-q4-major/bin/../lib/gcc/arm-none-eabi/7.2.1/../../../../arm-none-eabi/lib/thumb/v7e-m/fpv4-sp/hard/libc_nano.a(lib_a-strncpy.o)
                              /tmp/ccjoD88l.ltrans0.ltrans.o (strncpy)
/home/ethan/developer/opendrone/tools/gcc-arm-none-eabi-7-2017-q4-major/bin/../lib/gcc/arm-none-eabi/7.2.1/../../../../arm-none-eabi/lib/thumb/v7e-m/fpv4-sp/hard/libc_nano.a(lib_a-strspn.o)
                              /tmp/ccjoD88l.ltrans0.ltrans.o (strspn)
/home/ethan/developer/opendrone/tools/gcc-arm-none-eabi-7-2017-q4-major/bin/../lib/gcc/arm-none-eabi/7.2.1/../../../../arm-none-eabi/lib/thumb/v7e-m/fpv4-sp/hard/libc_nano.a(lib_a-strstr.o)
                              /tmp/ccjoD88l.ltrans0.ltrans.o (strstr)
/home/ethan/developer/opendrone/tools/gcc-arm-none-eabi-7-2017-q4-major/bin/../lib/gcc/arm-none-eabi/7.2.1/thumb/v7e-m/fpv4-sp/hard/libgcc.a(_arm_addsubdf3.o)
                              /home/ethan/developer/opendrone/tools/gcc-arm-none-eabi-7-2017-q4-major/bin/../lib/gcc/arm-none-eabi/7.2.1/../../../../arm-none-eabi/lib/thumb/v7e-m/fpv4-sp/hard/libm.a(lib_a-sf_log2.o) (__aeabi_dsub)
/home/ethan/developer/opendrone/tools/gcc-arm-none-eabi-7-2017-q4-major/bin/../lib/gcc/arm-none-eabi/7.2.1/thumb/v7e-m/fpv4-sp/hard/libgcc.a(_arm_muldivdf3.o)
                              /home/ethan/developer/opendrone/tools/gcc-arm-none-eabi-7-2017-q4-major/bin/../lib/gcc/arm-none-eabi/7.2.1/../../../../arm-none-eabi/lib/thumb/v7e-m/fpv4-sp/hard/libm.a(lib_a-sf_log2.o) (__aeabi_dmul)
/home/ethan/developer/opendrone/tools/gcc-arm-none-eabi-7-2017-q4-major/bin/../lib/gcc/arm-none-eabi/7.2.1/thumb/v7e-m/fpv4-sp/hard/libgcc.a(_arm_cmpdf2.o)
                              /tmp/ccjoD88l.ltrans1.ltrans.o (__aeabi_dcmpeq)
/home/ethan/developer/opendrone/tools/gcc-arm-none-eabi-7-2017-q4-major/bin/../lib/gcc/arm-none-eabi/7.2.1/thumb/v7e-m/fpv4-sp/hard/libgcc.a(_arm_fixunsdfsi.o)
                              /tmp/ccjoD88l.ltrans1.ltrans.o (__aeabi_d2uiz)
/home/ethan/developer/opendrone/tools/gcc-arm-none-eabi-7-2017-q4-major/bin/../lib/gcc/arm-none-eabi/7.2.1/thumb/v7e-m/fpv4-sp/hard/libgcc.a(_arm_truncdfsf2.o)
                              /tmp/ccjoD88l.ltrans1.ltrans.o (__aeabi_d2f)
/home/ethan/developer/opendrone/tools/gcc-arm-none-eabi-7-2017-q4-major/bin/../lib/gcc/arm-none-eabi/7.2.1/thumb/v7e-m/fpv4-sp/hard/libgcc.a(_arm_addsubsf3.o)
                              /tmp/ccjoD88l.ltrans3.ltrans.o (__aeabi_ul2f)
/home/ethan/developer/opendrone/tools/gcc-arm-none-eabi-7-2017-q4-major/bin/../lib/gcc/arm-none-eabi/7.2.1/thumb/v7e-m/fpv4-sp/hard/libgcc.a(_aeabi_ldivmod.o)
                              /tmp/ccjoD88l.ltrans0.ltrans.o (__aeabi_ldivmod)
/home/ethan/developer/opendrone/tools/gcc-arm-none-eabi-7-2017-q4-major/bin/../lib/gcc/arm-none-eabi/7.2.1/thumb/v7e-m/fpv4-sp/hard/libgcc.a(_aeabi_uldivmod.o)
                              /tmp/ccjoD88l.ltrans0.ltrans.o (__aeabi_uldivmod)
/home/ethan/developer/opendrone/tools/gcc-arm-none-eabi-7-2017-q4-major/bin/../lib/gcc/arm-none-eabi/7.2.1/thumb/v7e-m/fpv4-sp/hard/libgcc.a(_popcountsi2.o)
                              /tmp/ccjoD88l.ltrans1.ltrans.o (__popcountsi2)
/home/ethan/developer/opendrone/tools/gcc-arm-none-eabi-7-2017-q4-major/bin/../lib/gcc/arm-none-eabi/7.2.1/thumb/v7e-m/fpv4-sp/hard/libgcc.a(_udivmoddi4.o)
                              /home/ethan/developer/opendrone/tools/gcc-arm-none-eabi-7-2017-q4-major/bin/../lib/gcc/arm-none-eabi/7.2.1/thumb/v7e-m/fpv4-sp/hard/libgcc.a(_aeabi_ldivmod.o) (__udivmoddi4)
/home/ethan/developer/opendrone/tools/gcc-arm-none-eabi-7-2017-q4-major/bin/../lib/gcc/arm-none-eabi/7.2.1/thumb/v7e-m/fpv4-sp/hard/libgcc.a(_dvmd_tls.o)
                              /home/ethan/developer/opendrone/tools/gcc-arm-none-eabi-7-2017-q4-major/bin/../lib/gcc/arm-none-eabi/7.2.1/thumb/v7e-m/fpv4-sp/hard/libgcc.a(_aeabi_ldivmod.o) (__aeabi_ldiv0)

Allocating common symbols
Common symbol       size              file

sendLength          0x4               obj/main/OPENDRONEBRH/vcp/hw_config.o (symbol from plugin)
SaveRState          0x2               obj/main/OPENDRONEBRH/usb_int.o (symbol from plugin)
extiHandlerConfigs  0x8               obj/main/OPENDRONEBRH/drivers/system.o (symbol from plugin)
adcValues           0x14              obj/main/OPENDRONEBRH/drivers/adc.o (symbol from plugin)
statsConfig_System  0x10              obj/main/OPENDRONEBRH/fc/stats.o (symbol from plugin)
timerChannelInfo    0xc               obj/main/OPENDRONEBRH/drivers/timer.o (symbol from plugin)
adcConfig           0x1e              obj/main/OPENDRONEBRH/drivers/adc.o (symbol from plugin)
HSEStartUpStatus    0x1               obj/main/OPENDRONEBRH/vcp/hw_config.o (symbol from plugin)
barometerConfig_Copy
                    0x2               obj/main/OPENDRONEBRH/sensors/barometer.o (symbol from plugin)
adcChannelConfig_Copy
                    0x4               obj/main/OPENDRONEBRH/fc/config.o (symbol from plugin)
SaveState           0x2               obj/main/OPENDRONEBRH/usb_init.o (symbol from plugin)
rcRaw               0x24              obj/main/OPENDRONEBRH/rx/rx.o (symbol from plugin)
statsConfig_Copy    0x10              obj/main/OPENDRONEBRH/fc/stats.o (symbol from plugin)
gpsConfig_Copy      0x7               obj/main/OPENDRONEBRH/io/gps.o (symbol from plugin)
gyroConfig_Copy     0x12              obj/main/OPENDRONEBRH/sensors/gyro.o (symbol from plugin)
gimbalConfig_Copy   0x1               obj/main/OPENDRONEBRH/flight/servos.o (symbol from plugin)
rcStickPositions    0x1               obj/main/OPENDRONEBRH/fc/rc_controls.o (symbol from plugin)
servoConfig_Copy    0xa               obj/main/OPENDRONEBRH/flight/servos.o (symbol from plugin)
wIstr               0x2               obj/main/OPENDRONEBRH/vcp/usb_istr.o (symbol from plugin)
accelerometerConfig_Copy
                    0x12              obj/main/OPENDRONEBRH/sensors/acceleration.o (symbol from plugin)
imuConfig_System    0xa               obj/main/OPENDRONEBRH/flight/imu.o (symbol from plugin)
ppmDev              0x5c              obj/main/OPENDRONEBRH/drivers/rx_pwm.o (symbol from plugin)
imuConfig_Copy      0xa               obj/main/OPENDRONEBRH/flight/imu.o (symbol from plugin)
inputSource_e       0x1               obj/main/OPENDRONEBRH/telemetry/mavlink.o (symbol from plugin)
EPindex             0x1               obj/main/OPENDRONEBRH/usb_init.o (symbol from plugin)
armingConfig_Copy   0x3               obj/main/OPENDRONEBRH/fc/rc_controls.o (symbol from plugin)
timerInfo           0x5               obj/main/OPENDRONEBRH/drivers/timer.o (symbol from plugin)
pidAutotuneConfig_Copy
                    0x8               obj/main/OPENDRONEBRH/flight/pid_autotune.o (symbol from plugin)
rangefinder         0x38              obj/main/OPENDRONEBRH/sensors/rangefinder.o (symbol from plugin)
displayConfig_System
                    0x1               obj/main/OPENDRONEBRH/drivers/display.o (symbol from plugin)
rcdeviceInMenu      0x1               obj/main/OPENDRONEBRH/io/rcdevice_cam.o (symbol from plugin)
SaveTState          0x2               obj/main/OPENDRONEBRH/usb_int.o (symbol from plugin)
flight3DConfig_Copy
                    0x6               obj/main/OPENDRONEBRH/flight/mixer.o (symbol from plugin)
StatusInfo          0x2               obj/main/OPENDRONEBRH/usb_core.o (symbol from plugin)
ResumeS             0x2               obj/main/OPENDRONEBRH/vcp/usb_pwr.o (symbol from plugin)
motorConfig_Copy    0xa               obj/main/OPENDRONEBRH/flight/mixer.o (symbol from plugin)
telemetryConfig_Copy
                    0x14              obj/main/OPENDRONEBRH/telemetry/telemetry.o (symbol from plugin)
displayConfig_Copy  0x1               obj/main/OPENDRONEBRH/drivers/display.o (symbol from plugin)
modeActivationOperatorConfig_Copy
                    0x1               obj/main/OPENDRONEBRH/fc/rc_modes.o (symbol from plugin)
navConfig_Copy      0x50              obj/main/OPENDRONEBRH/navigation/navigation.o (symbol from plugin)
opflow              0x58              obj/main/OPENDRONEBRH/sensors/opflow.o (symbol from plugin)
pidAutotuneConfig_System
                    0x8               obj/main/OPENDRONEBRH/flight/pid_autotune.o (symbol from plugin)
compassConfig_Copy  0x12              obj/main/OPENDRONEBRH/sensors/compass.o (symbol from plugin)
controlRateProfiles_CopyArray
                    0x36              obj/main/OPENDRONEBRH/fc/controlrate_profile.o (symbol from plugin)
headFreeModeHold    0x2               obj/main/OPENDRONEBRH/fc/fc_core.o (symbol from plugin)
sectionTimes        0x40              obj/main/OPENDRONEBRH/build/debug.o (symbol from plugin)
rcControlsConfig_Copy
                    0x6               obj/main/OPENDRONEBRH/fc/rc_controls.o (symbol from plugin)
pitotmeterConfig_Copy
                    0xc               obj/main/OPENDRONEBRH/sensors/pitotmeter.o (symbol from plugin)
timeConfig_Copy     0x2               obj/main/OPENDRONEBRH/common/time.o (symbol from plugin)
failsafeConfig_Copy
                    0x14              obj/main/OPENDRONEBRH/flight/failsafe.o (symbol from plugin)
EP                  0x20              obj/main/OPENDRONEBRH/vcp/usb_pwr.o (symbol from plugin)
batteryConfig_Copy  0x20              obj/main/OPENDRONEBRH/sensors/battery.o (symbol from plugin)
controlRateProfiles_SystemArray
                    0x36              obj/main/OPENDRONEBRH/fc/controlrate_profile.o (symbol from plugin)
EXTI_InitStructure  0x8               obj/main/OPENDRONEBRH/vcp/hw_config.o (symbol from plugin)
nonVolatileWaypointList_CopyArray
                    0x5a0             obj/main/OPENDRONEBRH/navigation/navigation.o (symbol from plugin)
positionEstimationConfig_Copy
                    0x38              obj/main/OPENDRONEBRH/navigation/navigation_pos_estimator.o (symbol from plugin)
nonVolatileWaypointList_SystemArray
                    0x5a0             obj/main/OPENDRONEBRH/navigation/navigation.o (symbol from plugin)
mag                 0x48              obj/main/OPENDRONEBRH/sensors/compass.o (symbol from plugin)
gimbalConfig_System
                    0x1               obj/main/OPENDRONEBRH/flight/servos.o (symbol from plugin)
boardAlignment_Copy
                    0x6               obj/main/OPENDRONEBRH/sensors/boardalignment.o (symbol from plugin)
wInterrupt_Mask     0x2               obj/main/OPENDRONEBRH/usb_init.o (symbol from plugin)
modeActivationOperatorConfig_System
                    0x1               obj/main/OPENDRONEBRH/fc/rc_modes.o (symbol from plugin)

Discarded input sections

 .text          0x0000000000000000       0x14 obj/main/OPENDRONEBRH/startup_stm32f30x_md_gcc.o
 .data          0x0000000000000000        0x0 obj/main/OPENDRONEBRH/startup_stm32f30x_md_gcc.o
 .bss           0x0000000000000000        0x0 obj/main/OPENDRONEBRH/startup_stm32f30x_md_gcc.o
 .text          0x0000000000000000        0x0 /home/ethan/developer/opendrone/tools/gcc-arm-none-eabi-7-2017-q4-major/bin/../lib/gcc/arm-none-eabi/7.2.1/../../../../arm-none-eabi/lib/thumb/v7e-m/fpv4-sp/hard/libc_nano.a(lib_a-strtok_r.o)
 .data          0x0000000000000000        0x0 /home/ethan/developer/opendrone/tools/gcc-arm-none-eabi-7-2017-q4-major/bin/../lib/gcc/arm-none-eabi/7.2.1/../../../../arm-none-eabi/lib/thumb/v7e-m/fpv4-sp/hard/libc_nano.a(lib_a-strtok_r.o)
 .bss           0x0000000000000000        0x0 /home/ethan/developer/opendrone/tools/gcc-arm-none-eabi-7-2017-q4-major/bin/../lib/gcc/arm-none-eabi/7.2.1/../../../../arm-none-eabi/lib/thumb/v7e-m/fpv4-sp/hard/libc_nano.a(lib_a-strtok_r.o)
 .text          0x0000000000000000        0x0 /home/ethan/developer/opendrone/tools/gcc-arm-none-eabi-7-2017-q4-major/bin/../lib/gcc/arm-none-eabi/7.2.1/../../../../arm-none-eabi/lib/thumb/v7e-m/fpv4-sp/hard/libc_nano.a(lib_a-errno.o)
 .data          0x0000000000000000        0x0 /home/ethan/developer/opendrone/tools/gcc-arm-none-eabi-7-2017-q4-major/bin/../lib/gcc/arm-none-eabi/7.2.1/../../../../arm-none-eabi/lib/thumb/v7e-m/fpv4-sp/hard/libc_nano.a(lib_a-errno.o)
 .bss           0x0000000000000000        0x0 /home/ethan/developer/opendrone/tools/gcc-arm-none-eabi-7-2017-q4-major/bin/../lib/gcc/arm-none-eabi/7.2.1/../../../../arm-none-eabi/lib/thumb/v7e-m/fpv4-sp/hard/libc_nano.a(lib_a-errno.o)
 .text          0x0000000000000000        0x0 /home/ethan/developer/opendrone/tools/gcc-arm-none-eabi-7-2017-q4-major/bin/../lib/gcc/arm-none-eabi/7.2.1/../../../../arm-none-eabi/lib/thumb/v7e-m/fpv4-sp/hard/libc_nano.a(lib_a-impure.o)
 .data          0x0000000000000000        0x0 /home/ethan/developer/opendrone/tools/gcc-arm-none-eabi-7-2017-q4-major/bin/../lib/gcc/arm-none-eabi/7.2.1/../../../../arm-none-eabi/lib/thumb/v7e-m/fpv4-sp/hard/libc_nano.a(lib_a-impure.o)
 .bss           0x0000000000000000        0x0 /home/ethan/developer/opendrone/tools/gcc-arm-none-eabi-7-2017-q4-major/bin/../lib/gcc/arm-none-eabi/7.2.1/../../../../arm-none-eabi/lib/thumb/v7e-m/fpv4-sp/hard/libc_nano.a(lib_a-impure.o)
 .rodata._global_impure_ptr
                0x0000000000000000        0x4 /home/ethan/developer/opendrone/tools/gcc-arm-none-eabi-7-2017-q4-major/bin/../lib/gcc/arm-none-eabi/7.2.1/../../../../arm-none-eabi/lib/thumb/v7e-m/fpv4-sp/hard/libc_nano.a(lib_a-impure.o)
 .text          0x0000000000000000        0x0 /home/ethan/developer/opendrone/tools/gcc-arm-none-eabi-7-2017-q4-major/bin/../lib/gcc/arm-none-eabi/7.2.1/../../../../arm-none-eabi/lib/thumb/v7e-m/fpv4-sp/hard/libc_nano.a(lib_a-memcpy-stub.o)
 .data          0x0000000000000000        0x0 /home/ethan/developer/opendrone/tools/gcc-arm-none-eabi-7-2017-q4-major/bin/../lib/gcc/arm-none-eabi/7.2.1/../../../../arm-none-eabi/lib/thumb/v7e-m/fpv4-sp/hard/libc_nano.a(lib_a-memcpy-stub.o)
 .bss           0x0000000000000000        0x0 /home/ethan/developer/opendrone/tools/gcc-arm-none-eabi-7-2017-q4-major/bin/../lib/gcc/arm-none-eabi/7.2.1/../../../../arm-none-eabi/lib/thumb/v7e-m/fpv4-sp/hard/libc_nano.a(lib_a-memcpy-stub.o)
 .text          0x0000000000000000        0x0 /home/ethan/developer/opendrone/tools/gcc-arm-none-eabi-7-2017-q4-major/bin/../lib/gcc/arm-none-eabi/7.2.1/../../../../arm-none-eabi/lib/thumb/v7e-m/fpv4-sp/hard/libc_nano.a(lib_a-memmove.o)
 .data          0x0000000000000000        0x0 /home/ethan/developer/opendrone/tools/gcc-arm-none-eabi-7-2017-q4-major/bin/../lib/gcc/arm-none-eabi/7.2.1/../../../../arm-none-eabi/lib/thumb/v7e-m/fpv4-sp/hard/libc_nano.a(lib_a-memmove.o)
 .bss           0x0000000000000000        0x0 /home/ethan/developer/opendrone/tools/gcc-arm-none-eabi-7-2017-q4-major/bin/../lib/gcc/arm-none-eabi/7.2.1/../../../../arm-none-eabi/lib/thumb/v7e-m/fpv4-sp/hard/libc_nano.a(lib_a-memmove.o)
 .text          0x0000000000000000        0x0 /home/ethan/developer/opendrone/tools/gcc-arm-none-eabi-7-2017-q4-major/bin/../lib/gcc/arm-none-eabi/7.2.1/../../../../arm-none-eabi/lib/thumb/v7e-m/fpv4-sp/hard/libc_nano.a(lib_a-memset.o)
 .data          0x0000000000000000        0x0 /home/ethan/developer/opendrone/tools/gcc-arm-none-eabi-7-2017-q4-major/bin/../lib/gcc/arm-none-eabi/7.2.1/../../../../arm-none-eabi/lib/thumb/v7e-m/fpv4-sp/hard/libc_nano.a(lib_a-memset.o)
 .bss           0x0000000000000000        0x0 /home/ethan/developer/opendrone/tools/gcc-arm-none-eabi-7-2017-q4-major/bin/../lib/gcc/arm-none-eabi/7.2.1/../../../../arm-none-eabi/lib/thumb/v7e-m/fpv4-sp/hard/libc_nano.a(lib_a-memset.o)
 .text          0x0000000000000000        0x0 /home/ethan/developer/opendrone/tools/gcc-arm-none-eabi-7-2017-q4-major/bin/../lib/gcc/arm-none-eabi/7.2.1/../../../../arm-none-eabi/lib/thumb/v7e-m/fpv4-sp/hard/libc_nano.a(lib_a-strcat.o)
 .data          0x0000000000000000        0x0 /home/ethan/developer/opendrone/tools/gcc-arm-none-eabi-7-2017-q4-major/bin/../lib/gcc/arm-none-eabi/7.2.1/../../../../arm-none-eabi/lib/thumb/v7e-m/fpv4-sp/hard/libc_nano.a(lib_a-strcat.o)
 .bss           0x0000000000000000        0x0 /home/ethan/developer/opendrone/tools/gcc-arm-none-eabi-7-2017-q4-major/bin/../lib/gcc/arm-none-eabi/7.2.1/../../../../arm-none-eabi/lib/thumb/v7e-m/fpv4-sp/hard/libc_nano.a(lib_a-strcat.o)
 .text          0x0000000000000000        0x0 /home/ethan/developer/opendrone/tools/gcc-arm-none-eabi-7-2017-q4-major/bin/../lib/gcc/arm-none-eabi/7.2.1/../../../../arm-none-eabi/lib/thumb/v7e-m/fpv4-sp/hard/libc_nano.a(lib_a-strchr.o)
 .data          0x0000000000000000        0x0 /home/ethan/developer/opendrone/tools/gcc-arm-none-eabi-7-2017-q4-major/bin/../lib/gcc/arm-none-eabi/7.2.1/../../../../arm-none-eabi/lib/thumb/v7e-m/fpv4-sp/hard/libc_nano.a(lib_a-strchr.o)
 .bss           0x0000000000000000        0x0 /home/ethan/developer/opendrone/tools/gcc-arm-none-eabi-7-2017-q4-major/bin/../lib/gcc/arm-none-eabi/7.2.1/../../../../arm-none-eabi/lib/thumb/v7e-m/fpv4-sp/hard/libc_nano.a(lib_a-strchr.o)
 .data          0x0000000000000000        0x0 /home/ethan/developer/opendrone/tools/gcc-arm-none-eabi-7-2017-q4-major/bin/../lib/gcc/arm-none-eabi/7.2.1/../../../../arm-none-eabi/lib/thumb/v7e-m/fpv4-sp/hard/libc_nano.a(lib_a-strcmp.o)
 .bss           0x0000000000000000        0x0 /home/ethan/developer/opendrone/tools/gcc-arm-none-eabi-7-2017-q4-major/bin/../lib/gcc/arm-none-eabi/7.2.1/../../../../arm-none-eabi/lib/thumb/v7e-m/fpv4-sp/hard/libc_nano.a(lib_a-strcmp.o)
 .text          0x0000000000000000        0x0 /home/ethan/developer/opendrone/tools/gcc-arm-none-eabi-7-2017-q4-major/bin/../lib/gcc/arm-none-eabi/7.2.1/../../../../arm-none-eabi/lib/thumb/v7e-m/fpv4-sp/hard/libc_nano.a(lib_a-strcpy.o)
 .data          0x0000000000000000        0x0 /home/ethan/developer/opendrone/tools/gcc-arm-none-eabi-7-2017-q4-major/bin/../lib/gcc/arm-none-eabi/7.2.1/../../../../arm-none-eabi/lib/thumb/v7e-m/fpv4-sp/hard/libc_nano.a(lib_a-strcpy.o)
 .bss           0x0000000000000000        0x0 /home/ethan/developer/opendrone/tools/gcc-arm-none-eabi-7-2017-q4-major/bin/../lib/gcc/arm-none-eabi/7.2.1/../../../../arm-none-eabi/lib/thumb/v7e-m/fpv4-sp/hard/libc_nano.a(lib_a-strcpy.o)
 .data          0x0000000000000000        0x0 /home/ethan/developer/opendrone/tools/gcc-arm-none-eabi-7-2017-q4-major/bin/../lib/gcc/arm-none-eabi/7.2.1/../../../../arm-none-eabi/lib/thumb/v7e-m/fpv4-sp/hard/libc_nano.a(lib_a-strlen.o)
 .bss           0x0000000000000000        0x0 /home/ethan/developer/opendrone/tools/gcc-arm-none-eabi-7-2017-q4-major/bin/../lib/gcc/arm-none-eabi/7.2.1/../../../../arm-none-eabi/lib/thumb/v7e-m/fpv4-sp/hard/libc_nano.a(lib_a-strlen.o)
 .text          0x0000000000000000        0x0 /home/ethan/developer/opendrone/tools/gcc-arm-none-eabi-7-2017-q4-major/bin/../lib/gcc/arm-none-eabi/7.2.1/../../../../arm-none-eabi/lib/thumb/v7e-m/fpv4-sp/hard/libc_nano.a(lib_a-strncmp.o)
 .data          0x0000000000000000        0x0 /home/ethan/developer/opendrone/tools/gcc-arm-none-eabi-7-2017-q4-major/bin/../lib/gcc/arm-none-eabi/7.2.1/../../../../arm-none-eabi/lib/thumb/v7e-m/fpv4-sp/hard/libc_nano.a(lib_a-strncmp.o)
 .bss           0x0000000000000000        0x0 /home/ethan/developer/opendrone/tools/gcc-arm-none-eabi-7-2017-q4-major/bin/../lib/gcc/arm-none-eabi/7.2.1/../../../../arm-none-eabi/lib/thumb/v7e-m/fpv4-sp/hard/libc_nano.a(lib_a-strncmp.o)
 .text          0x0000000000000000        0x0 /home/ethan/developer/opendrone/tools/gcc-arm-none-eabi-7-2017-q4-major/bin/../lib/gcc/arm-none-eabi/7.2.1/../../../../arm-none-eabi/lib/thumb/v7e-m/fpv4-sp/hard/libc_nano.a(lib_a-strncpy.o)
 .data          0x0000000000000000        0x0 /home/ethan/developer/opendrone/tools/gcc-arm-none-eabi-7-2017-q4-major/bin/../lib/gcc/arm-none-eabi/7.2.1/../../../../arm-none-eabi/lib/thumb/v7e-m/fpv4-sp/hard/libc_nano.a(lib_a-strncpy.o)
 .bss           0x0000000000000000        0x0 /home/ethan/developer/opendrone/tools/gcc-arm-none-eabi-7-2017-q4-major/bin/../lib/gcc/arm-none-eabi/7.2.1/../../../../arm-none-eabi/lib/thumb/v7e-m/fpv4-sp/hard/libc_nano.a(lib_a-strncpy.o)
 .text          0x0000000000000000        0x0 /home/ethan/developer/opendrone/tools/gcc-arm-none-eabi-7-2017-q4-major/bin/../lib/gcc/arm-none-eabi/7.2.1/../../../../arm-none-eabi/lib/thumb/v7e-m/fpv4-sp/hard/libc_nano.a(lib_a-strspn.o)
 .data          0x0000000000000000        0x0 /home/ethan/developer/opendrone/tools/gcc-arm-none-eabi-7-2017-q4-major/bin/../lib/gcc/arm-none-eabi/7.2.1/../../../../arm-none-eabi/lib/thumb/v7e-m/fpv4-sp/hard/libc_nano.a(lib_a-strspn.o)
 .bss           0x0000000000000000        0x0 /home/ethan/developer/opendrone/tools/gcc-arm-none-eabi-7-2017-q4-major/bin/../lib/gcc/arm-none-eabi/7.2.1/../../../../arm-none-eabi/lib/thumb/v7e-m/fpv4-sp/hard/libc_nano.a(lib_a-strspn.o)
 .text          0x0000000000000000        0x0 /home/ethan/developer/opendrone/tools/gcc-arm-none-eabi-7-2017-q4-major/bin/../lib/gcc/arm-none-eabi/7.2.1/../../../../arm-none-eabi/lib/thumb/v7e-m/fpv4-sp/hard/libc_nano.a(lib_a-strstr.o)
 .data          0x0000000000000000        0x0 /home/ethan/developer/opendrone/tools/gcc-arm-none-eabi-7-2017-q4-major/bin/../lib/gcc/arm-none-eabi/7.2.1/../../../../arm-none-eabi/lib/thumb/v7e-m/fpv4-sp/hard/libc_nano.a(lib_a-strstr.o)
 .bss           0x0000000000000000        0x0 /home/ethan/developer/opendrone/tools/gcc-arm-none-eabi-7-2017-q4-major/bin/../lib/gcc/arm-none-eabi/7.2.1/../../../../arm-none-eabi/lib/thumb/v7e-m/fpv4-sp/hard/libc_nano.a(lib_a-strstr.o)
 .text          0x0000000000000000        0x0 /home/ethan/developer/opendrone/tools/gcc-arm-none-eabi-7-2017-q4-major/bin/../lib/gcc/arm-none-eabi/7.2.1/../../../../arm-none-eabi/lib/thumb/v7e-m/fpv4-sp/hard/libm.a(lib_a-sf_log2.o)
 .data          0x0000000000000000        0x0 /home/ethan/developer/opendrone/tools/gcc-arm-none-eabi-7-2017-q4-major/bin/../lib/gcc/arm-none-eabi/7.2.1/../../../../arm-none-eabi/lib/thumb/v7e-m/fpv4-sp/hard/libm.a(lib_a-sf_log2.o)
 .bss           0x0000000000000000        0x0 /home/ethan/developer/opendrone/tools/gcc-arm-none-eabi-7-2017-q4-major/bin/../lib/gcc/arm-none-eabi/7.2.1/../../../../arm-none-eabi/lib/thumb/v7e-m/fpv4-sp/hard/libm.a(lib_a-sf_log2.o)
 .text          0x0000000000000000        0x0 /home/ethan/developer/opendrone/tools/gcc-arm-none-eabi-7-2017-q4-major/bin/../lib/gcc/arm-none-eabi/7.2.1/../../../../arm-none-eabi/lib/thumb/v7e-m/fpv4-sp/hard/libm.a(lib_a-sf_log2_data.o)
 .data          0x0000000000000000        0x0 /home/ethan/developer/opendrone/tools/gcc-arm-none-eabi-7-2017-q4-major/bin/../lib/gcc/arm-none-eabi/7.2.1/../../../../arm-none-eabi/lib/thumb/v7e-m/fpv4-sp/hard/libm.a(lib_a-sf_log2_data.o)
 .bss           0x0000000000000000        0x0 /home/ethan/developer/opendrone/tools/gcc-arm-none-eabi-7-2017-q4-major/bin/../lib/gcc/arm-none-eabi/7.2.1/../../../../arm-none-eabi/lib/thumb/v7e-m/fpv4-sp/hard/libm.a(lib_a-sf_log2_data.o)
 .text          0x0000000000000000        0x0 /home/ethan/developer/opendrone/tools/gcc-arm-none-eabi-7-2017-q4-major/bin/../lib/gcc/arm-none-eabi/7.2.1/../../../../arm-none-eabi/lib/thumb/v7e-m/fpv4-sp/hard/libm.a(lib_a-sf_lrint.o)
 .data          0x0000000000000000        0x0 /home/ethan/developer/opendrone/tools/gcc-arm-none-eabi-7-2017-q4-major/bin/../lib/gcc/arm-none-eabi/7.2.1/../../../../arm-none-eabi/lib/thumb/v7e-m/fpv4-sp/hard/libm.a(lib_a-sf_lrint.o)
 .bss           0x0000000000000000        0x0 /home/ethan/developer/opendrone/tools/gcc-arm-none-eabi-7-2017-q4-major/bin/../lib/gcc/arm-none-eabi/7.2.1/../../../../arm-none-eabi/lib/thumb/v7e-m/fpv4-sp/hard/libm.a(lib_a-sf_lrint.o)
 .text          0x0000000000000000        0x0 /home/ethan/developer/opendrone/tools/gcc-arm-none-eabi-7-2017-q4-major/bin/../lib/gcc/arm-none-eabi/7.2.1/../../../../arm-none-eabi/lib/thumb/v7e-m/fpv4-sp/hard/libm.a(lib_a-sf_pow.o)
 .data          0x0000000000000000        0x0 /home/ethan/developer/opendrone/tools/gcc-arm-none-eabi-7-2017-q4-major/bin/../lib/gcc/arm-none-eabi/7.2.1/../../../../arm-none-eabi/lib/thumb/v7e-m/fpv4-sp/hard/libm.a(lib_a-sf_pow.o)
 .bss           0x0000000000000000        0x0 /home/ethan/developer/opendrone/tools/gcc-arm-none-eabi-7-2017-q4-major/bin/../lib/gcc/arm-none-eabi/7.2.1/../../../../arm-none-eabi/lib/thumb/v7e-m/fpv4-sp/hard/libm.a(lib_a-sf_pow.o)
 .text          0x0000000000000000        0x0 /home/ethan/developer/opendrone/tools/gcc-arm-none-eabi-7-2017-q4-major/bin/../lib/gcc/arm-none-eabi/7.2.1/../../../../arm-none-eabi/lib/thumb/v7e-m/fpv4-sp/hard/libm.a(lib_a-sf_pow_log2_data.o)
 .data          0x0000000000000000        0x0 /home/ethan/developer/opendrone/tools/gcc-arm-none-eabi-7-2017-q4-major/bin/../lib/gcc/arm-none-eabi/7.2.1/../../../../arm-none-eabi/lib/thumb/v7e-m/fpv4-sp/hard/libm.a(lib_a-sf_pow_log2_data.o)
 .bss           0x0000000000000000        0x0 /home/ethan/developer/opendrone/tools/gcc-arm-none-eabi-7-2017-q4-major/bin/../lib/gcc/arm-none-eabi/7.2.1/../../../../arm-none-eabi/lib/thumb/v7e-m/fpv4-sp/hard/libm.a(lib_a-sf_pow_log2_data.o)
 .text          0x0000000000000000        0x0 /home/ethan/developer/opendrone/tools/gcc-arm-none-eabi-7-2017-q4-major/bin/../lib/gcc/arm-none-eabi/7.2.1/../../../../arm-none-eabi/lib/thumb/v7e-m/fpv4-sp/hard/libm.a(lib_a-wf_sqrt.o)
 .data          0x0000000000000000        0x0 /home/ethan/developer/opendrone/tools/gcc-arm-none-eabi-7-2017-q4-major/bin/../lib/gcc/arm-none-eabi/7.2.1/../../../../arm-none-eabi/lib/thumb/v7e-m/fpv4-sp/hard/libm.a(lib_a-wf_sqrt.o)
 .bss           0x0000000000000000        0x0 /home/ethan/developer/opendrone/tools/gcc-arm-none-eabi-7-2017-q4-major/bin/../lib/gcc/arm-none-eabi/7.2.1/../../../../arm-none-eabi/lib/thumb/v7e-m/fpv4-sp/hard/libm.a(lib_a-wf_sqrt.o)
 .text          0x0000000000000000        0x0 /home/ethan/developer/opendrone/tools/gcc-arm-none-eabi-7-2017-q4-major/bin/../lib/gcc/arm-none-eabi/7.2.1/../../../../arm-none-eabi/lib/thumb/v7e-m/fpv4-sp/hard/libm.a(lib_a-ef_sqrt.o)
 .data          0x0000000000000000        0x0 /home/ethan/developer/opendrone/tools/gcc-arm-none-eabi-7-2017-q4-major/bin/../lib/gcc/arm-none-eabi/7.2.1/../../../../arm-none-eabi/lib/thumb/v7e-m/fpv4-sp/hard/libm.a(lib_a-ef_sqrt.o)
 .bss           0x0000000000000000        0x0 /home/ethan/developer/opendrone/tools/gcc-arm-none-eabi-7-2017-q4-major/bin/../lib/gcc/arm-none-eabi/7.2.1/../../../../arm-none-eabi/lib/thumb/v7e-m/fpv4-sp/hard/libm.a(lib_a-ef_sqrt.o)
 .text          0x0000000000000000        0x0 /home/ethan/developer/opendrone/tools/gcc-arm-none-eabi-7-2017-q4-major/bin/../lib/gcc/arm-none-eabi/7.2.1/../../../../arm-none-eabi/lib/thumb/v7e-m/fpv4-sp/hard/libm.a(lib_a-math_errf.o)
 .data          0x0000000000000000        0x0 /home/ethan/developer/opendrone/tools/gcc-arm-none-eabi-7-2017-q4-major/bin/../lib/gcc/arm-none-eabi/7.2.1/../../../../arm-none-eabi/lib/thumb/v7e-m/fpv4-sp/hard/libm.a(lib_a-math_errf.o)
 .bss           0x0000000000000000        0x0 /home/ethan/developer/opendrone/tools/gcc-arm-none-eabi-7-2017-q4-major/bin/../lib/gcc/arm-none-eabi/7.2.1/../../../../arm-none-eabi/lib/thumb/v7e-m/fpv4-sp/hard/libm.a(lib_a-math_errf.o)
 .text          0x0000000000000000        0x0 /home/ethan/developer/opendrone/tools/gcc-arm-none-eabi-7-2017-q4-major/bin/../lib/gcc/arm-none-eabi/7.2.1/../../../../arm-none-eabi/lib/thumb/v7e-m/fpv4-sp/hard/libm.a(lib_a-s_lib_ver.o)
 .data          0x0000000000000000        0x0 /home/ethan/developer/opendrone/tools/gcc-arm-none-eabi-7-2017-q4-major/bin/../lib/gcc/arm-none-eabi/7.2.1/../../../../arm-none-eabi/lib/thumb/v7e-m/fpv4-sp/hard/libm.a(lib_a-s_lib_ver.o)
 .bss           0x0000000000000000        0x0 /home/ethan/developer/opendrone/tools/gcc-arm-none-eabi-7-2017-q4-major/bin/../lib/gcc/arm-none-eabi/7.2.1/../../../../arm-none-eabi/lib/thumb/v7e-m/fpv4-sp/hard/libm.a(lib_a-s_lib_ver.o)
 .text          0x0000000000000000        0x0 /home/ethan/developer/opendrone/tools/gcc-arm-none-eabi-7-2017-q4-major/bin/../lib/gcc/arm-none-eabi/7.2.1/../../../../arm-none-eabi/lib/thumb/v7e-m/fpv4-sp/hard/libm.a(lib_a-s_matherr.o)
 .data          0x0000000000000000        0x0 /home/ethan/developer/opendrone/tools/gcc-arm-none-eabi-7-2017-q4-major/bin/../lib/gcc/arm-none-eabi/7.2.1/../../../../arm-none-eabi/lib/thumb/v7e-m/fpv4-sp/hard/libm.a(lib_a-s_matherr.o)
 .bss           0x0000000000000000        0x0 /home/ethan/developer/opendrone/tools/gcc-arm-none-eabi-7-2017-q4-major/bin/../lib/gcc/arm-none-eabi/7.2.1/../../../../arm-none-eabi/lib/thumb/v7e-m/fpv4-sp/hard/libm.a(lib_a-s_matherr.o)
 .text          0x0000000000000000        0x0 /home/ethan/developer/opendrone/tools/gcc-arm-none-eabi-7-2017-q4-major/bin/../lib/gcc/arm-none-eabi/7.2.1/../../../../arm-none-eabi/lib/thumb/v7e-m/fpv4-sp/hard/libm.a(lib_a-sf_exp2_data.o)
 .data          0x0000000000000000        0x0 /home/ethan/developer/opendrone/tools/gcc-arm-none-eabi-7-2017-q4-major/bin/../lib/gcc/arm-none-eabi/7.2.1/../../../../arm-none-eabi/lib/thumb/v7e-m/fpv4-sp/hard/libm.a(lib_a-sf_exp2_data.o)
 .bss           0x0000000000000000        0x0 /home/ethan/developer/opendrone/tools/gcc-arm-none-eabi-7-2017-q4-major/bin/../lib/gcc/arm-none-eabi/7.2.1/../../../../arm-none-eabi/lib/thumb/v7e-m/fpv4-sp/hard/libm.a(lib_a-sf_exp2_data.o)
 .data          0x0000000000000000        0x0 /home/ethan/developer/opendrone/tools/gcc-arm-none-eabi-7-2017-q4-major/bin/../lib/gcc/arm-none-eabi/7.2.1/thumb/v7e-m/fpv4-sp/hard/libgcc.a(_arm_addsubdf3.o)
 .bss           0x0000000000000000        0x0 /home/ethan/developer/opendrone/tools/gcc-arm-none-eabi-7-2017-q4-major/bin/../lib/gcc/arm-none-eabi/7.2.1/thumb/v7e-m/fpv4-sp/hard/libgcc.a(_arm_addsubdf3.o)
 .data          0x0000000000000000        0x0 /home/ethan/developer/opendrone/tools/gcc-arm-none-eabi-7-2017-q4-major/bin/../lib/gcc/arm-none-eabi/7.2.1/thumb/v7e-m/fpv4-sp/hard/libgcc.a(_arm_muldivdf3.o)
 .bss           0x0000000000000000        0x0 /home/ethan/developer/opendrone/tools/gcc-arm-none-eabi-7-2017-q4-major/bin/../lib/gcc/arm-none-eabi/7.2.1/thumb/v7e-m/fpv4-sp/hard/libgcc.a(_arm_muldivdf3.o)
 .data          0x0000000000000000        0x0 /home/ethan/developer/opendrone/tools/gcc-arm-none-eabi-7-2017-q4-major/bin/../lib/gcc/arm-none-eabi/7.2.1/thumb/v7e-m/fpv4-sp/hard/libgcc.a(_arm_cmpdf2.o)
 .bss           0x0000000000000000        0x0 /home/ethan/developer/opendrone/tools/gcc-arm-none-eabi-7-2017-q4-major/bin/../lib/gcc/arm-none-eabi/7.2.1/thumb/v7e-m/fpv4-sp/hard/libgcc.a(_arm_cmpdf2.o)
 .data          0x0000000000000000        0x0 /home/ethan/developer/opendrone/tools/gcc-arm-none-eabi-7-2017-q4-major/bin/../lib/gcc/arm-none-eabi/7.2.1/thumb/v7e-m/fpv4-sp/hard/libgcc.a(_arm_fixunsdfsi.o)
 .bss           0x0000000000000000        0x0 /home/ethan/developer/opendrone/tools/gcc-arm-none-eabi-7-2017-q4-major/bin/../lib/gcc/arm-none-eabi/7.2.1/thumb/v7e-m/fpv4-sp/hard/libgcc.a(_arm_fixunsdfsi.o)
 .data          0x0000000000000000        0x0 /home/ethan/developer/opendrone/tools/gcc-arm-none-eabi-7-2017-q4-major/bin/../lib/gcc/arm-none-eabi/7.2.1/thumb/v7e-m/fpv4-sp/hard/libgcc.a(_arm_truncdfsf2.o)
 .bss           0x0000000000000000        0x0 /home/ethan/developer/opendrone/tools/gcc-arm-none-eabi-7-2017-q4-major/bin/../lib/gcc/arm-none-eabi/7.2.1/thumb/v7e-m/fpv4-sp/hard/libgcc.a(_arm_truncdfsf2.o)
 .data          0x0000000000000000        0x0 /home/ethan/developer/opendrone/tools/gcc-arm-none-eabi-7-2017-q4-major/bin/../lib/gcc/arm-none-eabi/7.2.1/thumb/v7e-m/fpv4-sp/hard/libgcc.a(_arm_addsubsf3.o)
 .bss           0x0000000000000000        0x0 /home/ethan/developer/opendrone/tools/gcc-arm-none-eabi-7-2017-q4-major/bin/../lib/gcc/arm-none-eabi/7.2.1/thumb/v7e-m/fpv4-sp/hard/libgcc.a(_arm_addsubsf3.o)
 .data          0x0000000000000000        0x0 /home/ethan/developer/opendrone/tools/gcc-arm-none-eabi-7-2017-q4-major/bin/../lib/gcc/arm-none-eabi/7.2.1/thumb/v7e-m/fpv4-sp/hard/libgcc.a(_aeabi_ldivmod.o)
 .bss           0x0000000000000000        0x0 /home/ethan/developer/opendrone/tools/gcc-arm-none-eabi-7-2017-q4-major/bin/../lib/gcc/arm-none-eabi/7.2.1/thumb/v7e-m/fpv4-sp/hard/libgcc.a(_aeabi_ldivmod.o)
 .data          0x0000000000000000        0x0 /home/ethan/developer/opendrone/tools/gcc-arm-none-eabi-7-2017-q4-major/bin/../lib/gcc/arm-none-eabi/7.2.1/thumb/v7e-m/fpv4-sp/hard/libgcc.a(_aeabi_uldivmod.o)
 .bss           0x0000000000000000        0x0 /home/ethan/developer/opendrone/tools/gcc-arm-none-eabi-7-2017-q4-major/bin/../lib/gcc/arm-none-eabi/7.2.1/thumb/v7e-m/fpv4-sp/hard/libgcc.a(_aeabi_uldivmod.o)
 .data          0x0000000000000000        0x0 /home/ethan/developer/opendrone/tools/gcc-arm-none-eabi-7-2017-q4-major/bin/../lib/gcc/arm-none-eabi/7.2.1/thumb/v7e-m/fpv4-sp/hard/libgcc.a(_popcountsi2.o)
 .bss           0x0000000000000000        0x0 /home/ethan/developer/opendrone/tools/gcc-arm-none-eabi-7-2017-q4-major/bin/../lib/gcc/arm-none-eabi/7.2.1/thumb/v7e-m/fpv4-sp/hard/libgcc.a(_popcountsi2.o)
 .data          0x0000000000000000        0x0 /home/ethan/developer/opendrone/tools/gcc-arm-none-eabi-7-2017-q4-major/bin/../lib/gcc/arm-none-eabi/7.2.1/thumb/v7e-m/fpv4-sp/hard/libgcc.a(_udivmoddi4.o)
 .bss           0x0000000000000000        0x0 /home/ethan/developer/opendrone/tools/gcc-arm-none-eabi-7-2017-q4-major/bin/../lib/gcc/arm-none-eabi/7.2.1/thumb/v7e-m/fpv4-sp/hard/libgcc.a(_udivmoddi4.o)
 .ARM.extab     0x0000000000000000        0x0 /home/ethan/developer/opendrone/tools/gcc-arm-none-eabi-7-2017-q4-major/bin/../lib/gcc/arm-none-eabi/7.2.1/thumb/v7e-m/fpv4-sp/hard/libgcc.a(_udivmoddi4.o)
 .data          0x0000000000000000        0x0 /home/ethan/developer/opendrone/tools/gcc-arm-none-eabi-7-2017-q4-major/bin/../lib/gcc/arm-none-eabi/7.2.1/thumb/v7e-m/fpv4-sp/hard/libgcc.a(_dvmd_tls.o)
 .bss           0x0000000000000000        0x0 /home/ethan/developer/opendrone/tools/gcc-arm-none-eabi-7-2017-q4-major/bin/../lib/gcc/arm-none-eabi/7.2.1/thumb/v7e-m/fpv4-sp/hard/libgcc.a(_dvmd_tls.o)

Memory Configuration

Name             Origin             Length             Attributes
FLASH            0x0000000008000000 0x000000000003f000 xr
FLASH_CONFIG     0x000000000803f000 0x0000000000001000 r
RAM              0x0000000020000000 0x000000000000a000 xrw
CCM              0x0000000010000000 0x0000000000002000 xrw
MEMORY_B1        0x0000000060000000 0x0000000000000000 xr
*default*        0x0000000000000000 0xffffffffffffffff

Linker script and memory map

LOAD obj/main/OPENDRONEBRH/startup_stm32f30x_md_gcc.o
LOAD /tmp/ccjoD88l.ltrans0.ltrans.o
LOAD /tmp/ccjoD88l.ltrans1.ltrans.o
LOAD /tmp/ccjoD88l.ltrans2.ltrans.o
LOAD /tmp/ccjoD88l.ltrans3.ltrans.o
LOAD /tmp/ccjoD88l.ltrans4.ltrans.o
LOAD /tmp/ccjoD88l.ltrans5.ltrans.o
LOAD /home/ethan/developer/opendrone/tools/gcc-arm-none-eabi-7-2017-q4-major/bin/../lib/gcc/arm-none-eabi/7.2.1/../../../../arm-none-eabi/lib/thumb/v7e-m/fpv4-sp/hard/libm.a
LOAD /home/ethan/developer/opendrone/tools/gcc-arm-none-eabi-7-2017-q4-major/bin/../lib/gcc/arm-none-eabi/7.2.1/../../../../arm-none-eabi/lib/thumb/v7e-m/fpv4-sp/hard/libc_nano.a
LOAD /home/ethan/developer/opendrone/tools/gcc-arm-none-eabi-7-2017-q4-major/bin/../lib/gcc/arm-none-eabi/7.2.1/../../../../arm-none-eabi/lib/thumb/v7e-m/fpv4-sp/hard/libnosys.a
START GROUP
LOAD /home/ethan/developer/opendrone/tools/gcc-arm-none-eabi-7-2017-q4-major/bin/../lib/gcc/arm-none-eabi/7.2.1/thumb/v7e-m/fpv4-sp/hard/libgcc.a
LOAD /home/ethan/developer/opendrone/tools/gcc-arm-none-eabi-7-2017-q4-major/bin/../lib/gcc/arm-none-eabi/7.2.1/../../../../arm-none-eabi/lib/thumb/v7e-m/fpv4-sp/hard/libg_nano.a
LOAD /home/ethan/developer/opendrone/tools/gcc-arm-none-eabi-7-2017-q4-major/bin/../lib/gcc/arm-none-eabi/7.2.1/../../../../arm-none-eabi/lib/thumb/v7e-m/fpv4-sp/hard/libc_nano.a
END GROUP
START GROUP
LOAD /home/ethan/developer/opendrone/tools/gcc-arm-none-eabi-7-2017-q4-major/bin/../lib/gcc/arm-none-eabi/7.2.1/thumb/v7e-m/fpv4-sp/hard/libgcc.a
LOAD /home/ethan/developer/opendrone/tools/gcc-arm-none-eabi-7-2017-q4-major/bin/../lib/gcc/arm-none-eabi/7.2.1/../../../../arm-none-eabi/lib/thumb/v7e-m/fpv4-sp/hard/libc_nano.a
END GROUP
                0x0000000000000000                _Min_Heap_Size = 0x0
                0x0000000000001800                _Min_Stack_Size = 0x1800
                0x0000000010002000                _estack = (ORIGIN (STACKRAM) + LENGTH (STACKRAM))
                0x000000000803f000                __config_start = ORIGIN (FLASH_CONFIG)
                0x0000000008040000                __config_end = (ORIGIN (FLASH_CONFIG) + LENGTH (FLASH_CONFIG))

.isr_vector     0x0000000008000000      0x188
                0x0000000008000000                . = ALIGN (0x4)
                [!provide]                        PROVIDE (isr_vector_table_base, .)
 *(.isr_vector)
 .isr_vector    0x0000000008000000      0x188 obj/main/OPENDRONEBRH/startup_stm32f30x_md_gcc.o
                0x0000000008000000                g_pfnVectors
                0x0000000008000188                . = ALIGN (0x4)

.text           0x0000000008000188    0x24698
                0x0000000008000188                . = ALIGN (0x4)
 *(.text)
 .text          0x0000000008000188     0x779c /tmp/ccjoD88l.ltrans0.ltrans.o
                0x0000000008000188                taskUpdateRxCheck
                0x00000000080003c2                cliGpsPassthrough.lto_priv.299
                0x000000000800050e                isCalibrating
                0x0000000008000564                resetConfigs
                0x00000000080005bc                getPidUpdateRate
                0x00000000080005dc                cliWrite.lto_priv.344
                0x0000000008000600                cliPrint.lto_priv.343
                0x000000000800062c                cliPrompt.lto_priv.341
                0x0000000008000648                cliPrintLinefeed.lto_priv.345
                0x0000000008000650                cliHelp.lto_priv.300
                0x00000000080006ce                cliResource.lto_priv.308
                0x0000000008000754                cliVersion.lto_priv.318
                0x0000000008000788                cliTasks.lto_priv.317
                0x0000000008000c04                cliName.lto_priv.305
                0x00000000080011f8                cliAux.lto_priv.289
                0x000000000800129c                cliPrintLine.lto_priv.342
                0x00000000080012aa                cliStatus.lto_priv.316
                0x00000000080016c0                cliGet.lto_priv.298
                0x0000000008001730                cliSet.lto_priv.314
                0x000000000800197c                cliPlaySound.lto_priv.306
                0x0000000008001a20                cliMixer.lto_priv.302
                0x0000000008001ad0                cliBeeper.lto_priv.290
                0x0000000008001c2c                cliFeature.lto_priv.297
                0x0000000008001d38                cliBootlog.lto_priv.291
                0x0000000008001dec                cliMotor.lto_priv.304
                0x0000000008001e90                cliMap.lto_priv.301
                0x0000000008001f34                cliServoMix.lto_priv.315
                0x00000000080021b0                cliServo.lto_priv.313
                0x0000000008002284                cliRxRange.lto_priv.309
                0x0000000008002344                cliMotorMix.lto_priv.303
                0x00000000080024d8                cliAdjustmentRange.lto_priv.288
                0x00000000080025d4                cliSerialPassthrough.lto_priv.312
                0x0000000008002798                cliSerial.lto_priv.311
                0x0000000008002da8                cliDiff.lto_priv.294
                0x0000000008002dac                cliDump.lto_priv.295
                0x0000000008002db0                TIM1_BRK_TIM15_IRQHandler
                0x0000000008002dc0                TIM8_CC_IRQHandler
                0x0000000008002dd0                TIM8_UP_IRQHandler
                0x0000000008002dd4                TIM3_IRQHandler
                0x0000000008002de4                TIM2_IRQHandler
                0x0000000008002df4                TIM1_CC_IRQHandler
                0x0000000008002e04                TIM1_UP_TIM16_IRQHandler
                0x0000000008002e08                timerChConfigCallbacks
                0x0000000008002ee8                configTimeBase
                0x0000000008002f88                timerConfigure
                0x0000000008002ffc                micros
                0x0000000008003098                taskGyro
                0x000000000800370c                delayMicroseconds
                0x000000000800372e                delay
                0x00000000080037bc                cliExit.lto_priv.296
                0x00000000080037fc                cliDfu.lto_priv.293
                0x0000000008003810                failureMode
                0x0000000008003880                writeEEPROM
                0x0000000008003a40                mwDisarm
                0x0000000008003ae0                cliDefaults.lto_priv.292
                0x0000000008003b0c                cliSave.lto_priv.310
                0x0000000008003b24                readEEPROM
                0x0000000008003f90                setConfigProfileAndWriteEEPROM
                0x0000000008003fae                cliProfile.lto_priv.307
                0x0000000008003ff0                saveConfigAndNotify
                0x0000000008004004                taskUpdateRxMain
                0x0000000008005188                taskMainPidLoop
 *fill*         0x0000000008007924        0x4 
 .text          0x0000000008007928     0x35fc /tmp/ccjoD88l.ltrans1.ltrans.o
                0x0000000008007ba4                adcPitotStart.lto_priv.223
                0x0000000008007ba6                adcPitotRead.lto_priv.224
                0x0000000008007ba8                pca9685setServoPulse
                0x0000000008007d28                biquadFilterApply
                0x0000000008007d6e                nullFilterApply
                0x0000000008008084                SysTick_Handler
                0x00000000080080b4                uartStartTxDMA
                0x0000000008008116                serialSetMode
                0x000000000800811c                isSerialTransmitBufferEmpty
                0x0000000008008122                serialRead
                0x0000000008008128                serialRxBytesWaiting
                0x000000000800812e                serialWrite
                0x0000000008008134                serialWriteBuf
                0x000000000800816a                serialWriteBufShim
                0x0000000008008178                pwmWriteServo
                0x00000000080081b8                addBootlogEntry.lto_priv.230
                0x00000000080081fc                addBootlogEvent6
                0x000000000800822e                IOGetByTag
                0x0000000008008274                uartOpen
                0x0000000008008560                IOLo
                0x000000000800856a                IOHi
                0x0000000008008574                IOWrite
                0x0000000008008588                systemBeep
                0x00000000080085a0                IO_GPIOPinIdx
                0x00000000080085b4                IO_GPIOPortIdx
                0x00000000080085c6                IOConfigGPIOAF
                0x0000000008008824                IOConfigGPIO
                0x000000000800888e                EXTI15_10_IRQHandler
                0x0000000008008892                EXTI0_IRQHandler
                0x0000000008008896                EXTI9_5_IRQHandler
                0x000000000800889a                EXTI4_IRQHandler
                0x000000000800889e                EXTI3_IRQHandler
                0x00000000080088a2                EXTI2_TS_IRQHandler
                0x00000000080088a6                EXTI1_IRQHandler
                0x00000000080088aa                spiTimeoutUserCallback
                0x00000000080089b0                busRead
                0x0000000008008a18                busReadBuf
                0x0000000008008abc                busWrite
                0x0000000008008b60                pca9685sync
                0x0000000008008ba4                pca9685setPWMFreq
                0x0000000008008be8                busSetSpeed
                0x0000000008008c84                busDeviceDeInit
                0x0000000008008c9e                busDeviceInit
                0x0000000008008d3c                pca9685Initialize
                0x0000000008008de0                bufWriterFlush
                0x0000000008008df8                adcGetChannel
                0x0000000008008e38                adcPitotCalculate.lto_priv.225
                0x0000000008008e84                pgActivateProfile
                0x0000000008008eb0                pgResetInstance.lto_priv.323
                0x0000000008008ef8                pgReset
                0x0000000008008f10                pgFind
                0x0000000008008f34                write_word.lto_priv.441
                0x0000000008008fe8                config_streamer_write
                0x000000000800901a                updateCRC.lto_priv.440
                0x0000000008009046                isEEPROMContentValid.part.4
                0x00000000080090a0                sl_strncasecmp
                0x00000000080090d4                fastA2I
                0x000000000800910e                fastA2F
                0x0000000008009224                ftoa
                0x00000000080092f0                rtcGet
                0x0000000008009324                rtcTimeToDateTime.lto_priv.442
                0x00000000080093fc                rtcGetDateTime
                0x000000000800942a                dateTimeToRtcTime.lto_priv.443
                0x0000000008009484                sbufReadU8Safe
                0x000000000800949e                sbufReadU32
                0x00000000080094ca                sbufReadU16
                0x00000000080094e0                sbufReadU16Safe
                0x00000000080094fe                sbufReadU8
                0x0000000008009508                sbufWriteData
                0x000000000800951c                sbufWriteU32
                0x0000000008009544                sbufWriteU16
                0x0000000008009558                tfp_format
                0x000000000800975a                tfp_sprintf
                0x0000000008009784                tfp_printf
                0x00000000080097c0                sensorCalibration_SolveLGS.lto_priv.265
                0x00000000080098f4                quickMedianFilter3
                0x000000000800992a                applyDeadband
                0x0000000008009948                wrap_18000
                0x000000000800996c                atan2_approx
                0x0000000008009a50                sin_approx
                0x0000000008009b14                cos_approx
                0x0000000008009b24                biquadFilterInit
                0x0000000008009bf0                biquadFilterInitNotch
                0x0000000008009c5a                pt1FilterApply4
                0x0000000008009cb0                crc8_dvb_s2
                0x0000000008009cca                crc8_dvb_s2_update
                0x0000000008009ce0                bitArraySet
                0x0000000008009cf8                debugTracePrintf
                0x000000000800a098                telemetryCheckRxPortShared
                0x000000000800a0ac                telemetryCheckState
                0x000000000800a7ac                processSmartPortTelemetry
                0x000000000800aed8                smartPortWriteFrameSerial
 .text          0x000000000800af24     0x5424 /tmp/ccjoD88l.ltrans2.ltrans.o
                0x000000000800af24                taskSyncPwmDriver
                0x000000000800af50                taskUpdateTemperature
                0x000000000800b008                mspFcProcessCommand
                0x000000000800dcc8                taskAcc
                0x000000000800dccc                taskAttitude
                0x000000000800dcd0                taskTelemetry
                0x000000000800f4cc                taskUpdatePitot
                0x000000000800f5a8                taskUpdateBaro
                0x000000000800f7e0                taskProcessGPS
                0x000000000800f9e0                taskUpdateBattery
                0x000000000800fd54                taskHandleSerial
                0x0000000008010328                HardFault_Handler
 .text          0x0000000008010348     0x5244 /tmp/ccjoD88l.ltrans3.ltrans.o
                0x0000000008010644                navOnEnteringState_NAV_STATE_LAUNCH_IN_PROGRESS.lto_priv.409
                0x0000000008010658                navOnEnteringState_NAV_STATE_EMERGENCY_LANDING_FINISHED.lto_priv.406
                0x000000000801065c                navOnEnteringState_NAV_STATE_EMERGENCY_LANDING_IN_PROGRESS.lto_priv.405
                0x0000000008010660                navOnEnteringState_NAV_STATE_WAYPOINT_FINISHED.lto_priv.402
                0x0000000008010680                navOnEnteringState_NAV_STATE_WAYPOINT_NEXT.lto_priv.401
                0x00000000080106b0                navOnEnteringState_NAV_STATE_WAYPOINT_REACHED.lto_priv.400
                0x00000000080107ba                usbTxBytesFree.lto_priv.255
                0x00000000080107be                usbVcpBeginWrite.lto_priv.262
                0x00000000080107c6                usbVcpIsConnected.lto_priv.261
                0x00000000080107dc                usbVcpAvailable.lto_priv.254
                0x00000000080107e8                bmp280_start_ut.lto_priv.219
                0x00000000080107ec                isUsbVcpTransmitBufferEmpty.lto_priv.258
                0x00000000080107f0                usbVcpSetMode.lto_priv.259
                0x00000000080107f2                usbVcpSetBaudRate.lto_priv.257
                0x00000000080107f4                ms5611_calculate.lto_priv.213
                0x00000000080109b8                bmp280_calculate.lto_priv.222
                0x0000000008010ba0                bmp280_get_ut.lto_priv.218
                0x0000000008010bb6                mpu6500AccInit.lto_priv.210
                0x0000000008010bbe                mpuTemperatureReadScratchpad
                0x0000000008010be2                mpuAccReadScratchpad
                0x0000000008010c80                gyroCheckDataReady
                0x0000000008010da0                navOnEnteringState_NAV_STATE_LAUNCH_INITIALIZE.lto_priv.407
                0x0000000008010e88                navOnEnteringState_NAV_STATE_LAUNCH_WAIT.lto_priv.408
                0x0000000008010ed0                navOnEnteringState_NAV_STATE_RTH_FINISHING.lto_priv.395
                0x00000000080111f8                usbVcpEndWrite.lto_priv.263
                0x0000000008011200                usbVcpWrite.lto_priv.253
                0x0000000008011220                usbVcpWriteBuf.lto_priv.260
                0x0000000008011268                usbVcpRead.lto_priv.256
                0x0000000008011326                ms56xx_get_up.lto_priv.217
                0x000000000801133c                ms56xx_get_ut.lto_priv.215
                0x0000000008011350                bmp280_get_up.lto_priv.221
                0x00000000080113ac                mpuGyroReadScratchpad
                0x00000000080113f0                ms56xx_start_up.lto_priv.216
                0x00000000080113fa                ms56xx_start_ut.lto_priv.214
                0x0000000008011404                bmp280_start_up.lto_priv.220
                0x0000000008011414                mpu6500AccAndGyroInit.lto_priv.469
                0x0000000008011688                handleUsartTxDma.lto_priv.446
                0x00000000080116c2                smartPortSendByte
                0x00000000080116f2                sendMspErrorResponse
                0x0000000008011720                mavlinkSendMessage.lto_priv.330
                0x0000000008011768                mavlinkStreamTrigger.lto_priv.329
                0x00000000080117a4                crc_accumulate.lto_priv.229
                0x00000000080117c0                respondToIbusRequest
                0x0000000008011b28                flushHottRxBuffer.lto_priv.332
                0x0000000008011b44                hottSwitchState.lto_priv.331
                0x0000000008011b64                serialize16.lto_priv.334
                0x0000000008011b7a                sendTelemetryTail.lto_priv.333
                0x0000000008011b88                sendDataHead.lto_priv.335
                0x0000000008011ba8                sendLatLong.lto_priv.336
                0x0000000008011c20                crsfFinalize.lto_priv.325
                0x0000000008011c5c                crsfSerialize8.lto_priv.326
                0x0000000008011c78                crsfSerialize32.lto_priv.328
                0x0000000008011ca2                crsfSerialize16.lto_priv.327
                0x0000000008011cb8                updatePositionEstimator
                0x0000000008012668                shouldResetReferenceAltitude.lto_priv.337
                0x00000000080126a0                onNewGPSData
                0x0000000008012d10                calculateMulticopterInitialHoldPosition
                0x0000000008012d5c                resetMulticopterPositionController
                0x0000000008012db4                resetMulticopterAltitudeController
                0x0000000008012e54                navOnEnteringState_NAV_STATE_EMERGENCY_LANDING_INITIALIZE.lto_priv.404
                0x0000000008012e5e                navOnEnteringState_NAV_STATE_WAYPOINT_INITIALIZE.lto_priv.397
                0x0000000008012e8c                navOnEnteringState_NAV_STATE_IDLE.lto_priv.383
                0x0000000008012eb4                updateAltitudeThrottleController_MC.lto_priv.437
                0x0000000008012f5c                updateAltitudeVelocityController_MC.lto_priv.438
                0x0000000008013038                isNavLaunchEnabled
                0x0000000008013054                navigationUsePIDs
                0x0000000008013234                navigationRequiresAngleMode
                0x0000000008013268                selectNavEventFromBoxModeInput.lto_priv.434
                0x00000000080133b4                resetWaypointList
                0x00000000080133d4                getWaypoint
                0x000000000801345c                saveNonVolatileWaypointList
                0x000000000801349c                updateClimbRateToAltitudeController
                0x0000000008013594                navOnEnteringState_NAV_STATE_RTH_FINISHED.lto_priv.396
                0x00000000080135bc                updateHomePositionCompatibility.lto_priv.439
                0x00000000080135f0                setHomePosition
                0x000000000801364c                calculateBearingToDestination
                0x00000000080136a8                applyFixedWingNavigationController
                0x000000000801412c                setDesiredPosition
                0x00000000080141ec                setWaypoint
                0x00000000080142f8                loadNonVolatileWaypointList
                0x0000000008014344                navOnEnteringState_NAV_STATE_POSHOLD_3D_IN_PROGRESS.lto_priv.389
                0x000000000801437c                navOnEnteringState_NAV_STATE_POSHOLD_3D_INITIALIZE.lto_priv.388
                0x00000000080143f0                navOnEnteringState_NAV_STATE_POSHOLD_2D_IN_PROGRESS.lto_priv.387
                0x0000000008014418                navOnEnteringState_NAV_STATE_POSHOLD_2D_INITIALIZE.lto_priv.386
                0x0000000008014460                navOnEnteringState_NAV_STATE_ALTHOLD_IN_PROGRESS.lto_priv.385
                0x0000000008014484                navOnEnteringState_NAV_STATE_ALTHOLD_INITIALIZE.lto_priv.384
                0x00000000080144cc                calculateDistanceToDestination
                0x0000000008014574                navOnEnteringState_NAV_STATE_RTH_LANDING.lto_priv.394
                0x0000000008014818                navOnEnteringState_NAV_STATE_WAYPOINT_RTH_LAND.lto_priv.403
                0x0000000008014834                navOnEnteringState_NAV_STATE_RTH_HOVER_PRIOR_TO_LANDING.lto_priv.393
                0x00000000080148d4                navOnEnteringState_NAV_STATE_WAYPOINT_PRE_ACTION.lto_priv.398
                0x0000000008014924                navOnEnteringState_NAV_STATE_RTH_CLIMB_TO_SAFE_ALT.lto_priv.391
                0x0000000008014a2c                navOnEnteringState_NAV_STATE_RTH_INITIALIZE.lto_priv.390
                0x0000000008014bbc                navOnEnteringState_NAV_STATE_WAYPOINT_IN_PROGRESS.lto_priv.399
                0x0000000008014c30                navOnEnteringState_NAV_STATE_RTH_HEAD_HOME.lto_priv.392
                0x0000000008014ca8                navProcessFSMEvents.lto_priv.433
                0x0000000008014de0                gpsResetSolution.lto_priv.339
                0x0000000008014e00                gpsHandleProtocol.lto_priv.338
                0x0000000008014eb0                gpsSetState
                0x0000000008014ec4                openSoftSerial
                0x00000000080150e8                systemTimekeepingSetup.lto_priv.506
                0x0000000008015160                isMPUSoftReset
                0x0000000008015170                USART3_IRQHandler
                0x000000000801517c                USART2_IRQHandler
                0x0000000008015188                USART1_IRQHandler
                0x0000000008015194                gpioInit
                0x00000000080151e8                DMA2_Channel5_IRQHandler
                0x00000000080151fc                DMA2_Channel4_IRQHandler
                0x0000000008015210                DMA2_Channel3_IRQHandler
                0x0000000008015224                DMA2_Channel2_IRQHandler
                0x0000000008015238                DMA2_Channel1_IRQHandler
                0x000000000801524c                DMA1_Channel7_IRQHandler
                0x0000000008015260                DMA1_Channel6_IRQHandler
                0x0000000008015274                DMA1_Channel5_IRQHandler
                0x0000000008015284                DMA1_Channel4_IRQHandler
                0x0000000008015294                DMA1_Channel3_IRQHandler
                0x00000000080152a4                DMA1_Channel2_IRQHandler
                0x00000000080152b4                DMA1_Channel1_IRQHandler
                0x00000000080152c4                i2cWaitForCompletion.lto_priv.500
                0x0000000008015524                SystemInit
 .text          0x000000000801558c     0x4714 /tmp/ccjoD88l.ltrans4.ltrans.o
                0x000000000801569c                setupFixedWingAltitudeController
                0x000000000801569c                NOP_Process
                0x00000000080156b4                Virtual_Com_Port_SetDeviceAddress
                0x00000000080156c0                Virtual_Com_Port_SetConfiguration
                0x0000000008016910                RCC_ClockCmd.constprop.205
                0x000000000801694c                NVIC_Init.part.0.constprop.204
                0x0000000008016988                EXTI_Init.part.0.constprop.202
                0x0000000008016a64                serialUARTInit.constprop.176
                0x0000000008016aec                spiTransfer.constprop.173
                0x0000000008016b42                timerGetByTag.part.2.constprop.153
                0x0000000008016b64                geoConvertGeodeticToLocal.constprop.149
                0x0000000008016bdc                ledSet.constprop.143
                0x0000000008016bec                ledToggle.constprop.142
                0x0000000008016c08                FLASH_WaitForLastOperation.constprop.141
                0x0000000008016c2c                geoConvertLocalToGeodetic.constprop.139
                0x0000000008016cac                navPidApply3.constprop.138
                0x0000000008016d92                quaternionRotateVectorInv.constprop.125
                0x0000000008016dfc                quaternionRotateVector.constprop.124
                0x0000000008016e68                mavlink_msg_mission_clear_all_decode.constprop.102
                0x0000000008016e8c                mavlink_msg_mission_count_decode.constprop.101
                0x0000000008016ea8                mavlink_finalize_message.isra.1.constprop.98
                0x0000000008016f58                mavlink_msg_mission_ack_pack.constprop.87
                0x0000000008016f90                addBootlogEvent2.constprop.75
                0x0000000008016fa8                crc_high_first.constprop.73
                0x0000000008016fd8                findNextSharedSerialPort.constprop.43
                0x000000000801703c                quaternionNormalize.constprop.22
                0x00000000080170c4                USBWakeUp_IRQHandler
                0x00000000080170d4                PendSV_Handler
                0x00000000080170d6                DebugMon_Handler
                0x00000000080170d8                SVC_Handler
                0x00000000080170da                UsageFault_Handler
                0x00000000080170dc                BusFault_Handler
                0x00000000080170de                MemManage_Handler
                0x00000000080170e0                NMI_Handler
                0x00000000080170e2                CDC_Send_DATA.part.0
                0x0000000008017140                SetEPRxCount
                0x0000000008017364                TIM_ICInit
                0x0000000008017480                timerChConfigIC.constprop.154
                0x00000000080174ac                DMA_Init
                0x00000000080174e8                DMA_DeInit
                0x00000000080175dc                GPIO_Init
                0x0000000008017666                RCC_GetClocksFreq
                0x0000000008017948                getHwGPSStatus
                0x0000000008017974                getHwPitotmeterStatus
                0x0000000008017998                getHwBarometerStatus
                0x00000000080179bc                getHwAccelerometerStatus
                0x00000000080179e0                isHardwareHealthy
                0x0000000008017a22                applyBoardAlignment.part.1
                0x0000000008017ab0                applySensorAlignment
                0x0000000008017b06                initBoardAlignment
                0x0000000008017c20                updateBoardAlignment
                0x0000000008017cc8                calculateBatteryPercentage
                0x0000000008017d30                getBatteryAverageCellVoltage
                0x0000000008017d4c                updateBatteryVoltage.lto_priv.340
                0x0000000008017dbc                accInitFilters
                0x0000000008017e5c                sensorsAutodetect.part.0
                0x0000000008018264                accGetCalibrationAxisFlags
                0x00000000080182a8                queueAdd.lto_priv.504
                0x0000000008018318                setTaskEnabled.part.0
                0x000000000801837c                setRSSI.part.1
                0x0000000008018558                parseRcChannels
                0x0000000008018598                resumeRxSignal
                0x00000000080185cc                suspendRxSignal
                0x00000000080185f4                rxUpdateRSSISource
                0x0000000008018630                rxInit
                0x0000000008018cf4                ibusIsChecksumOkIa6b
                0x0000000008018de0                mspSerialEncode.lto_priv.501
                0x0000000008018fb8                mspSerialProcessReceivedCommand.constprop.14
                0x0000000008019028                mspSerialAllocatePorts
                0x00000000080190dc                isFeatureSupported.lto_priv.503
                0x00000000080190f0                rcdeviceIsCameraControlEnabled.lto_priv.502
                0x0000000008019128                runcamDeviceSendPacket.part.3.lto_priv.264
                0x0000000008019528                USB_LP_CAN1_RX0_IRQHandler
 .text          0x0000000008019ca0     0x2268 /tmp/ccjoD88l.ltrans5.ltrans.o
                0x0000000008019ca0                nopConsumer.lto_priv.209
                0x0000000008019dba                sendCtrlCommand.isra.2.lto_priv.232
                0x0000000008019df4                runcamDeviceSendRequestAndWaitingResp.lto_priv.231
                0x0000000008019f08                warningLedRefresh
                0x0000000008019f3c                waitForSerialPortToFinishTransmitting
                0x0000000008019f52                closeSerialPort
                0x0000000008019f7c                openSerialPort
                0x000000000801a04c                serialFindPortConfiguration
                0x000000000801a070                pgResetFn_serialConfig
                0x000000000801a0c8                determinePortSharing
                0x000000000801a0dc                findSerialPortConfig
                0x000000000801a120                beeperSilence
                0x000000000801a144                beeper
                0x000000000801a1b8                beeperConfirmationBeeps
                0x000000000801a1f0                loadCustomServoMixer.part.0
                0x000000000801a29c                servoComputeScalingFactors
                0x000000000801a2e8                determineServoMiddleOrForwardFromChannel
                0x000000000801a320                pidBank.lto_priv.240.lto_priv.436
                0x000000000801a320                pidBankMutable.lto_priv.242.lto_priv.322
                0x000000000801a320                pidBank.lto_priv.239.lto_priv.431
                0x000000000801a320                pidBankMutable.lto_priv.243.lto_priv.430
                0x000000000801a320                pidBank.lto_priv.238.lto_priv.324
                0x000000000801a320                pidBank.lto_priv.241.lto_priv.429
                0x000000000801a33c                autotuneUpdateGains
                0x000000000801a390                pidResetTPAFilter.part.0
                0x000000000801a3ec                pidLevel.lto_priv.435
                0x000000000801a51c                pidAngleToRcCommand
                0x000000000801a57c                pidResetErrorAccumulators
                0x000000000801a59c                pidInitFilters
                0x000000000801a608                writeMotors
                0x000000000801a63c                stopMotors
                0x000000000801a680                mixerResetDisarmedMotors
                0x000000000801a6b4                findMixer
                0x000000000801a6d8                mixerUpdateStateFlags
                0x000000000801a728                calculateCosTiltAngle
                0x000000000801a750                isImuHeadingValid
                0x000000000801a784                isImuReady
                0x000000000801a7a4                imuUpdateAccelerometer
                0x000000000801adb0                imuSetMagneticDeclination
                0x000000000801adec                imuComputeRotationMatrix.lto_priv.505
                0x000000000801aea8                quaternionMultiply.lto_priv.228
                0x000000000801af1a                imuUpdateAttitude
                0x000000000801b734                failsafeRequiresAngleMode
                0x000000000801b764                setting_get_max
                0x000000000801b794                setting_get_min
                0x000000000801b7b4                getValueOffset.lto_priv.444
                0x000000000801b7f8                setting_get_pgn
                0x000000000801b838                setting_get_value_pointer
                0x000000000801b852                setting_get_name
                0x000000000801b8a4                getFlightModeForTelemetry
                0x000000000801b8fc                sensorsSet
                0x000000000801b90c                disableFlightMode
                0x000000000801b930                enableFlightMode
                0x000000000801b954                failsafeActivate.lto_priv.432
                0x000000000801b990                isRangeActive.part.0
                0x000000000801b9d8                updateUsedModeActivationConditionFlags
                0x000000000801ba4c                IS_RC_MODE_ACTIVE
                0x000000000801ba70                beeperUpdate
                0x000000000801bb90                generateThrottleCurve
                0x000000000801bc30                calculateThrottleStatus
                0x000000000801bc7c                areSticksDeflectedMoreThanPosHoldDeadband
                0x000000000801bcac                packSensorStatus
                0x000000000801bd04                packBoxModeFlags
                0x000000000801bee4                findBoxByActiveBoxId
 .text          0x000000000801bf08       0x14 /home/ethan/developer/opendrone/tools/gcc-arm-none-eabi-7-2017-q4-major/bin/../lib/gcc/arm-none-eabi/7.2.1/../../../../arm-none-eabi/lib/thumb/v7e-m/fpv4-sp/hard/libc_nano.a(lib_a-strcmp.o)
                0x000000000801bf08                strcmp
 .text          0x000000000801bf1c       0x10 /home/ethan/developer/opendrone/tools/gcc-arm-none-eabi-7-2017-q4-major/bin/../lib/gcc/arm-none-eabi/7.2.1/../../../../arm-none-eabi/lib/thumb/v7e-m/fpv4-sp/hard/libc_nano.a(lib_a-strlen.o)
                0x000000000801bf1c                strlen
 .text          0x000000000801bf2c      0x378 /home/ethan/developer/opendrone/tools/gcc-arm-none-eabi-7-2017-q4-major/bin/../lib/gcc/arm-none-eabi/7.2.1/thumb/v7e-m/fpv4-sp/hard/libgcc.a(_arm_addsubdf3.o)
                0x000000000801bf2c                __aeabi_drsub
                0x000000000801bf34                __aeabi_dsub
                0x000000000801bf34                __subdf3
                0x000000000801bf38                __adddf3
                0x000000000801bf38                __aeabi_dadd
                0x000000000801c1b0                __aeabi_ui2d
                0x000000000801c1b0                __floatunsidf
                0x000000000801c1d0                __floatsidf
                0x000000000801c1d0                __aeabi_i2d
                0x000000000801c1f4                __extendsfdf2
                0x000000000801c1f4                __aeabi_f2d
                0x000000000801c238                __aeabi_ul2d
                0x000000000801c238                __floatundidf
                0x000000000801c248                __floatdidf
                0x000000000801c248                __aeabi_l2d
 .text          0x000000000801c2a4      0x424 /home/ethan/developer/opendrone/tools/gcc-arm-none-eabi-7-2017-q4-major/bin/../lib/gcc/arm-none-eabi/7.2.1/thumb/v7e-m/fpv4-sp/hard/libgcc.a(_arm_muldivdf3.o)
                0x000000000801c2a4                __aeabi_dmul
                0x000000000801c2a4                __muldf3
                0x000000000801c4f8                __aeabi_ddiv
                0x000000000801c4f8                __divdf3
 .text          0x000000000801c6c8      0x110 /home/ethan/developer/opendrone/tools/gcc-arm-none-eabi-7-2017-q4-major/bin/../lib/gcc/arm-none-eabi/7.2.1/thumb/v7e-m/fpv4-sp/hard/libgcc.a(_arm_cmpdf2.o)
                0x000000000801c6c8                __gtdf2
                0x000000000801c6c8                __gedf2
                0x000000000801c6d0                __ltdf2
                0x000000000801c6d0                __ledf2
                0x000000000801c6d8                __cmpdf2
                0x000000000801c6d8                __eqdf2
                0x000000000801c6d8                __nedf2
                0x000000000801c754                __aeabi_cdrcmple
                0x000000000801c764                __aeabi_cdcmple
                0x000000000801c764                __aeabi_cdcmpeq
                0x000000000801c774                __aeabi_dcmpeq
                0x000000000801c788                __aeabi_dcmplt
                0x000000000801c79c                __aeabi_dcmple
                0x000000000801c7b0                __aeabi_dcmpge
                0x000000000801c7c4                __aeabi_dcmpgt
 .text          0x000000000801c7d8       0x40 /home/ethan/developer/opendrone/tools/gcc-arm-none-eabi-7-2017-q4-major/bin/../lib/gcc/arm-none-eabi/7.2.1/thumb/v7e-m/fpv4-sp/hard/libgcc.a(_arm_fixunsdfsi.o)
                0x000000000801c7d8                __fixunsdfsi
                0x000000000801c7d8                __aeabi_d2uiz
 .text          0x000000000801c818       0xa0 /home/ethan/developer/opendrone/tools/gcc-arm-none-eabi-7-2017-q4-major/bin/../lib/gcc/arm-none-eabi/7.2.1/thumb/v7e-m/fpv4-sp/hard/libgcc.a(_arm_truncdfsf2.o)
                0x000000000801c818                __aeabi_d2f
                0x000000000801c818                __truncdfsf2
 .text          0x000000000801c8b8      0x21c /home/ethan/developer/opendrone/tools/gcc-arm-none-eabi-7-2017-q4-major/bin/../lib/gcc/arm-none-eabi/7.2.1/thumb/v7e-m/fpv4-sp/hard/libgcc.a(_arm_addsubsf3.o)
                0x000000000801c8b8                __aeabi_frsub
                0x000000000801c8c0                __subsf3
                0x000000000801c8c0                __aeabi_fsub
                0x000000000801c8c4                __aeabi_fadd
                0x000000000801c8c4                __addsf3
                0x000000000801ca24                __aeabi_ui2f
                0x000000000801ca24                __floatunsisf
                0x000000000801ca2c                __aeabi_i2f
                0x000000000801ca2c                __floatsisf
                0x000000000801ca48                __floatundisf
                0x000000000801ca48                __aeabi_ul2f
                0x000000000801ca58                __floatdisf
                0x000000000801ca58                __aeabi_l2f
 .text          0x000000000801cad4       0xa0 /home/ethan/developer/opendrone/tools/gcc-arm-none-eabi-7-2017-q4-major/bin/../lib/gcc/arm-none-eabi/7.2.1/thumb/v7e-m/fpv4-sp/hard/libgcc.a(_aeabi_ldivmod.o)
                0x000000000801cad4                __aeabi_ldivmod
 .text          0x000000000801cb74       0x30 /home/ethan/developer/opendrone/tools/gcc-arm-none-eabi-7-2017-q4-major/bin/../lib/gcc/arm-none-eabi/7.2.1/thumb/v7e-m/fpv4-sp/hard/libgcc.a(_aeabi_uldivmod.o)
                0x000000000801cb74                __aeabi_uldivmod
 .text          0x000000000801cba4       0x28 /home/ethan/developer/opendrone/tools/gcc-arm-none-eabi-7-2017-q4-major/bin/../lib/gcc/arm-none-eabi/7.2.1/thumb/v7e-m/fpv4-sp/hard/libgcc.a(_popcountsi2.o)
                0x000000000801cba4                __popcountsi2
 .text          0x000000000801cbcc      0x2cc /home/ethan/developer/opendrone/tools/gcc-arm-none-eabi-7-2017-q4-major/bin/../lib/gcc/arm-none-eabi/7.2.1/thumb/v7e-m/fpv4-sp/hard/libgcc.a(_udivmoddi4.o)
                0x000000000801cbcc                __udivmoddi4
 .text          0x000000000801ce98        0x4 /home/ethan/developer/opendrone/tools/gcc-arm-none-eabi-7-2017-q4-major/bin/../lib/gcc/arm-none-eabi/7.2.1/thumb/v7e-m/fpv4-sp/hard/libgcc.a(_dvmd_tls.o)
                0x000000000801ce98                __aeabi_ldiv0
                0x000000000801ce98                __aeabi_idiv0
 *(.text*)
 .text.Reset_Handler
                0x000000000801ce9c       0x9c obj/main/OPENDRONEBRH/startup_stm32f30x_md_gcc.o
                0x000000000801ce9c                Reset_Handler
 .text.Default_Handler
                0x000000000801cf38        0x2 obj/main/OPENDRONEBRH/startup_stm32f30x_md_gcc.o
                0x000000000801cf38                RTC_Alarm_IRQHandler
                0x000000000801cf38                TIM8_TRG_COM_IRQHandler
                0x000000000801cf38                USB_HP_IRQHandler
                0x000000000801cf38                PVD_IRQHandler
                0x000000000801cf38                I2C2_EV_IRQHandler
                0x000000000801cf38                FPU_IRQHandler
                0x000000000801cf38                ADC1_2_IRQHandler
                0x000000000801cf38                SPI1_IRQHandler
                0x000000000801cf38                TIM6_DAC_IRQHandler
                0x000000000801cf38                CAN1_RX1_IRQHandler
                0x000000000801cf38                UART5_IRQHandler
                0x000000000801cf38                ADC3_IRQHandler
                0x000000000801cf38                TIM4_IRQHandler
                0x000000000801cf38                I2C1_EV_IRQHandler
                0x000000000801cf38                UART4_IRQHandler
                0x000000000801cf38                RCC_IRQHandler
                0x000000000801cf38                Default_Handler
                0x000000000801cf38                USBWakeUp_RMP_IRQHandler
                0x000000000801cf38                TIM7_IRQHandler
                0x000000000801cf38                TAMPER_STAMP_IRQHandler
                0x000000000801cf38                RTC_WKUP_IRQHandler
                0x000000000801cf38                SPI2_IRQHandler
                0x000000000801cf38                USB_LP_IRQHandler
                0x000000000801cf38                TIM1_TRG_COM_TIM17_IRQHandler
                0x000000000801cf38                USB_HP_CAN1_TX_IRQHandler
                0x000000000801cf38                ADC4_IRQHandler
                0x000000000801cf38                WWDG_IRQHandler
                0x000000000801cf38                COMP7_IRQHandler
                0x000000000801cf38                COMP1_2_3_IRQHandler
                0x000000000801cf38                COMP4_5_6_IRQHandler
                0x000000000801cf38                I2C2_ER_IRQHandler
                0x000000000801cf38                TIM8_BRK_IRQHandler
                0x000000000801cf38                CAN1_SCE_IRQHandler
                0x000000000801cf38                FLASH_IRQHandler
                0x000000000801cf38                SPI3_IRQHandler
                0x000000000801cf38                I2C1_ER_IRQHandler
 *fill*         0x000000000801cf3a        0x2 
 .text.startup  0x000000000801cf3c     0x20ac /tmp/ccjoD88l.ltrans1.ltrans.o
                0x000000000801cf3c                main
 .text.unlikely
                0x000000000801efe8       0xf4 /tmp/ccjoD88l.ltrans4.ltrans.o
 .text.__strtok_r
                0x000000000801f0dc       0x54 /home/ethan/developer/opendrone/tools/gcc-arm-none-eabi-7-2017-q4-major/bin/../lib/gcc/arm-none-eabi/7.2.1/../../../../arm-none-eabi/lib/thumb/v7e-m/fpv4-sp/hard/libc_nano.a(lib_a-strtok_r.o)
                0x000000000801f0dc                __strtok_r
 .text.strtok_r
                0x000000000801f130        0x6 /home/ethan/developer/opendrone/tools/gcc-arm-none-eabi-7-2017-q4-major/bin/../lib/gcc/arm-none-eabi/7.2.1/../../../../arm-none-eabi/lib/thumb/v7e-m/fpv4-sp/hard/libc_nano.a(lib_a-strtok_r.o)
                0x000000000801f130                strtok_r
 *fill*         0x000000000801f136        0x2 
 .text.__errno  0x000000000801f138        0xc /home/ethan/developer/opendrone/tools/gcc-arm-none-eabi-7-2017-q4-major/bin/../lib/gcc/arm-none-eabi/7.2.1/../../../../arm-none-eabi/lib/thumb/v7e-m/fpv4-sp/hard/libc_nano.a(lib_a-errno.o)
                0x000000000801f138                __errno
 .text.memcpy   0x000000000801f144       0x16 /home/ethan/developer/opendrone/tools/gcc-arm-none-eabi-7-2017-q4-major/bin/../lib/gcc/arm-none-eabi/7.2.1/../../../../arm-none-eabi/lib/thumb/v7e-m/fpv4-sp/hard/libc_nano.a(lib_a-memcpy-stub.o)
                0x000000000801f144                memcpy
 .text.memmove  0x000000000801f15a       0x32 /home/ethan/developer/opendrone/tools/gcc-arm-none-eabi-7-2017-q4-major/bin/../lib/gcc/arm-none-eabi/7.2.1/../../../../arm-none-eabi/lib/thumb/v7e-m/fpv4-sp/hard/libc_nano.a(lib_a-memmove.o)
                0x000000000801f15a                memmove
 .text.memset   0x000000000801f18c       0x10 /home/ethan/developer/opendrone/tools/gcc-arm-none-eabi-7-2017-q4-major/bin/../lib/gcc/arm-none-eabi/7.2.1/../../../../arm-none-eabi/lib/thumb/v7e-m/fpv4-sp/hard/libc_nano.a(lib_a-memset.o)
                0x000000000801f18c                memset
 .text.strcat   0x000000000801f19c       0x1e /home/ethan/developer/opendrone/tools/gcc-arm-none-eabi-7-2017-q4-major/bin/../lib/gcc/arm-none-eabi/7.2.1/../../../../arm-none-eabi/lib/thumb/v7e-m/fpv4-sp/hard/libc_nano.a(lib_a-strcat.o)
                0x000000000801f19c                strcat
 .text.strchr   0x000000000801f1ba       0x1a /home/ethan/developer/opendrone/tools/gcc-arm-none-eabi-7-2017-q4-major/bin/../lib/gcc/arm-none-eabi/7.2.1/../../../../arm-none-eabi/lib/thumb/v7e-m/fpv4-sp/hard/libc_nano.a(lib_a-strchr.o)
                0x000000000801f1ba                strchr
 .text.strcpy   0x000000000801f1d4       0x10 /home/ethan/developer/opendrone/tools/gcc-arm-none-eabi-7-2017-q4-major/bin/../lib/gcc/arm-none-eabi/7.2.1/../../../../arm-none-eabi/lib/thumb/v7e-m/fpv4-sp/hard/libc_nano.a(lib_a-strcpy.o)
                0x000000000801f1d4                strcpy
 .text.strncmp  0x000000000801f1e4       0x24 /home/ethan/developer/opendrone/tools/gcc-arm-none-eabi-7-2017-q4-major/bin/../lib/gcc/arm-none-eabi/7.2.1/../../../../arm-none-eabi/lib/thumb/v7e-m/fpv4-sp/hard/libc_nano.a(lib_a-strncmp.o)
                0x000000000801f1e4                strncmp
 .text.strncpy  0x000000000801f208       0x2a /home/ethan/developer/opendrone/tools/gcc-arm-none-eabi-7-2017-q4-major/bin/../lib/gcc/arm-none-eabi/7.2.1/../../../../arm-none-eabi/lib/thumb/v7e-m/fpv4-sp/hard/libc_nano.a(lib_a-strncpy.o)
                0x000000000801f208                strncpy
 .text.strspn   0x000000000801f232       0x24 /home/ethan/developer/opendrone/tools/gcc-arm-none-eabi-7-2017-q4-major/bin/../lib/gcc/arm-none-eabi/7.2.1/../../../../arm-none-eabi/lib/thumb/v7e-m/fpv4-sp/hard/libc_nano.a(lib_a-strspn.o)
                0x000000000801f232                strspn
 .text.strstr   0x000000000801f256       0x34 /home/ethan/developer/opendrone/tools/gcc-arm-none-eabi-7-2017-q4-major/bin/../lib/gcc/arm-none-eabi/7.2.1/../../../../arm-none-eabi/lib/thumb/v7e-m/fpv4-sp/hard/libc_nano.a(lib_a-strstr.o)
                0x000000000801f256                strstr
 *fill*         0x000000000801f28a        0x2 
 .text.log2f    0x000000000801f28c      0x13c /home/ethan/developer/opendrone/tools/gcc-arm-none-eabi-7-2017-q4-major/bin/../lib/gcc/arm-none-eabi/7.2.1/../../../../arm-none-eabi/lib/thumb/v7e-m/fpv4-sp/hard/libm.a(lib_a-sf_log2.o)
                0x000000000801f28c                log2f
 .text.lrintf   0x000000000801f3c8       0x98 /home/ethan/developer/opendrone/tools/gcc-arm-none-eabi-7-2017-q4-major/bin/../lib/gcc/arm-none-eabi/7.2.1/../../../../arm-none-eabi/lib/thumb/v7e-m/fpv4-sp/hard/libm.a(lib_a-sf_lrint.o)
                0x000000000801f3c8                lrintf
 .text.powf     0x000000000801f460      0x3a8 /home/ethan/developer/opendrone/tools/gcc-arm-none-eabi-7-2017-q4-major/bin/../lib/gcc/arm-none-eabi/7.2.1/../../../../arm-none-eabi/lib/thumb/v7e-m/fpv4-sp/hard/libm.a(lib_a-sf_pow.o)
                0x000000000801f460                powf
 .text.sqrtf    0x000000000801f808       0xac /home/ethan/developer/opendrone/tools/gcc-arm-none-eabi-7-2017-q4-major/bin/../lib/gcc/arm-none-eabi/7.2.1/../../../../arm-none-eabi/lib/thumb/v7e-m/fpv4-sp/hard/libm.a(lib_a-wf_sqrt.o)
                0x000000000801f808                sqrtf
 .text.__ieee754_sqrtf
                0x000000000801f8b4        0x8 /home/ethan/developer/opendrone/tools/gcc-arm-none-eabi-7-2017-q4-major/bin/../lib/gcc/arm-none-eabi/7.2.1/../../../../arm-none-eabi/lib/thumb/v7e-m/fpv4-sp/hard/libm.a(lib_a-ef_sqrt.o)
                0x000000000801f8b4                __ieee754_sqrtf
 .text.with_errnof
                0x000000000801f8bc       0x1c /home/ethan/developer/opendrone/tools/gcc-arm-none-eabi-7-2017-q4-major/bin/../lib/gcc/arm-none-eabi/7.2.1/../../../../arm-none-eabi/lib/thumb/v7e-m/fpv4-sp/hard/libm.a(lib_a-math_errf.o)
 .text.xflowf   0x000000000801f8d8       0x20 /home/ethan/developer/opendrone/tools/gcc-arm-none-eabi-7-2017-q4-major/bin/../lib/gcc/arm-none-eabi/7.2.1/../../../../arm-none-eabi/lib/thumb/v7e-m/fpv4-sp/hard/libm.a(lib_a-math_errf.o)
 .text.__math_uflowf
                0x000000000801f8f8        0xc /home/ethan/developer/opendrone/tools/gcc-arm-none-eabi-7-2017-q4-major/bin/../lib/gcc/arm-none-eabi/7.2.1/../../../../arm-none-eabi/lib/thumb/v7e-m/fpv4-sp/hard/libm.a(lib_a-math_errf.o)
                0x000000000801f8f8                __math_uflowf
 .text.__math_may_uflowf
                0x000000000801f904        0xc /home/ethan/developer/opendrone/tools/gcc-arm-none-eabi-7-2017-q4-major/bin/../lib/gcc/arm-none-eabi/7.2.1/../../../../arm-none-eabi/lib/thumb/v7e-m/fpv4-sp/hard/libm.a(lib_a-math_errf.o)
                0x000000000801f904                __math_may_uflowf
 .text.__math_oflowf
                0x000000000801f910        0xc /home/ethan/developer/opendrone/tools/gcc-arm-none-eabi-7-2017-q4-major/bin/../lib/gcc/arm-none-eabi/7.2.1/../../../../arm-none-eabi/lib/thumb/v7e-m/fpv4-sp/hard/libm.a(lib_a-math_errf.o)
                0x000000000801f910                __math_oflowf
 .text.__math_divzerof
                0x000000000801f91c       0x24 /home/ethan/developer/opendrone/tools/gcc-arm-none-eabi-7-2017-q4-major/bin/../lib/gcc/arm-none-eabi/7.2.1/../../../../arm-none-eabi/lib/thumb/v7e-m/fpv4-sp/hard/libm.a(lib_a-math_errf.o)
                0x000000000801f91c                __math_divzerof
 .text.__math_invalidf
                0x000000000801f940       0x20 /home/ethan/developer/opendrone/tools/gcc-arm-none-eabi-7-2017-q4-major/bin/../lib/gcc/arm-none-eabi/7.2.1/../../../../arm-none-eabi/lib/thumb/v7e-m/fpv4-sp/hard/libm.a(lib_a-math_errf.o)
                0x000000000801f940                __math_invalidf
 .text.matherr  0x000000000801f960        0x4 /home/ethan/developer/opendrone/tools/gcc-arm-none-eabi-7-2017-q4-major/bin/../lib/gcc/arm-none-eabi/7.2.1/../../../../arm-none-eabi/lib/thumb/v7e-m/fpv4-sp/hard/libm.a(lib_a-s_matherr.o)
                0x000000000801f960                matherr
 *(.rodata)
 .rodata        0x000000000801f964      0x804 /tmp/ccjoD88l.ltrans0.ltrans.o
                0x000000000801fc50                servoMixers
                0x000000000801fd20                timerDefinitions
                0x000000000801fd84                navFSM.lto_priv.522
                0x000000000802010d                servoMixerAirplane.lto_priv.499
                0x0000000008020125                servoMixerFlyingWing.lto_priv.498
                0x0000000008020135                servoMixerTri.lto_priv.497
 .rodata        0x0000000008020168      0x134 /tmp/ccjoD88l.ltrans1.ltrans.o
 .rodata        0x000000000802029c      0x3b0 /tmp/ccjoD88l.ltrans2.ltrans.o
                0x00000000080203f8                gpsProviders.lto_priv.459
                0x0000000008020440                cmdTable
                0x0000000008020630                pwmDrivers
                0x0000000008020640                buildTime
                0x0000000008020644                buildDate
                0x0000000008020648                targetName
 .rodata        0x000000000802064c      0x2a4 /tmp/ccjoD88l.ltrans3.ltrans.o
 .rodata        0x00000000080208f0      0x229 /tmp/ccjoD88l.ltrans4.ltrans.o
                0x0000000008020900                timerHardware
                0x00000000080209c6                rcChannelLetters
                0x00000000080209d0                baudRates
                0x0000000008020ac4                camDevice
                0x0000000008020b0c                leds.lto_priv.473
                0x0000000008020b18                ledOffset.lto_priv.321
                0x0000000008020b18                driverImplementationIndex.lto_priv.278
 *fill*         0x0000000008020b19        0x3 
 .rodata        0x0000000008020b1c     0x1b19 /tmp/ccjoD88l.ltrans5.ltrans.o
                0x0000000008020b60                serialPortIdentifiers
                0x0000000008020b68                beeperTable
                0x0000000008020d78                failsafeProcedureLogic.lto_priv.364
                0x0000000008020d90                settingLookupTables
                0x0000000008020f70                settingsTable
                0x0000000008021da0                boxes.lto_priv.269
                0x0000000008021f2c                table_smartport_fuel_unit
                0x0000000008021f38                table_serial_rx
                0x0000000008021f64                table_reset_altitude
                0x0000000008021f70                table_receiver_type
                0x0000000008021f8c                table_pitot_hardware
                0x0000000008021fa4                table_off_on
                0x0000000008021fac                table_nav_user_control_mode
                0x0000000008021fb4                table_nav_rth_alt_mode
                0x0000000008021fc8                table_nav_rth_allow_landing
                0x0000000008021fd4                table_motor_pwm_protocol
                0x0000000008021fe8                table_i2c_speed
                0x0000000008021ff8                table_gyro_lpf
                0x0000000008022010                table_gps_sbas_mode
                0x0000000008022028                table_gps_provider
                0x0000000008022040                table_gps_dyn_model
                0x000000000802204c                table_gimbal_mode
                0x0000000008022054                table_frsky_unit
                0x000000000802205c                table_failsafe_procedure
                0x000000000802206c                table_debug_modes
                0x00000000080220a0                table_current_sensor
                0x00000000080220ac                table_bat_capacity_unit
                0x00000000080220b4                table_baro_hardware
                0x00000000080220d0                table_aux_operator
                0x00000000080220d8                table_async_mode
                0x00000000080220e4                table_alignment
                0x0000000008022108                table_acc_hardware
                0x00000000080225c8                beep_camCloseBeep.lto_priv.428
                0x00000000080225cc                beep_camOpenBeep.lto_priv.427
                0x00000000080225d2                beep_launchModeBeep.lto_priv.426
                0x00000000080225d7                beep_armedBeep.lto_priv.425
                0x00000000080225dc                beep_disarmRepeatBeep.lto_priv.424
                0x00000000080225e0                beep_readyBeep.lto_priv.423
                0x00000000080225ef                beep_2longerBeeps.lto_priv.422
                0x00000000080225f4                beep_2shortBeeps.lto_priv.421
                0x00000000080225f9                beep_shortBeep.lto_priv.420
                0x00000000080225fc                beep_lowBatteryBeep.lto_priv.418
                0x00000000080225ff                beep_critBatteryBeep.lto_priv.417
                0x0000000008022602                beep_armedGpsFix.lto_priv.416
                0x000000000802260b                beep_armingBeep.lto_priv.415
                0x0000000008022610                beep_disarmBeep.lto_priv.414
                0x0000000008022615                beep_sos.lto_priv.413
                0x0000000008022628                beep_txLostBeep.lto_priv.412
                0x000000000802262b                beep_hardwareFailure.lto_priv.411
                0x000000000802262e                beep_runtimeCalibrationDone.lto_priv.410
 *(.rodata*)
 .rodata.str1.1
                0x0000000008022635      0xe69 /tmp/ccjoD88l.ltrans0.ltrans.o
                                        0xf42 (size before relaxing)
 .rodata.str1.1
                0x000000000802349e       0x6c /tmp/ccjoD88l.ltrans1.ltrans.o
                                         0xb6 (size before relaxing)
 .rodata.str1.1
                0x000000000802350a      0x458 /tmp/ccjoD88l.ltrans2.ltrans.o
                                        0x4f0 (size before relaxing)
 .rodata.str1.1
                0x0000000008023962       0x39 /tmp/ccjoD88l.ltrans3.ltrans.o
 .rodata.str1.1
                0x000000000802399b       0x48 /tmp/ccjoD88l.ltrans4.ltrans.o
                                         0x8a (size before relaxing)
 .rodata.str1.1
                0x00000000080239e3      0xa9c /tmp/ccjoD88l.ltrans5.ltrans.o
                                        0xbd3 (size before relaxing)
 *fill*         0x000000000802447f        0x1 
 .rodata.__log2f_data
                0x0000000008024480      0x120 /home/ethan/developer/opendrone/tools/gcc-arm-none-eabi-7-2017-q4-major/bin/../lib/gcc/arm-none-eabi/7.2.1/../../../../arm-none-eabi/lib/thumb/v7e-m/fpv4-sp/hard/libm.a(lib_a-sf_log2_data.o)
                0x0000000008024480                __log2f_data
 .rodata.TWO23  0x00000000080245a0        0x8 /home/ethan/developer/opendrone/tools/gcc-arm-none-eabi-7-2017-q4-major/bin/../lib/gcc/arm-none-eabi/7.2.1/../../../../arm-none-eabi/lib/thumb/v7e-m/fpv4-sp/hard/libm.a(lib_a-sf_lrint.o)
 .rodata.__powf_log2_data
                0x00000000080245a8      0x128 /home/ethan/developer/opendrone/tools/gcc-arm-none-eabi-7-2017-q4-major/bin/../lib/gcc/arm-none-eabi/7.2.1/../../../../arm-none-eabi/lib/thumb/v7e-m/fpv4-sp/hard/libm.a(lib_a-sf_pow_log2_data.o)
                0x00000000080245a8                __powf_log2_data
 .rodata.sqrtf.str1.4
                0x00000000080246d0        0x8 /home/ethan/developer/opendrone/tools/gcc-arm-none-eabi-7-2017-q4-major/bin/../lib/gcc/arm-none-eabi/7.2.1/../../../../arm-none-eabi/lib/thumb/v7e-m/fpv4-sp/hard/libm.a(lib_a-wf_sqrt.o)
                                          0x6 (size before relaxing)
 .rodata.__exp2f_data
                0x00000000080246d8      0x148 /home/ethan/developer/opendrone/tools/gcc-arm-none-eabi-7-2017-q4-major/bin/../lib/gcc/arm-none-eabi/7.2.1/../../../../arm-none-eabi/lib/thumb/v7e-m/fpv4-sp/hard/libm.a(lib_a-sf_exp2_data.o)
                0x00000000080246d8                __exp2f_data
 *(.glue_7)
 .glue_7        0x0000000008024820        0x0 linker stubs
 *(.glue_7t)
 .glue_7t       0x0000000008024820        0x0 linker stubs
 *(.eh_frame)
 *(.init)
 *(.fini)
                0x0000000008024820                . = ALIGN (0x4)
                0x0000000008024820                _etext = .

.vfp11_veneer   0x0000000008024820        0x0
 .vfp11_veneer  0x0000000008024820        0x0 linker stubs

.v4_bx          0x0000000008024820        0x0
 .v4_bx         0x0000000008024820        0x0 linker stubs

.iplt           0x0000000008024820        0x0
 .iplt          0x0000000008024820        0x0 obj/main/OPENDRONEBRH/startup_stm32f30x_md_gcc.o

.ARM.extab
 *(.ARM.extab* .gnu.linkonce.armextab.*)

.ARM            0x0000000008024820        0x8
                0x0000000008024820                __exidx_start = .
 *(.ARM.exidx*)
 .ARM.exidx     0x0000000008024820        0x8 /home/ethan/developer/opendrone/tools/gcc-arm-none-eabi-7-2017-q4-major/bin/../lib/gcc/arm-none-eabi/7.2.1/thumb/v7e-m/fpv4-sp/hard/libgcc.a(_udivmoddi4.o)
                0x0000000008024828                __exidx_end = .

.preinit_array  0x0000000008024828        0x0
                [!provide]                        PROVIDE (__preinit_array_start, .)
 *(.preinit_array*)
                [!provide]                        PROVIDE (__preinit_array_end, .)

.init_array     0x0000000008024828        0x0
                [!provide]                        PROVIDE (__init_array_start, .)
 *(SORT_BY_NAME(.init_array.*))
 *(.init_array*)
                [!provide]                        PROVIDE (__init_array_end, .)

.fini_array     0x0000000008024828        0x0
                [!provide]                        PROVIDE (__fini_array_start, .)
 *(.fini_array*)
 *(SORT_BY_NAME(.fini_array.*))
                [!provide]                        PROVIDE (__fini_array_end, .)

.pg_registry    0x0000000008024828      0x320
                0x0000000008024828                PROVIDE (__pg_registry_start, .)
 *(.pg_registry)
 .pg_registry   0x0000000008024828       0x8c /tmp/ccjoD88l.ltrans0.ltrans.o
                0x0000000008024828                adcChannelConfig_Registry
                0x000000000802483c                imuConfig_Registry
                0x0000000008024850                controlRateProfiles_Registry
                0x0000000008024864                statsConfig_Registry
                0x0000000008024878                pidAutotuneConfig_Registry
                0x000000000802488c                gimbalConfig_Registry
                0x00000000080248a0                modeActivationOperatorConfig_Registry
 .pg_registry   0x00000000080248b4       0xf0 /tmp/ccjoD88l.ltrans2.ltrans.o
                0x00000000080248b4                telemetryConfig_Registry
                0x00000000080248c8                compassConfig_Registry
                0x00000000080248dc                featureConfig_Registry
                0x00000000080248f0                timeConfig_Registry
                0x0000000008024904                positionEstimationConfig_Registry
                0x0000000008024918                navConfig_Registry
                0x000000000802492c                servoConfig_Registry
                0x0000000008024940                customMotorMixer_Registry
                0x0000000008024954                gpsConfig_Registry
                0x0000000008024968                adjustmentRanges_Registry
                0x000000000802497c                gyroConfig_Registry
                0x0000000008024990                armingConfig_Registry
 .pg_registry   0x00000000080249a4       0x28 /tmp/ccjoD88l.ltrans3.ltrans.o
                0x00000000080249a4                displayConfig_Registry
                0x00000000080249b8                nonVolatileWaypointList_Registry
 .pg_registry   0x00000000080249cc       0xc8 /tmp/ccjoD88l.ltrans4.ltrans.o
                0x00000000080249cc                rxChannelRangeConfigs_Registry
                0x00000000080249e0                modeActivationConditions_Registry
                0x00000000080249f4                rxConfig_Registry
                0x0000000008024a08                batteryConfig_Registry
                0x0000000008024a1c                boardAlignment_Registry
                0x0000000008024a30                systemConfig_Registry
                0x0000000008024a44                pitotmeterConfig_Registry
                0x0000000008024a58                barometerConfig_Registry
                0x0000000008024a6c                accelerometerConfig_Registry
                0x0000000008024a80                serialConfig_Registry
 .pg_registry   0x0000000008024a94       0xb4 /tmp/ccjoD88l.ltrans5.ltrans.o
                0x0000000008024a94                rcControlsConfig_Registry
                0x0000000008024aa8                failsafeConfig_Registry
                0x0000000008024abc                mixerConfig_Registry
                0x0000000008024ad0                flight3DConfig_Registry
                0x0000000008024ae4                motorConfig_Registry
                0x0000000008024af8                pidProfile_Registry
                0x0000000008024b0c                servoParams_Registry
                0x0000000008024b20                customServoMixers_Registry
                0x0000000008024b34                beeperConfig_Registry
 *(SORT_BY_NAME(.pg_registry.*))
                0x0000000008024b48                PROVIDE (__pg_registry_end, .)

.pg_resetdata   0x0000000008024b48      0x214
                0x0000000008024b48                PROVIDE (__pg_resetdata_start, .)
 *(.pg_resetdata)
 .pg_resetdata  0x0000000008024b48       0x28 /tmp/ccjoD88l.ltrans0.ltrans.o
                0x0000000008024b48                pgResetTemplate_adcChannelConfig
                0x0000000008024b4c                pgResetTemplate_imuConfig
                0x0000000008024b58                pgResetTemplate_statsConfig
                0x0000000008024b68                pgResetTemplate_pidAutotuneConfig
 .pg_resetdata  0x0000000008024b70       0xdf /tmp/ccjoD88l.ltrans2.ltrans.o
                0x0000000008024b70                pgResetTemplate_telemetryConfig
                0x0000000008024b84                pgResetTemplate_compassConfig
                0x0000000008024b98                pgResetTemplate_featureConfig
                0x0000000008024b9c                pgResetTemplate_timeConfig
                0x0000000008024ba0                pgResetTemplate_positionEstimationConfig
                0x0000000008024bd8                pgResetTemplate_navConfig
                0x0000000008024c28                pgResetTemplate_servoConfig
                0x0000000008024c32                pgResetTemplate_gpsConfig
                0x0000000008024c3a                pgResetTemplate_gyroConfig
                0x0000000008024c4c                pgResetTemplate_armingConfig
 *fill*         0x0000000008024c4f        0x1 
 .pg_resetdata  0x0000000008024c50        0x1 /tmp/ccjoD88l.ltrans3.ltrans.o
                0x0000000008024c50                pgResetTemplate_displayConfig
 *fill*         0x0000000008024c51        0x3 
 .pg_resetdata  0x0000000008024c54       0x6e /tmp/ccjoD88l.ltrans4.ltrans.o
                0x0000000008024c54                pgResetTemplate_rxConfig
                0x0000000008024c78                pgResetTemplate_batteryConfig
                0x0000000008024c98                pgResetTemplate_systemConfig
                0x0000000008024cb4                pgResetTemplate_pitotmeterConfig
                0x0000000008024cc0                pgResetTemplate_barometerConfig
 *fill*         0x0000000008024cc2        0x2 
 .pg_resetdata  0x0000000008024cc4       0x98 /tmp/ccjoD88l.ltrans5.ltrans.o
                0x0000000008024cc4                pgResetTemplate_rcControlsConfig
                0x0000000008024cca                pgResetTemplate_failsafeConfig
                0x0000000008024cde                pgResetTemplate_mixerConfig
                0x0000000008024ce2                pgResetTemplate_flight3DConfig
                0x0000000008024ce8                pgResetTemplate_motorConfig
                0x0000000008024cf4                pgResetTemplate_pidProfile
                0x0000000008024d5c                PROVIDE (__pg_resetdata_end, .)

.busdev_registry
                0x0000000008024d5c       0x24
                0x0000000008024d5c                PROVIDE (__busdev_registry_start, .)
 *(.busdev_registry)
 .busdev_registry
                0x0000000008024d5c       0x24 /tmp/ccjoD88l.ltrans3.ltrans.o
                0x0000000008024d5c                busdev_mpu6500_registry
                0x0000000008024d68                busdev_bmp280_registry
                0x0000000008024d74                busdev_ms5611_registry
 *(SORT_BY_NAME(.busdev_registry.*))
                0x0000000008024d80                PROVIDE (__busdev_registry_end, .)
                0x0000000008024d80                _sidata = .

.rel.dyn        0x0000000008024d80        0x0
 .rel.iplt      0x0000000008024d80        0x0 obj/main/OPENDRONEBRH/startup_stm32f30x_md_gcc.o

.data           0x0000000020000000      0x7f4 load address 0x0000000008024d80
                0x0000000020000000                . = ALIGN (0x4)
                0x0000000020000000                _sdata = .
 *(.data)
 .data          0x0000000020000000        0xa /tmp/ccjoD88l.ltrans0.ltrans.o
                0x0000000020000000                SystemCoreClock
                0x0000000020000008                altHoldThrottleRCZero.lto_priv.523
 *fill*         0x000000002000000a        0x2 
 .data          0x000000002000000c      0x22c /tmp/ccjoD88l.ltrans1.ltrans.o
                0x0000000020000010                dmaDescriptors.lto_priv.532
                0x000000002000019c                SENSOR_ADDRESS_TYPE_LOOKUP.lto_priv.508
                0x00000000200001dc                i2cHardwareMap.lto_priv.534
 .data          0x0000000020000238        0x8 /tmp/ccjoD88l.ltrans2.ltrans.o
 .data          0x0000000020000240        0x6 /tmp/ccjoD88l.ltrans3.ltrans.o
 *fill*         0x0000000020000246        0x2 
 .data          0x0000000020000248      0x540 /tmp/ccjoD88l.ltrans4.ltrans.o
                0x000000002000029c                Device_Property
                0x0000000020000303                standardBoardAlignment.lto_priv.250
                0x0000000020000304                batteryCellCount.lto_priv.237
                0x0000000020000308                cfTasks
 .data          0x0000000020000788        0x1 /tmp/ccjoD88l.ltrans5.ltrans.o
                0x0000000020000788                isUsingSticksToArm.lto_priv.349
 *(.data*)
 *fill*         0x0000000020000789        0x3 
 .data._impure_ptr
                0x000000002000078c        0x4 /home/ethan/developer/opendrone/tools/gcc-arm-none-eabi-7-2017-q4-major/bin/../lib/gcc/arm-none-eabi/7.2.1/../../../../arm-none-eabi/lib/thumb/v7e-m/fpv4-sp/hard/libc_nano.a(lib_a-impure.o)
                0x000000002000078c                _impure_ptr
 .data.impure_data
                0x0000000020000790       0x60 /home/ethan/developer/opendrone/tools/gcc-arm-none-eabi-7-2017-q4-major/bin/../lib/gcc/arm-none-eabi/7.2.1/../../../../arm-none-eabi/lib/thumb/v7e-m/fpv4-sp/hard/libc_nano.a(lib_a-impure.o)
 .data.__fdlib_version
                0x00000000200007f0        0x1 /home/ethan/developer/opendrone/tools/gcc-arm-none-eabi-7-2017-q4-major/bin/../lib/gcc/arm-none-eabi/7.2.1/../../../../arm-none-eabi/lib/thumb/v7e-m/fpv4-sp/hard/libm.a(lib_a-s_lib_ver.o)
                0x00000000200007f0                __fdlib_version
                0x00000000200007f4                . = ALIGN (0x4)
 *fill*         0x00000000200007f1        0x3 
                0x00000000200007f4                _edata = .

.igot.plt       0x00000000200007f4        0x0 load address 0x0000000008025574
 .igot.plt      0x00000000200007f4        0x0 obj/main/OPENDRONEBRH/startup_stm32f30x_md_gcc.o
                0x00000000200007f4                . = ALIGN (0x4)

.bss            0x00000000200007f8     0x5368 load address 0x0000000008025574
                0x00000000200007f8                _sbss = .
                0x00000000200007f8                __bss_start__ = _sbss
 *(.bss)
 .bss           0x00000000200007f8      0xa1e /tmp/ccjoD88l.ltrans0.ltrans.o
                0x0000000020000846                pitotCalibrationFinished.lto_priv.457
                0x0000000020000848                eepromConfigSize.lto_priv.451
                0x000000002000084a                adcChannelConfig_System
                0x0000000020000850                eventCount.lto_priv.449
                0x0000000020000854                events.lto_priv.450
                0x0000000020000c54                timerConfig
                0x0000000020000d1c                sysTickPending.lto_priv.445
                0x0000000020000d20                usTicks.lto_priv.528
                0x0000000020000f48                rcCommandAdjustedThrottle.lto_priv.524
                0x0000000020000f60                lastAccelTargetX.lto_priv.520
                0x0000000020000f64                lastAccelTargetY.lto_priv.521
                0x0000000020000f68                mcPosControllerAccFilterStateX.lto_priv.518
                0x0000000020000f74                mcPosControllerAccFilterStateY.lto_priv.519
                0x0000000020000f8c                currentMixer.lto_priv.470
                0x000000002000104e                mixerUsesServos.lto_priv.471
                0x00000000200010d0                servoOutputEnabled.lto_priv.472
                0x00000000200010d4                motorControlEnable
 *fill*         0x0000000020001216        0x2 
 .bss           0x0000000020001218      0xc72 /tmp/ccjoD88l.ltrans1.ltrans.o
                0x00000000200012ac                extiChannelRecs
                0x000000002000130c                uartPort1.lto_priv.531
                0x0000000020001364                uartPort2.lto_priv.530
                0x00000000200013bc                uartPort3.lto_priv.529
                0x0000000020001a1c                busState.lto_priv.533
                0x0000000020001b74                frskyPort.lto_priv.511
                0x0000000020001b98                cachedRccCsrValue
                0x0000000020001ba4                extiGroupPriority.lto_priv.527
                0x0000000020001d04                pitotCalibrationTimeout.lto_priv.517
                0x0000000020001d08                mspPackage.lto_priv.507
 *fill*         0x0000000020001e8a        0x6 
 .bss           0x0000000020001e90      0xc59 /tmp/ccjoD88l.ltrans2.ltrans.o
                0x0000000020001e94                gyroDev0.lto_priv.365
                0x0000000020001ed4                cycleTime
                0x0000000020001ed8                i2cErrorCount.lto_priv.378
                0x0000000020001eda                servo
                0x0000000020001eec                customMotorMixer_SystemArray
                0x0000000020001fac                mAhDrawn.lto_priv.494
                0x0000000020001fb0                amperage.lto_priv.495
                0x0000000020001fb8                mWhDrawn.lto_priv.368
                0x0000000020001fbd                armingConfig_System
                0x0000000020001fc0                gyroConfig_System
                0x0000000020001fd2                adjustmentRanges_SystemArray
                0x000000002000201a                gpsConfig_System
                0x0000000020002022                compassConfig_System
                0x0000000020002034                GPS_distanceToHome
                0x0000000020002036                GPS_directionToHome
                0x0000000020002038                NAV_Status
                0x0000000020002040                featureConfig_System
                0x0000000020002044                servoConfig_System
                0x000000002000204e                navConfig_System
                0x00000000200020a0                positionEstimationConfig_System
                0x00000000200020d8                timeConfig_System
                0x00000000200020e0                started.lto_priv.452
                0x00000000200020e8                lastMspRssiUpdateUs.lto_priv.351
                0x00000000200020f0                cliMode
                0x00000000200020f1                frskyTelemetryEnabled.lto_priv.488
                0x00000000200020fc                telemetryConfig_System
                0x0000000020002111                hottTelemetryEnabled.lto_priv.486
                0x0000000020002112                hottState.lto_priv.509
                0x0000000020002114                hottPort.lto_priv.487
                0x0000000020002120                hottStateChangeUs.lto_priv.510
                0x000000002000212a                hottGPSMessage.lto_priv.493
                0x000000002000215d                hottEAMMessage.lto_priv.492
                0x0000000020002194                smartPortSerialPort.lto_priv.485
                0x00000000200021b8                mavlinkTelemetryEnabled.lto_priv.479
                0x00000000200021bc                mavlinkPort.lto_priv.480
                0x0000000020002620                GPS_home
                0x000000002000262c                ibusTelemetryEnabled.lto_priv.475
                0x000000002000262d                crsfTelemetryEnabled.lto_priv.474
                0x0000000020002630                ibusSerialPort.lto_priv.477
                0x0000000020002634                outboundBytesToIgnoreOnRxCount.lto_priv.478
                0x0000000020002639                telemetryBufLen.lto_priv.515
                0x000000002000263a                telemetryBuf.lto_priv.514
                0x0000000020002664                crsfSchedule.lto_priv.489
                0x000000002000266a                crsfCrc.lto_priv.512
                0x000000002000266b                crsfFrame.lto_priv.513
                0x000000002000268f                crsfScheduleCount.lto_priv.490
                0x0000000020002698                pitotPressure.lto_priv.516
                0x00000000200026c8                baroCalibrationFinished.lto_priv.373
                0x00000000200026cc                baroCalibrationTimeout.lto_priv.458
                0x00000000200026d8                posEstimator.lto_priv.372
                0x00000000200027c0                gpsState
                0x0000000020002810                batteryWarningVoltage.lto_priv.456
                0x0000000020002820                cliWriter.lto_priv.380
                0x0000000020002824                cliPort.lto_priv.379
                0x0000000020002828                bufferIndex.lto_priv.382
                0x000000002000282c                cliBuffer.lto_priv.381
                0x000000002000286c                printfSerialPort.lto_priv.453
                0x00000000200028fc                systemState
                0x0000000020002928                featureConfig_Copy
                0x00000000200029c4                customMotorMixer_CopyArray
                0x0000000020002a8b                adjustmentRanges_CopyArray
 *fill*         0x0000000020002ae9        0x7 
 .bss           0x0000000020002af0     0x122c /tmp/ccjoD88l.ltrans3.ltrans.o
 *fill*         0x0000000020003d1c        0x4 
 .bss           0x0000000020003d20     0x17b6 /tmp/ccjoD88l.ltrans4.ltrans.o
                0x0000000020003d20                pInformation
                0x0000000020003d28                bDeviceState
                0x0000000020003d2c                Device_Info
                0x0000000020003d48                receiveLength
                0x0000000020003d4c                receiveBuffer
                0x0000000020003d8c                packetSent
                0x0000000020003d94                pUser_Standard_Requests
                0x0000000020003ea0                sysTickUptime.lto_priv.233
                0x0000000020003eb5                debugMode
                0x0000000020003eb6                debug
                0x0000000020003f04                mspFrame.lto_priv.270
                0x0000000020003f28                rxMspFrameDone.lto_priv.271
                0x0000000020003fa4                ppmFrameCount.lto_priv.448
                0x0000000020003fa6                captures.lto_priv.447
                0x0000000020004148                posControl
                0x00000000200048b8                ioRecs
                0x0000000020004a80                mavRecvMsg.lto_priv.280
                0x0000000020004b90                mavSendMsg.lto_priv.279
                0x0000000020004ca0                m_mavlink_status.12816.lto_priv.281
                0x0000000020004cd0                findSharedSerialPortState.lto_priv.346
                0x0000000020004cd2                serialConfig_System
                0x0000000020004d04                serialPortUsageList.lto_priv.234
                0x0000000020004d4c                enabledSensors.lto_priv.245
                0x0000000020004d50                activeFeaturesLatch.lto_priv.236
                0x0000000020004d54                gpsStats
                0x0000000020004d64                detectedSensors
                0x0000000020004d90                boardAlignment_System
                0x0000000020004d96                batteryState
                0x0000000020004d97                batteryFullWhenPluggedIn.lto_priv.274
                0x0000000020004d98                batteryConfig_System
                0x0000000020004db8                batteryRemainingCapacity.lto_priv.273
                0x0000000020004dbc                batteryCriticalVoltage.lto_priv.286
                0x0000000020004dbe                vbat.lto_priv.275
                0x0000000020004dc0                batteryFullVoltage.lto_priv.285
                0x0000000020004dc2                vbatLatestADC.lto_priv.284
                0x0000000020004dd0                accelerometerConfig_System
                0x0000000020004de2                systemConfig_System
                0x0000000020004dfe                barometerConfig_System
                0x0000000020004e00                baro
                0x0000000020004e28                ms56xx_c.lto_priv.525
                0x0000000020004e38                bmp280_cal.lto_priv.526
                0x0000000020004e54                pitotmeterConfig_System
                0x0000000020004e60                pitot
                0x0000000020004e78                adcFunctionMap.lto_priv.377
                0x0000000020004e88                calibratingA.lto_priv.246
                0x0000000020004e8c                stateFlags
                0x0000000020004e90                calibratedPosition.lto_priv.251
                0x0000000020004ebc                rssi.lto_priv.267
                0x0000000020004ebe                rssiSource.lto_priv.266
                0x0000000020004ed4                rxConfig_System
                0x0000000020004ef8                suspendRxSignalUntil.lto_priv.353
                0x0000000020004efc                skipRxSamples.lto_priv.352
                0x0000000020004f00                failsafeState.lto_priv.252
                0x0000000020004f38                rxRuntimeConfig
                0x0000000020004f68                rcSampleIndex.lto_priv.354
                0x0000000020004f6a                rcData
                0x0000000020004f90                rcInvalidPulsPeriod
                0x0000000020004fd8                modeActivationConditions_SystemArray
                0x0000000020005028                telemetrySharedPort
                0x0000000020005074                ibusSerialPort.lto_priv.476
                0x000000002000507c                serialPort.lto_priv.226
                0x00000000200050a4                telemetryState.lto_priv.282
                0x00000000200050a8                smartPortWriteFrame.lto_priv.491
                0x00000000200050ac                mspPorts.lto_priv.287
                0x0000000020005340                findSerialPortConfigState.lto_priv.235
                0x0000000020005344                runcamDevice.lto_priv.496
                0x000000002000538c                switchStates
                0x0000000020005398                armingFlags
                0x00000000200053a0                pProperty
                0x00000000200053ac                rxChannelRangeConfigs_CopyArray
                0x00000000200053bc                rxChannelRangeConfigs_SystemArray
                0x00000000200053cc                modeActivationConditions_CopyArray
                0x000000002000541c                rxConfig_Copy
                0x0000000020005466                systemConfig_Copy
                0x00000000200054a4                serialConfig_Copy
 *fill*         0x00000000200054d6        0x2 
 .bss           0x00000000200054d8      0x688 /tmp/ccjoD88l.ltrans5.ltrans.o
                0x00000000200054d8                warningLedState.lto_priv.370
                0x00000000200054dc                warningLedTimer.lto_priv.371
                0x000000002000553c                beeperConfig_System
                0x0000000020005544                beep_multiBeeps.lto_priv.419
                0x000000002000555a                servoRuleCount.lto_priv.355
                0x000000002000555b                minServoIndex.lto_priv.356
                0x000000002000555c                maxServoIndex.lto_priv.357
                0x000000002000555d                currentServoMixer.lto_priv.358
                0x000000002000559d                customServoMixers_SystemArray
                0x00000000200055e0                servoParams_SystemArray
                0x0000000020005640                servoMetadata.lto_priv.359
                0x0000000020005680                pidProfile_ProfileCurrent
                0x0000000020005684                currentControlRateProfile
                0x0000000020005688                motorConfig_System
                0x0000000020005692                rcCommand
                0x000000002000569c                dT
                0x00000000200056a0                flightModeFlags
                0x00000000200056a4                motors.lto_priv.277
                0x00000000200056d4                motor
                0x00000000200056ec                motorCount.lto_priv.276
                0x00000000200056ee                flight3DConfig_System
                0x00000000200056f4                motor_disarmed
                0x000000002000570c                mixerConfig_System
                0x0000000020005768                gpsSol
                0x000000002000579c                failsafeConfig_System
                0x00000000200057b0                specifiedConditionCountPerMode.lto_priv.348
                0x00000000200057d0                isUsingNAVModes.lto_priv.369
                0x00000000200057d4                rcModeActivationMask
                0x00000000200057d8                lookupThrottleRCMid
                0x00000000200057da                lookupThrottleRC.lto_priv.363
                0x00000000200057f2                rcControlsConfig_System
                0x00000000200057f8                activeBoxIds.lto_priv.272
                0x0000000020005818                activeBoxIdCount
                0x0000000020005834                mixerConfig_Copy
                0x0000000020005848                pidProfile_CopyStorage.lto_priv.320
                0x0000000020005980                pidProfile_Storage.lto_priv.319
                0x0000000020005ab8                servoParams_CopyArray
                0x0000000020005b18                customServoMixers_CopyArray
                0x0000000020005b58                beeperConfig_Copy
 *(SORT_BY_ALIGNMENT(.bss*))
 *(COMMON)
                0x0000000020005b60                . = ALIGN (0x4)
                0x0000000020005b60                _ebss = .
                0x0000000020005b60                __bss_end__ = _ebss

.fastram_bss    0x0000000010000000      0x574
                0x0000000010000000                __fastram_bss_start__ = .
 *(.fastram_bss)
 .fastram_bss   0x0000000010000000       0x62 /tmp/ccjoD88l.ltrans0.ltrans.o
                0x0000000010000000                checkFuncTotalExecutionTime
                0x0000000010000008                checkFuncMovingSumExecutionTime
                0x0000000010000010                checkFuncMaxExecutionTime
                0x0000000010000024                softLpfFilter.lto_priv.466
                0x0000000010000030                softLpfFilterApplyFn.lto_priv.463
                0x0000000010000034                notchFilter1.lto_priv.467
                0x0000000010000040                notchFilter1ApplyFn.lto_priv.464
                0x0000000010000044                notchFilter2.lto_priv.468
                0x0000000010000050                notchFilter2ApplyFn.lto_priv.465
 *fill*         0x0000000010000062        0x2 
 .fastram_bss   0x0000000010000064      0x100 /tmp/ccjoD88l.ltrans1.ltrans.o
 .fastram_bss   0x0000000010000164       0x14 /tmp/ccjoD88l.ltrans2.ltrans.o
                0x0000000010000168                gyro
 .fastram_bss   0x0000000010000178      0x148 /tmp/ccjoD88l.ltrans4.ltrans.o
                0x0000000010000178                totalWaitingTasksSamples.lto_priv.454
                0x000000001000017c                averageSystemLoadPercent
                0x0000000010000180                totalWaitingTasks.lto_priv.455
                0x0000000010000184                orientation
                0x0000000010000194                acc
                0x00000000100001bc                accFilter.lto_priv.247
                0x0000000010000210                accNotchFilterApplyFn.lto_priv.248
                0x0000000010000268                accNotchFilter.lto_priv.249
                0x0000000010000274                taskQueueSize.lto_priv.376
                0x0000000010000278                taskQueueArray.lto_priv.375
                0x00000000100002bc                currentTask.lto_priv.283
 .fastram_bss   0x00000000100002c0      0x2b4 /tmp/ccjoD88l.ltrans5.ltrans.o
                0x00000000100002c0                pidGainsUpdateRequired.lto_priv.268
                0x00000000100002c4                fixedWingTpaFilter.lto_priv.362
                0x00000000100002d0                attitude
                0x00000000100002d8                pidState.lto_priv.360
                0x0000000010000470                notchFilterApplyFn.lto_priv.361
                0x0000000010000474                gpsHeadingInitialized.lto_priv.462
                0x0000000010000478                gyroCalibration.lto_priv.350
                0x00000000100004e0                isAccelUpdatedAtLeastOnce.lto_priv.461
                0x0000000010000514                imuMeasuredAccelBF
                0x0000000010000520                accumulatedRateTimeUs.lto_priv.366
                0x0000000010000528                accumulatedRates.lto_priv.367
                0x0000000010000534                imuMeasuredRotationBF
                0x0000000010000540                headingHoldTarget
                0x0000000010000544                headingHoldRateFilter.lto_priv.347
                0x0000000010000550                imuRuntimeConfig.lto_priv.374
                0x0000000010000570                smallAngleCosZ.lto_priv.460
 *(SORT_BY_ALIGNMENT(.fastram_bss*))
                0x0000000010000574                . = ALIGN (0x4)
                0x0000000010000574                __fastram_bss_end__ = .
                0x0000000010001ff8                _heap_stack_end = ((ORIGIN (STACKRAM) + LENGTH (STACKRAM)) - 0x8)
                0x00000000100007f8                _heap_stack_begin = ((_heap_stack_end - _Min_Stack_Size) - _Min_Heap_Size)
                0x00000000100007f8                . = _heap_stack_begin

._user_heap_stack
                0x0000000010000574     0x1800
                0x0000000010000574                . = ALIGN (0x4)
                [!provide]                        PROVIDE (end, .)
                [!provide]                        PROVIDE (_end, .)
                0x0000000010000574                . = (. + _Min_Heap_Size)
                0x0000000010001d74                . = (. + _Min_Stack_Size)
 *fill*         0x0000000010000574     0x1800 a5
                0x0000000010001d74                . = ALIGN (0x4)

.memory_b1_text
 *(.mb1text)
 *(.mb1text*)
 *(.mb1rodata)
 *(.mb1rodata*)

/DISCARD/
 libc.a(*)
 libm.a(*)
 libgcc.a(*)

.ARM.attributes
                0x0000000000000000       0x35
 *(.ARM.attributes)
 .ARM.attributes
                0x0000000000000000       0x21 obj/main/OPENDRONEBRH/startup_stm32f30x_md_gcc.o
 .ARM.attributes
                0x0000000000000021       0x37 /tmp/ccjoD88l.ltrans0.ltrans.o
 .ARM.attributes
                0x0000000000000058       0x37 /tmp/ccjoD88l.ltrans1.ltrans.o
 .ARM.attributes
                0x000000000000008f       0x37 /tmp/ccjoD88l.ltrans2.ltrans.o
 .ARM.attributes
                0x00000000000000c6       0x37 /tmp/ccjoD88l.ltrans3.ltrans.o
 .ARM.attributes
                0x00000000000000fd       0x37 /tmp/ccjoD88l.ltrans4.ltrans.o
 .ARM.attributes
                0x0000000000000134       0x37 /tmp/ccjoD88l.ltrans5.ltrans.o
 .ARM.attributes
                0x000000000000016b       0x34 /home/ethan/developer/opendrone/tools/gcc-arm-none-eabi-7-2017-q4-major/bin/../lib/gcc/arm-none-eabi/7.2.1/../../../../arm-none-eabi/lib/thumb/v7e-m/fpv4-sp/hard/libc_nano.a(lib_a-strtok_r.o)
 .ARM.attributes
                0x000000000000019f       0x34 /home/ethan/developer/opendrone/tools/gcc-arm-none-eabi-7-2017-q4-major/bin/../lib/gcc/arm-none-eabi/7.2.1/../../../../arm-none-eabi/lib/thumb/v7e-m/fpv4-sp/hard/libc_nano.a(lib_a-errno.o)
 .ARM.attributes
                0x00000000000001d3       0x34 /home/ethan/developer/opendrone/tools/gcc-arm-none-eabi-7-2017-q4-major/bin/../lib/gcc/arm-none-eabi/7.2.1/../../../../arm-none-eabi/lib/thumb/v7e-m/fpv4-sp/hard/libc_nano.a(lib_a-impure.o)
 .ARM.attributes
                0x0000000000000207       0x34 /home/ethan/developer/opendrone/tools/gcc-arm-none-eabi-7-2017-q4-major/bin/../lib/gcc/arm-none-eabi/7.2.1/../../../../arm-none-eabi/lib/thumb/v7e-m/fpv4-sp/hard/libc_nano.a(lib_a-memcpy-stub.o)
 .ARM.attributes
                0x000000000000023b       0x34 /home/ethan/developer/opendrone/tools/gcc-arm-none-eabi-7-2017-q4-major/bin/../lib/gcc/arm-none-eabi/7.2.1/../../../../arm-none-eabi/lib/thumb/v7e-m/fpv4-sp/hard/libc_nano.a(lib_a-memmove.o)
 .ARM.attributes
                0x000000000000026f       0x34 /home/ethan/developer/opendrone/tools/gcc-arm-none-eabi-7-2017-q4-major/bin/../lib/gcc/arm-none-eabi/7.2.1/../../../../arm-none-eabi/lib/thumb/v7e-m/fpv4-sp/hard/libc_nano.a(lib_a-memset.o)
 .ARM.attributes
                0x00000000000002a3       0x34 /home/ethan/developer/opendrone/tools/gcc-arm-none-eabi-7-2017-q4-major/bin/../lib/gcc/arm-none-eabi/7.2.1/../../../../arm-none-eabi/lib/thumb/v7e-m/fpv4-sp/hard/libc_nano.a(lib_a-strcat.o)
 .ARM.attributes
                0x00000000000002d7       0x34 /home/ethan/developer/opendrone/tools/gcc-arm-none-eabi-7-2017-q4-major/bin/../lib/gcc/arm-none-eabi/7.2.1/../../../../arm-none-eabi/lib/thumb/v7e-m/fpv4-sp/hard/libc_nano.a(lib_a-strchr.o)
 .ARM.attributes
                0x000000000000030b       0x20 /home/ethan/developer/opendrone/tools/gcc-arm-none-eabi-7-2017-q4-major/bin/../lib/gcc/arm-none-eabi/7.2.1/../../../../arm-none-eabi/lib/thumb/v7e-m/fpv4-sp/hard/libc_nano.a(lib_a-strcmp.o)
 .ARM.attributes
                0x000000000000032b       0x34 /home/ethan/developer/opendrone/tools/gcc-arm-none-eabi-7-2017-q4-major/bin/../lib/gcc/arm-none-eabi/7.2.1/../../../../arm-none-eabi/lib/thumb/v7e-m/fpv4-sp/hard/libc_nano.a(lib_a-strcpy.o)
 .ARM.attributes
                0x000000000000035f       0x1b /home/ethan/developer/opendrone/tools/gcc-arm-none-eabi-7-2017-q4-major/bin/../lib/gcc/arm-none-eabi/7.2.1/../../../../arm-none-eabi/lib/thumb/v7e-m/fpv4-sp/hard/libc_nano.a(lib_a-strlen.o)
 .ARM.attributes
                0x000000000000037a       0x34 /home/ethan/developer/opendrone/tools/gcc-arm-none-eabi-7-2017-q4-major/bin/../lib/gcc/arm-none-eabi/7.2.1/../../../../arm-none-eabi/lib/thumb/v7e-m/fpv4-sp/hard/libc_nano.a(lib_a-strncmp.o)
 .ARM.attributes
                0x00000000000003ae       0x34 /home/ethan/developer/opendrone/tools/gcc-arm-none-eabi-7-2017-q4-major/bin/../lib/gcc/arm-none-eabi/7.2.1/../../../../arm-none-eabi/lib/thumb/v7e-m/fpv4-sp/hard/libc_nano.a(lib_a-strncpy.o)
 .ARM.attributes
                0x00000000000003e2       0x34 /home/ethan/developer/opendrone/tools/gcc-arm-none-eabi-7-2017-q4-major/bin/../lib/gcc/arm-none-eabi/7.2.1/../../../../arm-none-eabi/lib/thumb/v7e-m/fpv4-sp/hard/libc_nano.a(lib_a-strspn.o)
 .ARM.attributes
                0x0000000000000416       0x34 /home/ethan/developer/opendrone/tools/gcc-arm-none-eabi-7-2017-q4-major/bin/../lib/gcc/arm-none-eabi/7.2.1/../../../../arm-none-eabi/lib/thumb/v7e-m/fpv4-sp/hard/libc_nano.a(lib_a-strstr.o)
 .ARM.attributes
                0x000000000000044a       0x34 /home/ethan/developer/opendrone/tools/gcc-arm-none-eabi-7-2017-q4-major/bin/../lib/gcc/arm-none-eabi/7.2.1/../../../../arm-none-eabi/lib/thumb/v7e-m/fpv4-sp/hard/libm.a(lib_a-sf_log2.o)
 .ARM.attributes
                0x000000000000047e       0x34 /home/ethan/developer/opendrone/tools/gcc-arm-none-eabi-7-2017-q4-major/bin/../lib/gcc/arm-none-eabi/7.2.1/../../../../arm-none-eabi/lib/thumb/v7e-m/fpv4-sp/hard/libm.a(lib_a-sf_log2_data.o)
 .ARM.attributes
                0x00000000000004b2       0x34 /home/ethan/developer/opendrone/tools/gcc-arm-none-eabi-7-2017-q4-major/bin/../lib/gcc/arm-none-eabi/7.2.1/../../../../arm-none-eabi/lib/thumb/v7e-m/fpv4-sp/hard/libm.a(lib_a-sf_lrint.o)
 .ARM.attributes
                0x00000000000004e6       0x34 /home/ethan/developer/opendrone/tools/gcc-arm-none-eabi-7-2017-q4-major/bin/../lib/gcc/arm-none-eabi/7.2.1/../../../../arm-none-eabi/lib/thumb/v7e-m/fpv4-sp/hard/libm.a(lib_a-sf_pow.o)
 .ARM.attributes
                0x000000000000051a       0x34 /home/ethan/developer/opendrone/tools/gcc-arm-none-eabi-7-2017-q4-major/bin/../lib/gcc/arm-none-eabi/7.2.1/../../../../arm-none-eabi/lib/thumb/v7e-m/fpv4-sp/hard/libm.a(lib_a-sf_pow_log2_data.o)
 .ARM.attributes
                0x000000000000054e       0x34 /home/ethan/developer/opendrone/tools/gcc-arm-none-eabi-7-2017-q4-major/bin/../lib/gcc/arm-none-eabi/7.2.1/../../../../arm-none-eabi/lib/thumb/v7e-m/fpv4-sp/hard/libm.a(lib_a-wf_sqrt.o)
 .ARM.attributes
                0x0000000000000582       0x34 /home/ethan/developer/opendrone/tools/gcc-arm-none-eabi-7-2017-q4-major/bin/../lib/gcc/arm-none-eabi/7.2.1/../../../../arm-none-eabi/lib/thumb/v7e-m/fpv4-sp/hard/libm.a(lib_a-ef_sqrt.o)
 .ARM.attributes
                0x00000000000005b6       0x34 /home/ethan/developer/opendrone/tools/gcc-arm-none-eabi-7-2017-q4-major/bin/../lib/gcc/arm-none-eabi/7.2.1/../../../../arm-none-eabi/lib/thumb/v7e-m/fpv4-sp/hard/libm.a(lib_a-math_errf.o)
 .ARM.attributes
                0x00000000000005ea       0x34 /home/ethan/developer/opendrone/tools/gcc-arm-none-eabi-7-2017-q4-major/bin/../lib/gcc/arm-none-eabi/7.2.1/../../../../arm-none-eabi/lib/thumb/v7e-m/fpv4-sp/hard/libm.a(lib_a-s_lib_ver.o)
 .ARM.attributes
                0x000000000000061e       0x34 /home/ethan/developer/opendrone/tools/gcc-arm-none-eabi-7-2017-q4-major/bin/../lib/gcc/arm-none-eabi/7.2.1/../../../../arm-none-eabi/lib/thumb/v7e-m/fpv4-sp/hard/libm.a(lib_a-s_matherr.o)
 .ARM.attributes
                0x0000000000000652       0x34 /home/ethan/developer/opendrone/tools/gcc-arm-none-eabi-7-2017-q4-major/bin/../lib/gcc/arm-none-eabi/7.2.1/../../../../arm-none-eabi/lib/thumb/v7e-m/fpv4-sp/hard/libm.a(lib_a-sf_exp2_data.o)
 .ARM.attributes
                0x0000000000000686       0x22 /home/ethan/developer/opendrone/tools/gcc-arm-none-eabi-7-2017-q4-major/bin/../lib/gcc/arm-none-eabi/7.2.1/thumb/v7e-m/fpv4-sp/hard/libgcc.a(_arm_addsubdf3.o)
 .ARM.attributes
                0x00000000000006a8       0x22 /home/ethan/developer/opendrone/tools/gcc-arm-none-eabi-7-2017-q4-major/bin/../lib/gcc/arm-none-eabi/7.2.1/thumb/v7e-m/fpv4-sp/hard/libgcc.a(_arm_muldivdf3.o)
 .ARM.attributes
                0x00000000000006ca       0x22 /home/ethan/developer/opendrone/tools/gcc-arm-none-eabi-7-2017-q4-major/bin/../lib/gcc/arm-none-eabi/7.2.1/thumb/v7e-m/fpv4-sp/hard/libgcc.a(_arm_cmpdf2.o)
 .ARM.attributes
                0x00000000000006ec       0x22 /home/ethan/developer/opendrone/tools/gcc-arm-none-eabi-7-2017-q4-major/bin/../lib/gcc/arm-none-eabi/7.2.1/thumb/v7e-m/fpv4-sp/hard/libgcc.a(_arm_fixunsdfsi.o)
 .ARM.attributes
                0x000000000000070e       0x22 /home/ethan/developer/opendrone/tools/gcc-arm-none-eabi-7-2017-q4-major/bin/../lib/gcc/arm-none-eabi/7.2.1/thumb/v7e-m/fpv4-sp/hard/libgcc.a(_arm_truncdfsf2.o)
 .ARM.attributes
                0x0000000000000730       0x22 /home/ethan/developer/opendrone/tools/gcc-arm-none-eabi-7-2017-q4-major/bin/../lib/gcc/arm-none-eabi/7.2.1/thumb/v7e-m/fpv4-sp/hard/libgcc.a(_arm_addsubsf3.o)
 .ARM.attributes
                0x0000000000000752       0x22 /home/ethan/developer/opendrone/tools/gcc-arm-none-eabi-7-2017-q4-major/bin/../lib/gcc/arm-none-eabi/7.2.1/thumb/v7e-m/fpv4-sp/hard/libgcc.a(_aeabi_ldivmod.o)
 .ARM.attributes
                0x0000000000000774       0x22 /home/ethan/developer/opendrone/tools/gcc-arm-none-eabi-7-2017-q4-major/bin/../lib/gcc/arm-none-eabi/7.2.1/thumb/v7e-m/fpv4-sp/hard/libgcc.a(_aeabi_uldivmod.o)
 .ARM.attributes
                0x0000000000000796       0x34 /home/ethan/developer/opendrone/tools/gcc-arm-none-eabi-7-2017-q4-major/bin/../lib/gcc/arm-none-eabi/7.2.1/thumb/v7e-m/fpv4-sp/hard/libgcc.a(_popcountsi2.o)
 .ARM.attributes
                0x00000000000007ca       0x34 /home/ethan/developer/opendrone/tools/gcc-arm-none-eabi-7-2017-q4-major/bin/../lib/gcc/arm-none-eabi/7.2.1/thumb/v7e-m/fpv4-sp/hard/libgcc.a(_udivmoddi4.o)
 .ARM.attributes
                0x00000000000007fe       0x22 /home/ethan/developer/opendrone/tools/gcc-arm-none-eabi-7-2017-q4-major/bin/../lib/gcc/arm-none-eabi/7.2.1/thumb/v7e-m/fpv4-sp/hard/libgcc.a(_dvmd_tls.o)
OUTPUT(obj/main/OpenDrone_OPENDRONEBRH.elf elf32-littlearm)

.debug_info     0x0000000000000000    0x59efa
 .debug_info    0x0000000000000000    0x13728 /tmp/ccjoD88l.ltrans0.ltrans.o
 .debug_info    0x0000000000013728    0x13874 /tmp/ccjoD88l.ltrans1.ltrans.o
 .debug_info    0x0000000000026f9c     0xffa1 /tmp/ccjoD88l.ltrans2.ltrans.o
 .debug_info    0x0000000000036f3d     0xe204 /tmp/ccjoD88l.ltrans3.ltrans.o
 .debug_info    0x0000000000045141     0xdd27 /tmp/ccjoD88l.ltrans4.ltrans.o
 .debug_info    0x0000000000052e68     0x7092 /tmp/ccjoD88l.ltrans5.ltrans.o

.debug_abbrev   0x0000000000000000     0x35a8
 .debug_abbrev  0x0000000000000000      0x8bd /tmp/ccjoD88l.ltrans0.ltrans.o
 .debug_abbrev  0x00000000000008bd      0xa36 /tmp/ccjoD88l.ltrans1.ltrans.o
 .debug_abbrev  0x00000000000012f3      0x705 /tmp/ccjoD88l.ltrans2.ltrans.o
 .debug_abbrev  0x00000000000019f8      0x9a7 /tmp/ccjoD88l.ltrans3.ltrans.o
 .debug_abbrev  0x000000000000239f      0xa04 /tmp/ccjoD88l.ltrans4.ltrans.o
 .debug_abbrev  0x0000000000002da3      0x805 /tmp/ccjoD88l.ltrans5.ltrans.o

.debug_loc      0x0000000000000000    0x2a91e
 .debug_loc     0x0000000000000000     0x8e0b /tmp/ccjoD88l.ltrans0.ltrans.o
 .debug_loc     0x0000000000008e0b     0xa678 /tmp/ccjoD88l.ltrans1.ltrans.o
 .debug_loc     0x0000000000013483     0x85b7 /tmp/ccjoD88l.ltrans2.ltrans.o
 .debug_loc     0x000000000001ba3a     0x6088 /tmp/ccjoD88l.ltrans3.ltrans.o
 .debug_loc     0x0000000000021ac2     0x69d7 /tmp/ccjoD88l.ltrans4.ltrans.o
 .debug_loc     0x0000000000028499     0x2485 /tmp/ccjoD88l.ltrans5.ltrans.o

.debug_aranges  0x0000000000000000       0xd0
 .debug_aranges
                0x0000000000000000       0x20 /tmp/ccjoD88l.ltrans0.ltrans.o
 .debug_aranges
                0x0000000000000020       0x28 /tmp/ccjoD88l.ltrans1.ltrans.o
 .debug_aranges
                0x0000000000000048       0x20 /tmp/ccjoD88l.ltrans2.ltrans.o
 .debug_aranges
                0x0000000000000068       0x20 /tmp/ccjoD88l.ltrans3.ltrans.o
 .debug_aranges
                0x0000000000000088       0x28 /tmp/ccjoD88l.ltrans4.ltrans.o
 .debug_aranges
                0x00000000000000b0       0x20 /tmp/ccjoD88l.ltrans5.ltrans.o

.debug_ranges   0x0000000000000000     0xb698
 .debug_ranges  0x0000000000000000     0x3020 /tmp/ccjoD88l.ltrans0.ltrans.o
 .debug_ranges  0x0000000000003020     0x2548 /tmp/ccjoD88l.ltrans1.ltrans.o
 .debug_ranges  0x0000000000005568     0x2b40 /tmp/ccjoD88l.ltrans2.ltrans.o
 .debug_ranges  0x00000000000080a8     0x1420 /tmp/ccjoD88l.ltrans3.ltrans.o
 .debug_ranges  0x00000000000094c8     0x1620 /tmp/ccjoD88l.ltrans4.ltrans.o
 .debug_ranges  0x000000000000aae8      0xbb0 /tmp/ccjoD88l.ltrans5.ltrans.o

.debug_line     0x0000000000000000     0xf4c1
 .debug_line    0x0000000000000000     0x3398 /tmp/ccjoD88l.ltrans0.ltrans.o
 .debug_line    0x0000000000003398     0x30a0 /tmp/ccjoD88l.ltrans1.ltrans.o
 .debug_line    0x0000000000006438     0x33d8 /tmp/ccjoD88l.ltrans2.ltrans.o
 .debug_line    0x0000000000009810     0x2580 /tmp/ccjoD88l.ltrans3.ltrans.o
 .debug_line    0x000000000000bd90     0x257a /tmp/ccjoD88l.ltrans4.ltrans.o
 .debug_line    0x000000000000e30a     0x11b7 /tmp/ccjoD88l.ltrans5.ltrans.o

.debug_str      0x0000000000000000    0x1bd95
 .debug_str     0x0000000000000000     0x9fdd /tmp/ccjoD88l.ltrans0.ltrans.o
                                       0xa5f2 (size before relaxing)
 .debug_str     0x0000000000009fdd     0x54be /tmp/ccjoD88l.ltrans1.ltrans.o
                                       0x97aa (size before relaxing)
 .debug_str     0x000000000000f49b     0x2e01 /tmp/ccjoD88l.ltrans2.ltrans.o
                                       0x7d78 (size before relaxing)
 .debug_str     0x000000000001229c     0x40a7 /tmp/ccjoD88l.ltrans3.ltrans.o
                                       0x9929 (size before relaxing)
 .debug_str     0x0000000000016343     0x3b0d /tmp/ccjoD88l.ltrans4.ltrans.o
                                       0x87f8 (size before relaxing)
 .debug_str     0x0000000000019e50     0x1f45 /tmp/ccjoD88l.ltrans5.ltrans.o
                                       0x5055 (size before relaxing)

.comment        0x0000000000000000       0x7e
 .comment       0x0000000000000000       0x7e /tmp/ccjoD88l.ltrans0.ltrans.o
                                         0x7f (size before relaxing)
 .comment       0x000000000000007e       0x7f /tmp/ccjoD88l.ltrans1.ltrans.o
 .comment       0x000000000000007e       0x7f /tmp/ccjoD88l.ltrans2.ltrans.o
 .comment       0x000000000000007e       0x7f /tmp/ccjoD88l.ltrans3.ltrans.o
 .comment       0x000000000000007e       0x7f /tmp/ccjoD88l.ltrans4.ltrans.o
 .comment       0x000000000000007e       0x7f /tmp/ccjoD88l.ltrans5.ltrans.o

.debug_frame    0x0000000000000000     0x4b08
 .debug_frame   0x0000000000000000      0xe80 /tmp/ccjoD88l.ltrans0.ltrans.o
 .debug_frame   0x0000000000000e80      0xd30 /tmp/ccjoD88l.ltrans1.ltrans.o
 .debug_frame   0x0000000000001bb0      0x228 /tmp/ccjoD88l.ltrans2.ltrans.o
 .debug_frame   0x0000000000001dd8     0x1044 /tmp/ccjoD88l.ltrans3.ltrans.o
 .debug_frame   0x0000000000002e1c      0xe40 /tmp/ccjoD88l.ltrans4.ltrans.o
 .debug_frame   0x0000000000003c5c      0x71c /tmp/ccjoD88l.ltrans5.ltrans.o
 .debug_frame   0x0000000000004378       0x40 /home/ethan/developer/opendrone/tools/gcc-arm-none-eabi-7-2017-q4-major/bin/../lib/gcc/arm-none-eabi/7.2.1/../../../../arm-none-eabi/lib/thumb/v7e-m/fpv4-sp/hard/libc_nano.a(lib_a-strtok_r.o)
 .debug_frame   0x00000000000043b8       0x20 /home/ethan/developer/opendrone/tools/gcc-arm-none-eabi-7-2017-q4-major/bin/../lib/gcc/arm-none-eabi/7.2.1/../../../../arm-none-eabi/lib/thumb/v7e-m/fpv4-sp/hard/libc_nano.a(lib_a-errno.o)
 .debug_frame   0x00000000000043d8       0x28 /home/ethan/developer/opendrone/tools/gcc-arm-none-eabi-7-2017-q4-major/bin/../lib/gcc/arm-none-eabi/7.2.1/../../../../arm-none-eabi/lib/thumb/v7e-m/fpv4-sp/hard/libc_nano.a(lib_a-memcpy-stub.o)
 .debug_frame   0x0000000000004400       0x28 /home/ethan/developer/opendrone/tools/gcc-arm-none-eabi-7-2017-q4-major/bin/../lib/gcc/arm-none-eabi/7.2.1/../../../../arm-none-eabi/lib/thumb/v7e-m/fpv4-sp/hard/libc_nano.a(lib_a-memmove.o)
 .debug_frame   0x0000000000004428       0x20 /home/ethan/developer/opendrone/tools/gcc-arm-none-eabi-7-2017-q4-major/bin/../lib/gcc/arm-none-eabi/7.2.1/../../../../arm-none-eabi/lib/thumb/v7e-m/fpv4-sp/hard/libc_nano.a(lib_a-memset.o)
 .debug_frame   0x0000000000004448       0x28 /home/ethan/developer/opendrone/tools/gcc-arm-none-eabi-7-2017-q4-major/bin/../lib/gcc/arm-none-eabi/7.2.1/../../../../arm-none-eabi/lib/thumb/v7e-m/fpv4-sp/hard/libc_nano.a(lib_a-strcat.o)
 .debug_frame   0x0000000000004470       0x20 /home/ethan/developer/opendrone/tools/gcc-arm-none-eabi-7-2017-q4-major/bin/../lib/gcc/arm-none-eabi/7.2.1/../../../../arm-none-eabi/lib/thumb/v7e-m/fpv4-sp/hard/libc_nano.a(lib_a-strchr.o)
 .debug_frame   0x0000000000004490       0x20 /home/ethan/developer/opendrone/tools/gcc-arm-none-eabi-7-2017-q4-major/bin/../lib/gcc/arm-none-eabi/7.2.1/../../../../arm-none-eabi/lib/thumb/v7e-m/fpv4-sp/hard/libc_nano.a(lib_a-strcmp.o)
 .debug_frame   0x00000000000044b0       0x20 /home/ethan/developer/opendrone/tools/gcc-arm-none-eabi-7-2017-q4-major/bin/../lib/gcc/arm-none-eabi/7.2.1/../../../../arm-none-eabi/lib/thumb/v7e-m/fpv4-sp/hard/libc_nano.a(lib_a-strcpy.o)
 .debug_frame   0x00000000000044d0       0x28 /home/ethan/developer/opendrone/tools/gcc-arm-none-eabi-7-2017-q4-major/bin/../lib/gcc/arm-none-eabi/7.2.1/../../../../arm-none-eabi/lib/thumb/v7e-m/fpv4-sp/hard/libc_nano.a(lib_a-strncmp.o)
 .debug_frame   0x00000000000044f8       0x2c /home/ethan/developer/opendrone/tools/gcc-arm-none-eabi-7-2017-q4-major/bin/../lib/gcc/arm-none-eabi/7.2.1/../../../../arm-none-eabi/lib/thumb/v7e-m/fpv4-sp/hard/libc_nano.a(lib_a-strncpy.o)
 .debug_frame   0x0000000000004524       0x2c /home/ethan/developer/opendrone/tools/gcc-arm-none-eabi-7-2017-q4-major/bin/../lib/gcc/arm-none-eabi/7.2.1/../../../../arm-none-eabi/lib/thumb/v7e-m/fpv4-sp/hard/libc_nano.a(lib_a-strspn.o)
 .debug_frame   0x0000000000004550       0x30 /home/ethan/developer/opendrone/tools/gcc-arm-none-eabi-7-2017-q4-major/bin/../lib/gcc/arm-none-eabi/7.2.1/../../../../arm-none-eabi/lib/thumb/v7e-m/fpv4-sp/hard/libc_nano.a(lib_a-strstr.o)
 .debug_frame   0x0000000000004580       0x64 /home/ethan/developer/opendrone/tools/gcc-arm-none-eabi-7-2017-q4-major/bin/../lib/gcc/arm-none-eabi/7.2.1/../../../../arm-none-eabi/lib/thumb/v7e-m/fpv4-sp/hard/libm.a(lib_a-sf_log2.o)
 .debug_frame   0x00000000000045e4       0x48 /home/ethan/developer/opendrone/tools/gcc-arm-none-eabi-7-2017-q4-major/bin/../lib/gcc/arm-none-eabi/7.2.1/../../../../arm-none-eabi/lib/thumb/v7e-m/fpv4-sp/hard/libm.a(lib_a-sf_lrint.o)
 .debug_frame   0x000000000000462c       0x9c /home/ethan/developer/opendrone/tools/gcc-arm-none-eabi-7-2017-q4-major/bin/../lib/gcc/arm-none-eabi/7.2.1/../../../../arm-none-eabi/lib/thumb/v7e-m/fpv4-sp/hard/libm.a(lib_a-sf_pow.o)
 .debug_frame   0x00000000000046c8       0x50 /home/ethan/developer/opendrone/tools/gcc-arm-none-eabi-7-2017-q4-major/bin/../lib/gcc/arm-none-eabi/7.2.1/../../../../arm-none-eabi/lib/thumb/v7e-m/fpv4-sp/hard/libm.a(lib_a-wf_sqrt.o)
 .debug_frame   0x0000000000004718       0x20 /home/ethan/developer/opendrone/tools/gcc-arm-none-eabi-7-2017-q4-major/bin/../lib/gcc/arm-none-eabi/7.2.1/../../../../arm-none-eabi/lib/thumb/v7e-m/fpv4-sp/hard/libm.a(lib_a-ef_sqrt.o)
 .debug_frame   0x0000000000004738       0x98 /home/ethan/developer/opendrone/tools/gcc-arm-none-eabi-7-2017-q4-major/bin/../lib/gcc/arm-none-eabi/7.2.1/../../../../arm-none-eabi/lib/thumb/v7e-m/fpv4-sp/hard/libm.a(lib_a-math_errf.o)
 .debug_frame   0x00000000000047d0       0x20 /home/ethan/developer/opendrone/tools/gcc-arm-none-eabi-7-2017-q4-major/bin/../lib/gcc/arm-none-eabi/7.2.1/../../../../arm-none-eabi/lib/thumb/v7e-m/fpv4-sp/hard/libm.a(lib_a-s_matherr.o)
 .debug_frame   0x00000000000047f0       0xac /home/ethan/developer/opendrone/tools/gcc-arm-none-eabi-7-2017-q4-major/bin/../lib/gcc/arm-none-eabi/7.2.1/thumb/v7e-m/fpv4-sp/hard/libgcc.a(_arm_addsubdf3.o)
 .debug_frame   0x000000000000489c       0x50 /home/ethan/developer/opendrone/tools/gcc-arm-none-eabi-7-2017-q4-major/bin/../lib/gcc/arm-none-eabi/7.2.1/thumb/v7e-m/fpv4-sp/hard/libgcc.a(_arm_muldivdf3.o)
 .debug_frame   0x00000000000048ec       0xc4 /home/ethan/developer/opendrone/tools/gcc-arm-none-eabi-7-2017-q4-major/bin/../lib/gcc/arm-none-eabi/7.2.1/thumb/v7e-m/fpv4-sp/hard/libgcc.a(_arm_cmpdf2.o)
 .debug_frame   0x00000000000049b0       0x24 /home/ethan/developer/opendrone/tools/gcc-arm-none-eabi-7-2017-q4-major/bin/../lib/gcc/arm-none-eabi/7.2.1/thumb/v7e-m/fpv4-sp/hard/libgcc.a(_arm_fixunsdfsi.o)
 .debug_frame   0x00000000000049d4       0x24 /home/ethan/developer/opendrone/tools/gcc-arm-none-eabi-7-2017-q4-major/bin/../lib/gcc/arm-none-eabi/7.2.1/thumb/v7e-m/fpv4-sp/hard/libgcc.a(_arm_truncdfsf2.o)
 .debug_frame   0x00000000000049f8       0x4c /home/ethan/developer/opendrone/tools/gcc-arm-none-eabi-7-2017-q4-major/bin/../lib/gcc/arm-none-eabi/7.2.1/thumb/v7e-m/fpv4-sp/hard/libgcc.a(_arm_addsubsf3.o)
 .debug_frame   0x0000000000004a44       0x44 /home/ethan/developer/opendrone/tools/gcc-arm-none-eabi-7-2017-q4-major/bin/../lib/gcc/arm-none-eabi/7.2.1/thumb/v7e-m/fpv4-sp/hard/libgcc.a(_aeabi_ldivmod.o)
 .debug_frame   0x0000000000004a88       0x2c /home/ethan/developer/opendrone/tools/gcc-arm-none-eabi-7-2017-q4-major/bin/../lib/gcc/arm-none-eabi/7.2.1/thumb/v7e-m/fpv4-sp/hard/libgcc.a(_aeabi_uldivmod.o)
 .debug_frame   0x0000000000004ab4       0x20 /home/ethan/developer/opendrone/tools/gcc-arm-none-eabi-7-2017-q4-major/bin/../lib/gcc/arm-none-eabi/7.2.1/thumb/v7e-m/fpv4-sp/hard/libgcc.a(_popcountsi2.o)
 .debug_frame   0x0000000000004ad4       0x34 /home/ethan/developer/opendrone/tools/gcc-arm-none-eabi-7-2017-q4-major/bin/../lib/gcc/arm-none-eabi/7.2.1/thumb/v7e-m/fpv4-sp/hard/libgcc.a(_udivmoddi4.o)

Cross Reference Table

Symbol                                            File
ADC1_2_IRQHandler                                 obj/main/OPENDRONEBRH/startup_stm32f30x_md_gcc.o
ADC3_IRQHandler                                   obj/main/OPENDRONEBRH/startup_stm32f30x_md_gcc.o
ADC4_IRQHandler                                   obj/main/OPENDRONEBRH/startup_stm32f30x_md_gcc.o
ADC_AnalogWatchdog1SingleChannelConfig            obj/main/OPENDRONEBRH/stm32f30x_adc.o (symbol from plugin)
ADC_AnalogWatchdog1ThresholdsConfig               obj/main/OPENDRONEBRH/stm32f30x_adc.o (symbol from plugin)
ADC_AnalogWatchdog2SingleChannelConfig            obj/main/OPENDRONEBRH/stm32f30x_adc.o (symbol from plugin)
ADC_AnalogWatchdog2ThresholdsConfig               obj/main/OPENDRONEBRH/stm32f30x_adc.o (symbol from plugin)
ADC_AnalogWatchdog3SingleChannelConfig            obj/main/OPENDRONEBRH/stm32f30x_adc.o (symbol from plugin)
ADC_AnalogWatchdog3ThresholdsConfig               obj/main/OPENDRONEBRH/stm32f30x_adc.o (symbol from plugin)
ADC_AnalogWatchdogCmd                             obj/main/OPENDRONEBRH/stm32f30x_adc.o (symbol from plugin)
ADC_AutoDelayCmd                                  obj/main/OPENDRONEBRH/stm32f30x_adc.o (symbol from plugin)
ADC_AutoInjectedConvCmd                           obj/main/OPENDRONEBRH/stm32f30x_adc.o (symbol from plugin)
ADC_ChannelOffset1Cmd                             obj/main/OPENDRONEBRH/stm32f30x_adc.o (symbol from plugin)
ADC_ChannelOffset2Cmd                             obj/main/OPENDRONEBRH/stm32f30x_adc.o (symbol from plugin)
ADC_ChannelOffset3Cmd                             obj/main/OPENDRONEBRH/stm32f30x_adc.o (symbol from plugin)
ADC_ChannelOffset4Cmd                             obj/main/OPENDRONEBRH/stm32f30x_adc.o (symbol from plugin)
ADC_ClearCommonFlag                               obj/main/OPENDRONEBRH/stm32f30x_adc.o (symbol from plugin)
ADC_ClearFlag                                     obj/main/OPENDRONEBRH/stm32f30x_adc.o (symbol from plugin)
ADC_ClearITPendingBit                             obj/main/OPENDRONEBRH/stm32f30x_adc.o (symbol from plugin)
ADC_Cmd                                           obj/main/OPENDRONEBRH/stm32f30x_adc.o (symbol from plugin)
                                                  obj/main/OPENDRONEBRH/drivers/adc_stm32f30x.o (symbol from plugin)
ADC_CommonInit                                    obj/main/OPENDRONEBRH/stm32f30x_adc.o (symbol from plugin)
                                                  obj/main/OPENDRONEBRH/drivers/adc_stm32f30x.o (symbol from plugin)
ADC_CommonStructInit                              obj/main/OPENDRONEBRH/stm32f30x_adc.o (symbol from plugin)
                                                  obj/main/OPENDRONEBRH/drivers/adc_stm32f30x.o (symbol from plugin)
ADC_DMACmd                                        obj/main/OPENDRONEBRH/stm32f30x_adc.o (symbol from plugin)
                                                  obj/main/OPENDRONEBRH/drivers/adc_stm32f30x.o (symbol from plugin)
ADC_DMAConfig                                     obj/main/OPENDRONEBRH/stm32f30x_adc.o (symbol from plugin)
                                                  obj/main/OPENDRONEBRH/drivers/adc_stm32f30x.o (symbol from plugin)
ADC_DeInit                                        obj/main/OPENDRONEBRH/stm32f30x_adc.o (symbol from plugin)
ADC_DisableCmd                                    obj/main/OPENDRONEBRH/stm32f30x_adc.o (symbol from plugin)
ADC_DiscModeChannelCountConfig                    obj/main/OPENDRONEBRH/stm32f30x_adc.o (symbol from plugin)
ADC_DiscModeCmd                                   obj/main/OPENDRONEBRH/stm32f30x_adc.o (symbol from plugin)
ADC_ExternalTriggerConfig                         obj/main/OPENDRONEBRH/stm32f30x_adc.o (symbol from plugin)
ADC_GetCalibrationStatus                          obj/main/OPENDRONEBRH/stm32f30x_adc.o (symbol from plugin)
                                                  obj/main/OPENDRONEBRH/drivers/adc_stm32f30x.o (symbol from plugin)
ADC_GetCalibrationValue                           obj/main/OPENDRONEBRH/stm32f30x_adc.o (symbol from plugin)
ADC_GetCommonFlagStatus                           obj/main/OPENDRONEBRH/stm32f30x_adc.o (symbol from plugin)
ADC_GetConversionValue                            obj/main/OPENDRONEBRH/stm32f30x_adc.o (symbol from plugin)
ADC_GetDisableCmdStatus                           obj/main/OPENDRONEBRH/stm32f30x_adc.o (symbol from plugin)
ADC_GetDualModeConversionValue                    obj/main/OPENDRONEBRH/stm32f30x_adc.o (symbol from plugin)
ADC_GetFlagStatus                                 obj/main/OPENDRONEBRH/stm32f30x_adc.o (symbol from plugin)
                                                  obj/main/OPENDRONEBRH/drivers/adc_stm32f30x.o (symbol from plugin)
ADC_GetITStatus                                   obj/main/OPENDRONEBRH/stm32f30x_adc.o (symbol from plugin)
ADC_GetInjectedConversionValue                    obj/main/OPENDRONEBRH/stm32f30x_adc.o (symbol from plugin)
ADC_GetStartConversionStatus                      obj/main/OPENDRONEBRH/stm32f30x_adc.o (symbol from plugin)
ADC_GetStartInjectedConversionStatus              obj/main/OPENDRONEBRH/stm32f30x_adc.o (symbol from plugin)
ADC_ITConfig                                      obj/main/OPENDRONEBRH/stm32f30x_adc.o (symbol from plugin)
ADC_Init                                          obj/main/OPENDRONEBRH/stm32f30x_adc.o (symbol from plugin)
                                                  obj/main/OPENDRONEBRH/drivers/adc_stm32f30x.o (symbol from plugin)
ADC_InjectedChannelSampleTimeConfig               obj/main/OPENDRONEBRH/stm32f30x_adc.o (symbol from plugin)
ADC_InjectedDiscModeCmd                           obj/main/OPENDRONEBRH/stm32f30x_adc.o (symbol from plugin)
ADC_InjectedInit                                  obj/main/OPENDRONEBRH/stm32f30x_adc.o (symbol from plugin)
ADC_InjectedStructInit                            obj/main/OPENDRONEBRH/stm32f30x_adc.o (symbol from plugin)
ADC_RegularChannelConfig                          obj/main/OPENDRONEBRH/stm32f30x_adc.o (symbol from plugin)
                                                  obj/main/OPENDRONEBRH/drivers/adc_stm32f30x.o (symbol from plugin)
ADC_RegularChannelSequencerLengthConfig           obj/main/OPENDRONEBRH/stm32f30x_adc.o (symbol from plugin)
ADC_SelectCalibrationMode                         obj/main/OPENDRONEBRH/stm32f30x_adc.o (symbol from plugin)
                                                  obj/main/OPENDRONEBRH/drivers/adc_stm32f30x.o (symbol from plugin)
ADC_SelectDifferentialMode                        obj/main/OPENDRONEBRH/stm32f30x_adc.o (symbol from plugin)
ADC_SelectQueueOfContextMode                      obj/main/OPENDRONEBRH/stm32f30x_adc.o (symbol from plugin)
ADC_SetCalibrationValue                           obj/main/OPENDRONEBRH/stm32f30x_adc.o (symbol from plugin)
ADC_SetChannelOffset1                             obj/main/OPENDRONEBRH/stm32f30x_adc.o (symbol from plugin)
ADC_SetChannelOffset2                             obj/main/OPENDRONEBRH/stm32f30x_adc.o (symbol from plugin)
ADC_SetChannelOffset3                             obj/main/OPENDRONEBRH/stm32f30x_adc.o (symbol from plugin)
ADC_SetChannelOffset4                             obj/main/OPENDRONEBRH/stm32f30x_adc.o (symbol from plugin)
ADC_StartCalibration                              obj/main/OPENDRONEBRH/stm32f30x_adc.o (symbol from plugin)
                                                  obj/main/OPENDRONEBRH/drivers/adc_stm32f30x.o (symbol from plugin)
ADC_StartConversion                               obj/main/OPENDRONEBRH/stm32f30x_adc.o (symbol from plugin)
                                                  obj/main/OPENDRONEBRH/drivers/adc_stm32f30x.o (symbol from plugin)
ADC_StartInjectedConversion                       obj/main/OPENDRONEBRH/stm32f30x_adc.o (symbol from plugin)
ADC_StopConversion                                obj/main/OPENDRONEBRH/stm32f30x_adc.o (symbol from plugin)
ADC_StopInjectedConversion                        obj/main/OPENDRONEBRH/stm32f30x_adc.o (symbol from plugin)
ADC_StructInit                                    obj/main/OPENDRONEBRH/stm32f30x_adc.o (symbol from plugin)
                                                  obj/main/OPENDRONEBRH/drivers/adc_stm32f30x.o (symbol from plugin)
ADC_TempSensorCmd                                 obj/main/OPENDRONEBRH/stm32f30x_adc.o (symbol from plugin)
ADC_VbatCmd                                       obj/main/OPENDRONEBRH/stm32f30x_adc.o (symbol from plugin)
ADC_VoltageRegulatorCmd                           obj/main/OPENDRONEBRH/stm32f30x_adc.o (symbol from plugin)
                                                  obj/main/OPENDRONEBRH/drivers/adc_stm32f30x.o (symbol from plugin)
ADC_VrefintCmd                                    obj/main/OPENDRONEBRH/stm32f30x_adc.o (symbol from plugin)
AHBPrescTable                                     obj/main/OPENDRONEBRH/target/system_stm32f30x.o (symbol from plugin)
BusFault_Handler                                  /tmp/ccjoD88l.ltrans4.ltrans.o
                                                  obj/main/OPENDRONEBRH/vcp/stm32_it.o (symbol from plugin)
                                                  obj/main/OPENDRONEBRH/startup_stm32f30x_md_gcc.o
ByteSwap                                          obj/main/OPENDRONEBRH/usb_regs.o (symbol from plugin)
                                                  obj/main/OPENDRONEBRH/usb_core.o (symbol from plugin)
CAN1_RX1_IRQHandler                               obj/main/OPENDRONEBRH/startup_stm32f30x_md_gcc.o
CAN1_SCE_IRQHandler                               obj/main/OPENDRONEBRH/startup_stm32f30x_md_gcc.o
CDC_BaudRate                                      obj/main/OPENDRONEBRH/vcp/hw_config.o (symbol from plugin)
                                                  obj/main/OPENDRONEBRH/drivers/serial_usb_vcp.o (symbol from plugin)
CDC_Receive_BytesAvailable                        obj/main/OPENDRONEBRH/vcp/hw_config.o (symbol from plugin)
                                                  obj/main/OPENDRONEBRH/drivers/serial_usb_vcp.o (symbol from plugin)
CDC_Receive_DATA                                  obj/main/OPENDRONEBRH/vcp/hw_config.o (symbol from plugin)
                                                  obj/main/OPENDRONEBRH/drivers/serial_usb_vcp.o (symbol from plugin)
CDC_Send_DATA                                     obj/main/OPENDRONEBRH/vcp/hw_config.o (symbol from plugin)
                                                  obj/main/OPENDRONEBRH/drivers/serial_usb_vcp.o (symbol from plugin)
CDC_Send_DATA.part.0                              /tmp/ccjoD88l.ltrans4.ltrans.o
                                                  /tmp/ccjoD88l.ltrans3.ltrans.o
CDC_Send_FreeBytes                                obj/main/OPENDRONEBRH/vcp/hw_config.o (symbol from plugin)
                                                  obj/main/OPENDRONEBRH/drivers/serial_usb_vcp.o (symbol from plugin)
COMP1_2_3_IRQHandler                              obj/main/OPENDRONEBRH/startup_stm32f30x_md_gcc.o
COMP4_5_6_IRQHandler                              obj/main/OPENDRONEBRH/startup_stm32f30x_md_gcc.o
COMP7_IRQHandler                                  obj/main/OPENDRONEBRH/startup_stm32f30x_md_gcc.o
COMP_Cmd                                          obj/main/OPENDRONEBRH/stm32f30x_comp.o (symbol from plugin)
COMP_DeInit                                       obj/main/OPENDRONEBRH/stm32f30x_comp.o (symbol from plugin)
COMP_GetOutputLevel                               obj/main/OPENDRONEBRH/stm32f30x_comp.o (symbol from plugin)
COMP_Init                                         obj/main/OPENDRONEBRH/stm32f30x_comp.o (symbol from plugin)
COMP_LockConfig                                   obj/main/OPENDRONEBRH/stm32f30x_comp.o (symbol from plugin)
COMP_StructInit                                   obj/main/OPENDRONEBRH/stm32f30x_comp.o (symbol from plugin)
COMP_SwitchCmd                                    obj/main/OPENDRONEBRH/stm32f30x_comp.o (symbol from plugin)
COMP_WindowCmd                                    obj/main/OPENDRONEBRH/stm32f30x_comp.o (symbol from plugin)
CTR_HP                                            obj/main/OPENDRONEBRH/usb_int.o (symbol from plugin)
CTR_LP                                            obj/main/OPENDRONEBRH/usb_int.o (symbol from plugin)
                                                  obj/main/OPENDRONEBRH/vcp/usb_istr.o (symbol from plugin)
CheckGPIOPin                                      obj/main/OPENDRONEBRH/drivers/pwm_mapping.o (symbol from plugin)
CheckGPIOPinSource                                obj/main/OPENDRONEBRH/drivers/pwm_mapping.o (symbol from plugin)
ClearDTOG_RX                                      obj/main/OPENDRONEBRH/usb_regs.o (symbol from plugin)
                                                  obj/main/OPENDRONEBRH/usb_core.o (symbol from plugin)
ClearDTOG_TX                                      obj/main/OPENDRONEBRH/usb_regs.o (symbol from plugin)
                                                  obj/main/OPENDRONEBRH/usb_core.o (symbol from plugin)
ClearEPDoubleBuff                                 obj/main/OPENDRONEBRH/usb_regs.o (symbol from plugin)
ClearEP_CTR_RX                                    obj/main/OPENDRONEBRH/usb_regs.o (symbol from plugin)
ClearEP_CTR_TX                                    obj/main/OPENDRONEBRH/usb_regs.o (symbol from plugin)
ClearEP_KIND                                      obj/main/OPENDRONEBRH/usb_regs.o (symbol from plugin)
Clear_Status_Out                                  obj/main/OPENDRONEBRH/usb_regs.o (symbol from plugin)
                                                  obj/main/OPENDRONEBRH/vcp/usb_prop.o (symbol from plugin)
Config_Descriptor                                 obj/main/OPENDRONEBRH/vcp/usb_prop.o (symbol from plugin)
DAC_ClearFlag                                     obj/main/OPENDRONEBRH/stm32f30x_dac.o (symbol from plugin)
DAC_ClearITPendingBit                             obj/main/OPENDRONEBRH/stm32f30x_dac.o (symbol from plugin)
DAC_Cmd                                           obj/main/OPENDRONEBRH/stm32f30x_dac.o (symbol from plugin)
DAC_DMACmd                                        obj/main/OPENDRONEBRH/stm32f30x_dac.o (symbol from plugin)
DAC_DeInit                                        obj/main/OPENDRONEBRH/stm32f30x_dac.o (symbol from plugin)
DAC_DualSoftwareTriggerCmd                        obj/main/OPENDRONEBRH/stm32f30x_dac.o (symbol from plugin)
DAC_GetDataOutputValue                            obj/main/OPENDRONEBRH/stm32f30x_dac.o (symbol from plugin)
DAC_GetFlagStatus                                 obj/main/OPENDRONEBRH/stm32f30x_dac.o (symbol from plugin)
DAC_GetITStatus                                   obj/main/OPENDRONEBRH/stm32f30x_dac.o (symbol from plugin)
DAC_ITConfig                                      obj/main/OPENDRONEBRH/stm32f30x_dac.o (symbol from plugin)
DAC_Init                                          obj/main/OPENDRONEBRH/stm32f30x_dac.o (symbol from plugin)
DAC_SetChannel1Data                               obj/main/OPENDRONEBRH/stm32f30x_dac.o (symbol from plugin)
DAC_SetChannel2Data                               obj/main/OPENDRONEBRH/stm32f30x_dac.o (symbol from plugin)
DAC_SetDualChannelData                            obj/main/OPENDRONEBRH/stm32f30x_dac.o (symbol from plugin)
DAC_SoftwareTriggerCmd                            obj/main/OPENDRONEBRH/stm32f30x_dac.o (symbol from plugin)
DAC_StructInit                                    obj/main/OPENDRONEBRH/stm32f30x_dac.o (symbol from plugin)
DAC_WaveGenerationCmd                             obj/main/OPENDRONEBRH/stm32f30x_dac.o (symbol from plugin)
DBGMCU_APB1PeriphConfig                           obj/main/OPENDRONEBRH/stm32f30x_dbgmcu.o (symbol from plugin)
DBGMCU_APB2PeriphConfig                           obj/main/OPENDRONEBRH/stm32f30x_dbgmcu.o (symbol from plugin)
DBGMCU_Config                                     obj/main/OPENDRONEBRH/stm32f30x_dbgmcu.o (symbol from plugin)
DBGMCU_GetDEVID                                   obj/main/OPENDRONEBRH/stm32f30x_dbgmcu.o (symbol from plugin)
DBGMCU_GetREVID                                   obj/main/OPENDRONEBRH/stm32f30x_dbgmcu.o (symbol from plugin)
DMA1_Channel1_IRQHandler                          /tmp/ccjoD88l.ltrans3.ltrans.o
                                                  obj/main/OPENDRONEBRH/drivers/dma.o (symbol from plugin)
                                                  obj/main/OPENDRONEBRH/startup_stm32f30x_md_gcc.o
DMA1_Channel2_IRQHandler                          /tmp/ccjoD88l.ltrans3.ltrans.o
                                                  obj/main/OPENDRONEBRH/drivers/dma.o (symbol from plugin)
                                                  obj/main/OPENDRONEBRH/startup_stm32f30x_md_gcc.o
DMA1_Channel3_IRQHandler                          /tmp/ccjoD88l.ltrans3.ltrans.o
                                                  obj/main/OPENDRONEBRH/drivers/dma.o (symbol from plugin)
                                                  obj/main/OPENDRONEBRH/startup_stm32f30x_md_gcc.o
DMA1_Channel4_IRQHandler                          /tmp/ccjoD88l.ltrans3.ltrans.o
                                                  obj/main/OPENDRONEBRH/drivers/dma.o (symbol from plugin)
                                                  obj/main/OPENDRONEBRH/startup_stm32f30x_md_gcc.o
DMA1_Channel5_IRQHandler                          /tmp/ccjoD88l.ltrans3.ltrans.o
                                                  obj/main/OPENDRONEBRH/drivers/dma.o (symbol from plugin)
                                                  obj/main/OPENDRONEBRH/startup_stm32f30x_md_gcc.o
DMA1_Channel6_IRQHandler                          /tmp/ccjoD88l.ltrans3.ltrans.o
                                                  obj/main/OPENDRONEBRH/drivers/dma.o (symbol from plugin)
                                                  obj/main/OPENDRONEBRH/startup_stm32f30x_md_gcc.o
DMA1_Channel7_IRQHandler                          /tmp/ccjoD88l.ltrans3.ltrans.o
                                                  obj/main/OPENDRONEBRH/drivers/dma.o (symbol from plugin)
                                                  obj/main/OPENDRONEBRH/startup_stm32f30x_md_gcc.o
DMA2_Channel1_IRQHandler                          /tmp/ccjoD88l.ltrans3.ltrans.o
                                                  obj/main/OPENDRONEBRH/drivers/dma.o (symbol from plugin)
                                                  obj/main/OPENDRONEBRH/startup_stm32f30x_md_gcc.o
DMA2_Channel2_IRQHandler                          /tmp/ccjoD88l.ltrans3.ltrans.o
                                                  obj/main/OPENDRONEBRH/drivers/dma.o (symbol from plugin)
                                                  obj/main/OPENDRONEBRH/startup_stm32f30x_md_gcc.o
DMA2_Channel3_IRQHandler                          /tmp/ccjoD88l.ltrans3.ltrans.o
                                                  obj/main/OPENDRONEBRH/drivers/dma.o (symbol from plugin)
                                                  obj/main/OPENDRONEBRH/startup_stm32f30x_md_gcc.o
DMA2_Channel4_IRQHandler                          /tmp/ccjoD88l.ltrans3.ltrans.o
                                                  obj/main/OPENDRONEBRH/drivers/dma.o (symbol from plugin)
                                                  obj/main/OPENDRONEBRH/startup_stm32f30x_md_gcc.o
DMA2_Channel5_IRQHandler                          /tmp/ccjoD88l.ltrans3.ltrans.o
                                                  obj/main/OPENDRONEBRH/drivers/dma.o (symbol from plugin)
                                                  obj/main/OPENDRONEBRH/startup_stm32f30x_md_gcc.o
DMA_ClearFlag                                     obj/main/OPENDRONEBRH/stm32f30x_dma.o (symbol from plugin)
DMA_ClearITPendingBit                             obj/main/OPENDRONEBRH/stm32f30x_dma.o (symbol from plugin)
DMA_Cmd                                           obj/main/OPENDRONEBRH/stm32f30x_dma.o (symbol from plugin)
                                                  obj/main/OPENDRONEBRH/drivers/serial_uart.o (symbol from plugin)
                                                  obj/main/OPENDRONEBRH/drivers/serial_uart_stm32f30x.o (symbol from plugin)
                                                  obj/main/OPENDRONEBRH/drivers/adc_stm32f30x.o (symbol from plugin)
DMA_DeInit                                        /tmp/ccjoD88l.ltrans4.ltrans.o
                                                  obj/main/OPENDRONEBRH/stm32f30x_dma.o (symbol from plugin)
                                                  /tmp/ccjoD88l.ltrans1.ltrans.o
                                                  obj/main/OPENDRONEBRH/drivers/serial_uart.o (symbol from plugin)
                                                  obj/main/OPENDRONEBRH/drivers/adc_stm32f30x.o (symbol from plugin)
DMA_GetCurrDataCounter                            obj/main/OPENDRONEBRH/stm32f30x_dma.o (symbol from plugin)
                                                  obj/main/OPENDRONEBRH/drivers/serial_uart.o (symbol from plugin)
DMA_GetFlagStatus                                 obj/main/OPENDRONEBRH/stm32f30x_dma.o (symbol from plugin)
DMA_GetITStatus                                   obj/main/OPENDRONEBRH/stm32f30x_dma.o (symbol from plugin)
DMA_ITConfig                                      obj/main/OPENDRONEBRH/stm32f30x_dma.o (symbol from plugin)
                                                  obj/main/OPENDRONEBRH/drivers/serial_uart.o (symbol from plugin)
DMA_Init                                          /tmp/ccjoD88l.ltrans4.ltrans.o
                                                  obj/main/OPENDRONEBRH/stm32f30x_dma.o (symbol from plugin)
                                                  /tmp/ccjoD88l.ltrans1.ltrans.o
                                                  obj/main/OPENDRONEBRH/drivers/serial_uart.o (symbol from plugin)
                                                  obj/main/OPENDRONEBRH/drivers/adc_stm32f30x.o (symbol from plugin)
DMA_SetCurrDataCounter                            obj/main/OPENDRONEBRH/stm32f30x_dma.o (symbol from plugin)
                                                  obj/main/OPENDRONEBRH/drivers/serial_uart.o (symbol from plugin)
DMA_StructInit                                    obj/main/OPENDRONEBRH/stm32f30x_dma.o (symbol from plugin)
                                                  obj/main/OPENDRONEBRH/drivers/serial_uart.o (symbol from plugin)
                                                  obj/main/OPENDRONEBRH/drivers/adc_stm32f30x.o (symbol from plugin)
Data_Mul_MaxPacketSize                            obj/main/OPENDRONEBRH/usb_core.o (symbol from plugin)
DebugMon_Handler                                  /tmp/ccjoD88l.ltrans4.ltrans.o
                                                  obj/main/OPENDRONEBRH/vcp/stm32_it.o (symbol from plugin)
                                                  obj/main/OPENDRONEBRH/startup_stm32f30x_md_gcc.o
Default_Handler                                   obj/main/OPENDRONEBRH/startup_stm32f30x_md_gcc.o
Device_Descriptor                                 obj/main/OPENDRONEBRH/vcp/usb_prop.o (symbol from plugin)
Device_Info                                       /tmp/ccjoD88l.ltrans4.ltrans.o
                                                  obj/main/OPENDRONEBRH/usb_init.o (symbol from plugin)
                                                  /tmp/ccjoD88l.ltrans1.ltrans.o
                                                  obj/main/OPENDRONEBRH/vcp/usb_prop.o (symbol from plugin)
                                                  obj/main/OPENDRONEBRH/vcp/hw_config.o (symbol from plugin)
Device_Property                                   /tmp/ccjoD88l.ltrans4.ltrans.o
                                                  obj/main/OPENDRONEBRH/vcp/usb_prop.o (symbol from plugin)
                                                  /tmp/ccjoD88l.ltrans1.ltrans.o
                                                  obj/main/OPENDRONEBRH/vcp/usb_istr.o (symbol from plugin)
                                                  obj/main/OPENDRONEBRH/usb_core.o (symbol from plugin)
                                                  obj/main/OPENDRONEBRH/usb_init.o (symbol from plugin)
Device_Table                                      obj/main/OPENDRONEBRH/vcp/usb_prop.o (symbol from plugin)
                                                  obj/main/OPENDRONEBRH/usb_core.o (symbol from plugin)
EP                                                obj/main/OPENDRONEBRH/vcp/usb_pwr.o (symbol from plugin)
EP1_IN_Callback                                   obj/main/OPENDRONEBRH/vcp/usb_endp.o (symbol from plugin)
                                                  obj/main/OPENDRONEBRH/vcp/usb_istr.o (symbol from plugin)
EP3_OUT_Callback                                  obj/main/OPENDRONEBRH/vcp/usb_endp.o (symbol from plugin)
                                                  obj/main/OPENDRONEBRH/vcp/usb_istr.o (symbol from plugin)
EPindex                                           obj/main/OPENDRONEBRH/usb_init.o (symbol from plugin)
                                                  obj/main/OPENDRONEBRH/usb_int.o (symbol from plugin)
EXTI0_IRQHandler                                  /tmp/ccjoD88l.ltrans1.ltrans.o
                                                  obj/main/OPENDRONEBRH/drivers/exti.o (symbol from plugin)
                                                  obj/main/OPENDRONEBRH/startup_stm32f30x_md_gcc.o
EXTI15_10_IRQHandler                              /tmp/ccjoD88l.ltrans1.ltrans.o
                                                  obj/main/OPENDRONEBRH/drivers/exti.o (symbol from plugin)
                                                  obj/main/OPENDRONEBRH/startup_stm32f30x_md_gcc.o
EXTI1_IRQHandler                                  /tmp/ccjoD88l.ltrans1.ltrans.o
                                                  obj/main/OPENDRONEBRH/drivers/exti.o (symbol from plugin)
                                                  obj/main/OPENDRONEBRH/startup_stm32f30x_md_gcc.o
EXTI2_TS_IRQHandler                               /tmp/ccjoD88l.ltrans1.ltrans.o
                                                  obj/main/OPENDRONEBRH/drivers/exti.o (symbol from plugin)
                                                  obj/main/OPENDRONEBRH/startup_stm32f30x_md_gcc.o
EXTI3_IRQHandler                                  /tmp/ccjoD88l.ltrans1.ltrans.o
                                                  obj/main/OPENDRONEBRH/drivers/exti.o (symbol from plugin)
                                                  obj/main/OPENDRONEBRH/startup_stm32f30x_md_gcc.o
EXTI4_IRQHandler                                  /tmp/ccjoD88l.ltrans1.ltrans.o
                                                  obj/main/OPENDRONEBRH/drivers/exti.o (symbol from plugin)
                                                  obj/main/OPENDRONEBRH/startup_stm32f30x_md_gcc.o
EXTI9_5_IRQHandler                                /tmp/ccjoD88l.ltrans1.ltrans.o
                                                  obj/main/OPENDRONEBRH/drivers/exti.o (symbol from plugin)
                                                  obj/main/OPENDRONEBRH/startup_stm32f30x_md_gcc.o
EXTIConfig                                        obj/main/OPENDRONEBRH/drivers/exti.o (symbol from plugin)
                                                  obj/main/OPENDRONEBRH/drivers/accgyro/accgyro.o (symbol from plugin)
EXTIEnable                                        obj/main/OPENDRONEBRH/drivers/exti.o (symbol from plugin)
                                                  obj/main/OPENDRONEBRH/drivers/accgyro/accgyro.o (symbol from plugin)
EXTIHandlerInit                                   obj/main/OPENDRONEBRH/drivers/exti.o (symbol from plugin)
                                                  obj/main/OPENDRONEBRH/drivers/accgyro/accgyro.o (symbol from plugin)
EXTIInit                                          obj/main/OPENDRONEBRH/drivers/exti.o (symbol from plugin)
                                                  obj/main/OPENDRONEBRH/fc/fc_init.o (symbol from plugin)
EXTIRelease                                       obj/main/OPENDRONEBRH/drivers/exti.o (symbol from plugin)
EXTI_ClearFlag                                    obj/main/OPENDRONEBRH/stm32f30x_exti.o (symbol from plugin)
EXTI_ClearITPendingBit                            obj/main/OPENDRONEBRH/stm32f30x_exti.o (symbol from plugin)
                                                  obj/main/OPENDRONEBRH/vcp/stm32_it.o (symbol from plugin)
                                                  obj/main/OPENDRONEBRH/vcp/hw_config.o (symbol from plugin)
                                                  obj/main/OPENDRONEBRH/drivers/exti.o (symbol from plugin)
EXTI_DeInit                                       obj/main/OPENDRONEBRH/stm32f30x_exti.o (symbol from plugin)
EXTI_GenerateSWInterrupt                          obj/main/OPENDRONEBRH/stm32f30x_exti.o (symbol from plugin)
EXTI_GetFlagStatus                                obj/main/OPENDRONEBRH/stm32f30x_exti.o (symbol from plugin)
EXTI_GetITStatus                                  obj/main/OPENDRONEBRH/stm32f30x_exti.o (symbol from plugin)
EXTI_IRQHandler                                   obj/main/OPENDRONEBRH/drivers/exti.o (symbol from plugin)
EXTI_Init                                         obj/main/OPENDRONEBRH/stm32f30x_exti.o (symbol from plugin)
                                                  obj/main/OPENDRONEBRH/vcp/hw_config.o (symbol from plugin)
                                                  obj/main/OPENDRONEBRH/drivers/exti.o (symbol from plugin)
EXTI_Init.part.0.constprop.202                    /tmp/ccjoD88l.ltrans4.ltrans.o
                                                  /tmp/ccjoD88l.ltrans3.ltrans.o
                                                  /tmp/ccjoD88l.ltrans1.ltrans.o
EXTI_InitStructure                                obj/main/OPENDRONEBRH/vcp/hw_config.o (symbol from plugin)
EXTI_StructInit                                   obj/main/OPENDRONEBRH/stm32f30x_exti.o (symbol from plugin)
Enter_LowPowerMode                                obj/main/OPENDRONEBRH/vcp/hw_config.o (symbol from plugin)
FLASH_ClearFlag                                   obj/main/OPENDRONEBRH/stm32f30x_flash.o (symbol from plugin)
                                                  obj/main/OPENDRONEBRH/config/config_streamer.o (symbol from plugin)
FLASH_EraseAllPages                               obj/main/OPENDRONEBRH/stm32f30x_flash.o (symbol from plugin)
FLASH_ErasePage                                   obj/main/OPENDRONEBRH/stm32f30x_flash.o (symbol from plugin)
                                                  obj/main/OPENDRONEBRH/config/config_streamer.o (symbol from plugin)
FLASH_GetFlagStatus                               obj/main/OPENDRONEBRH/stm32f30x_flash.o (symbol from plugin)
FLASH_GetStatus                                   obj/main/OPENDRONEBRH/stm32f30x_flash.o (symbol from plugin)
FLASH_HalfCycleAccessCmd                          obj/main/OPENDRONEBRH/stm32f30x_flash.o (symbol from plugin)
FLASH_IRQHandler                                  obj/main/OPENDRONEBRH/startup_stm32f30x_md_gcc.o
FLASH_ITConfig                                    obj/main/OPENDRONEBRH/stm32f30x_flash.o (symbol from plugin)
FLASH_Lock                                        obj/main/OPENDRONEBRH/stm32f30x_flash.o (symbol from plugin)
                                                  obj/main/OPENDRONEBRH/config/config_streamer.o (symbol from plugin)
FLASH_OB_BOOTConfig                               obj/main/OPENDRONEBRH/stm32f30x_flash.o (symbol from plugin)
FLASH_OB_EnableWRP                                obj/main/OPENDRONEBRH/stm32f30x_flash.o (symbol from plugin)
FLASH_OB_Erase                                    obj/main/OPENDRONEBRH/stm32f30x_flash.o (symbol from plugin)
FLASH_OB_GetRDP                                   obj/main/OPENDRONEBRH/stm32f30x_flash.o (symbol from plugin)
FLASH_OB_GetUser                                  obj/main/OPENDRONEBRH/stm32f30x_flash.o (symbol from plugin)
FLASH_OB_GetWRP                                   obj/main/OPENDRONEBRH/stm32f30x_flash.o (symbol from plugin)
FLASH_OB_Launch                                   obj/main/OPENDRONEBRH/stm32f30x_flash.o (symbol from plugin)
FLASH_OB_Lock                                     obj/main/OPENDRONEBRH/stm32f30x_flash.o (symbol from plugin)
FLASH_OB_RDPConfig                                obj/main/OPENDRONEBRH/stm32f30x_flash.o (symbol from plugin)
FLASH_OB_SRAMParityConfig                         obj/main/OPENDRONEBRH/stm32f30x_flash.o (symbol from plugin)
FLASH_OB_Unlock                                   obj/main/OPENDRONEBRH/stm32f30x_flash.o (symbol from plugin)
FLASH_OB_UserConfig                               obj/main/OPENDRONEBRH/stm32f30x_flash.o (symbol from plugin)
FLASH_OB_VDDAConfig                               obj/main/OPENDRONEBRH/stm32f30x_flash.o (symbol from plugin)
FLASH_OB_WriteUser                                obj/main/OPENDRONEBRH/stm32f30x_flash.o (symbol from plugin)
FLASH_PrefetchBufferCmd                           obj/main/OPENDRONEBRH/stm32f30x_flash.o (symbol from plugin)
FLASH_ProgramHalfWord                             obj/main/OPENDRONEBRH/stm32f30x_flash.o (symbol from plugin)
FLASH_ProgramOptionByteData                       obj/main/OPENDRONEBRH/stm32f30x_flash.o (symbol from plugin)
FLASH_ProgramWord                                 obj/main/OPENDRONEBRH/stm32f30x_flash.o (symbol from plugin)
                                                  obj/main/OPENDRONEBRH/config/config_streamer.o (symbol from plugin)
FLASH_SetLatency                                  obj/main/OPENDRONEBRH/stm32f30x_flash.o (symbol from plugin)
FLASH_Unlock                                      obj/main/OPENDRONEBRH/stm32f30x_flash.o (symbol from plugin)
                                                  obj/main/OPENDRONEBRH/config/config_streamer.o (symbol from plugin)
FLASH_WaitForLastOperation                        obj/main/OPENDRONEBRH/stm32f30x_flash.o (symbol from plugin)
FLASH_WaitForLastOperation.constprop.141          /tmp/ccjoD88l.ltrans4.ltrans.o
                                                  /tmp/ccjoD88l.ltrans1.ltrans.o
FPU_IRQHandler                                    obj/main/OPENDRONEBRH/startup_stm32f30x_md_gcc.o
FreeUserBuffer                                    obj/main/OPENDRONEBRH/usb_regs.o (symbol from plugin)
GPIO_DeInit                                       obj/main/OPENDRONEBRH/stm32f30x_gpio.o (symbol from plugin)
GPIO_Init                                         /tmp/ccjoD88l.ltrans4.ltrans.o
                                                  obj/main/OPENDRONEBRH/stm32f30x_gpio.o (symbol from plugin)
                                                  /tmp/ccjoD88l.ltrans3.ltrans.o
                                                  /tmp/ccjoD88l.ltrans1.ltrans.o
                                                  obj/main/OPENDRONEBRH/vcp/hw_config.o (symbol from plugin)
                                                  obj/main/OPENDRONEBRH/drivers/io.o (symbol from plugin)
                                                  obj/main/OPENDRONEBRH/drivers/gpio_stm32f30x.o (symbol from plugin)
GPIO_PinAFConfig                                  obj/main/OPENDRONEBRH/stm32f30x_gpio.o (symbol from plugin)
                                                  obj/main/OPENDRONEBRH/vcp/hw_config.o (symbol from plugin)
                                                  obj/main/OPENDRONEBRH/drivers/io.o (symbol from plugin)
GPIO_PinLockConfig                                obj/main/OPENDRONEBRH/stm32f30x_gpio.o (symbol from plugin)
GPIO_ReadInputData                                obj/main/OPENDRONEBRH/stm32f30x_gpio.o (symbol from plugin)
GPIO_ReadInputDataBit                             obj/main/OPENDRONEBRH/stm32f30x_gpio.o (symbol from plugin)
GPIO_ReadOutputData                               obj/main/OPENDRONEBRH/stm32f30x_gpio.o (symbol from plugin)
GPIO_ReadOutputDataBit                            obj/main/OPENDRONEBRH/stm32f30x_gpio.o (symbol from plugin)
GPIO_ResetBits                                    obj/main/OPENDRONEBRH/stm32f30x_gpio.o (symbol from plugin)
                                                  obj/main/OPENDRONEBRH/vcp/hw_config.o (symbol from plugin)
GPIO_SetBits                                      obj/main/OPENDRONEBRH/stm32f30x_gpio.o (symbol from plugin)
                                                  obj/main/OPENDRONEBRH/vcp/hw_config.o (symbol from plugin)
GPIO_StructInit                                   obj/main/OPENDRONEBRH/stm32f30x_gpio.o (symbol from plugin)
GPIO_Write                                        obj/main/OPENDRONEBRH/stm32f30x_gpio.o (symbol from plugin)
GPIO_WriteBit                                     obj/main/OPENDRONEBRH/stm32f30x_gpio.o (symbol from plugin)
GPS_coord_to_degrees                              obj/main/OPENDRONEBRH/common/gps_conversion.o (symbol from plugin)
GPS_directionToHome                               /tmp/ccjoD88l.ltrans2.ltrans.o
                                                  obj/main/OPENDRONEBRH/navigation/navigation.o (symbol from plugin)
                                                  /tmp/ccjoD88l.ltrans3.ltrans.o
                                                  obj/main/OPENDRONEBRH/fc/fc_msp.o (symbol from plugin)
                                                  obj/main/OPENDRONEBRH/telemetry/ibus_shared.o (symbol from plugin)
                                                  obj/main/OPENDRONEBRH/telemetry/hott.o (symbol from plugin)
GPS_distanceToHome                                /tmp/ccjoD88l.ltrans2.ltrans.o
                                                  obj/main/OPENDRONEBRH/navigation/navigation.o (symbol from plugin)
                                                  /tmp/ccjoD88l.ltrans3.ltrans.o
                                                  /tmp/ccjoD88l.ltrans1.ltrans.o
                                                  /tmp/ccjoD88l.ltrans0.ltrans.o
                                                  obj/main/OPENDRONEBRH/flight/failsafe.o (symbol from plugin)
                                                  obj/main/OPENDRONEBRH/fc/fc_msp.o (symbol from plugin)
                                                  obj/main/OPENDRONEBRH/telemetry/smartport.o (symbol from plugin)
                                                  obj/main/OPENDRONEBRH/telemetry/ibus_shared.o (symbol from plugin)
                                                  obj/main/OPENDRONEBRH/telemetry/hott.o (symbol from plugin)
GPS_home                                          /tmp/ccjoD88l.ltrans2.ltrans.o
                                                  obj/main/OPENDRONEBRH/navigation/navigation.o (symbol from plugin)
                                                  /tmp/ccjoD88l.ltrans3.ltrans.o
                                                  obj/main/OPENDRONEBRH/telemetry/mavlink.o (symbol from plugin)
GetBTABLE                                         obj/main/OPENDRONEBRH/usb_regs.o (symbol from plugin)
GetCNTR                                           obj/main/OPENDRONEBRH/usb_regs.o (symbol from plugin)
GetDADDR                                          obj/main/OPENDRONEBRH/usb_regs.o (symbol from plugin)
GetENDPOINT                                       obj/main/OPENDRONEBRH/usb_regs.o (symbol from plugin)
GetEPAddress                                      obj/main/OPENDRONEBRH/usb_regs.o (symbol from plugin)
GetEPDblBuf0Addr                                  obj/main/OPENDRONEBRH/usb_regs.o (symbol from plugin)
GetEPDblBuf0Count                                 obj/main/OPENDRONEBRH/usb_regs.o (symbol from plugin)
GetEPDblBuf1Addr                                  obj/main/OPENDRONEBRH/usb_regs.o (symbol from plugin)
GetEPDblBuf1Count                                 obj/main/OPENDRONEBRH/usb_regs.o (symbol from plugin)
GetEPDblBufDir                                    obj/main/OPENDRONEBRH/usb_regs.o (symbol from plugin)
GetEPRxAddr                                       obj/main/OPENDRONEBRH/usb_regs.o (symbol from plugin)
                                                  obj/main/OPENDRONEBRH/usb_core.o (symbol from plugin)
                                                  obj/main/OPENDRONEBRH/usb_sil.o (symbol from plugin)
GetEPRxCount                                      obj/main/OPENDRONEBRH/usb_regs.o (symbol from plugin)
                                                  obj/main/OPENDRONEBRH/vcp/usb_endp.o (symbol from plugin)
                                                  obj/main/OPENDRONEBRH/usb_sil.o (symbol from plugin)
GetEPRxStatus                                     obj/main/OPENDRONEBRH/usb_regs.o (symbol from plugin)
GetEPTxAddr                                       obj/main/OPENDRONEBRH/usb_regs.o (symbol from plugin)
                                                  obj/main/OPENDRONEBRH/usb_core.o (symbol from plugin)
                                                  obj/main/OPENDRONEBRH/usb_sil.o (symbol from plugin)
GetEPTxCount                                      obj/main/OPENDRONEBRH/usb_regs.o (symbol from plugin)
GetEPTxStatus                                     obj/main/OPENDRONEBRH/usb_regs.o (symbol from plugin)
GetEPType                                         obj/main/OPENDRONEBRH/usb_regs.o (symbol from plugin)
GetFNR                                            obj/main/OPENDRONEBRH/usb_regs.o (symbol from plugin)
GetISTR                                           obj/main/OPENDRONEBRH/usb_regs.o (symbol from plugin)
GetRxStallStatus                                  obj/main/OPENDRONEBRH/usb_regs.o (symbol from plugin)
GetTxStallStatus                                  obj/main/OPENDRONEBRH/usb_regs.o (symbol from plugin)
Get_SerialNum                                     obj/main/OPENDRONEBRH/vcp/hw_config.o (symbol from plugin)
                                                  obj/main/OPENDRONEBRH/vcp/usb_prop.o (symbol from plugin)
HRTIM_ADCTriggerConfig                            obj/main/OPENDRONEBRH/stm32f30x_hrtim.o (symbol from plugin)
HRTIM_BurstDMAConfig                              obj/main/OPENDRONEBRH/stm32f30x_hrtim.o (symbol from plugin)
HRTIM_BurstModeConfig                             obj/main/OPENDRONEBRH/stm32f30x_hrtim.o (symbol from plugin)
HRTIM_BurstModeCtl                                obj/main/OPENDRONEBRH/stm32f30x_hrtim.o (symbol from plugin)
HRTIM_ChopperModeConfig                           obj/main/OPENDRONEBRH/stm32f30x_hrtim.o (symbol from plugin)
HRTIM_ClearCommonFlag                             obj/main/OPENDRONEBRH/stm32f30x_hrtim.o (symbol from plugin)
HRTIM_ClearCommonITPendingBit                     obj/main/OPENDRONEBRH/stm32f30x_hrtim.o (symbol from plugin)
HRTIM_ClearFlag                                   obj/main/OPENDRONEBRH/stm32f30x_hrtim.o (symbol from plugin)
HRTIM_ClearITPendingBit                           obj/main/OPENDRONEBRH/stm32f30x_hrtim.o (symbol from plugin)
HRTIM_DLLCalibrationStart                         obj/main/OPENDRONEBRH/stm32f30x_hrtim.o (symbol from plugin)
HRTIM_DMACmd                                      obj/main/OPENDRONEBRH/stm32f30x_hrtim.o (symbol from plugin)
HRTIM_DeInit                                      obj/main/OPENDRONEBRH/stm32f30x_hrtim.o (symbol from plugin)
HRTIM_DeadTimeConfig                              obj/main/OPENDRONEBRH/stm32f30x_hrtim.o (symbol from plugin)
HRTIM_EventConfig                                 obj/main/OPENDRONEBRH/stm32f30x_hrtim.o (symbol from plugin)
HRTIM_EventPrescalerConfig                        obj/main/OPENDRONEBRH/stm32f30x_hrtim.o (symbol from plugin)
HRTIM_FaultConfig                                 obj/main/OPENDRONEBRH/stm32f30x_hrtim.o (symbol from plugin)
HRTIM_FaultModeCtl                                obj/main/OPENDRONEBRH/stm32f30x_hrtim.o (symbol from plugin)
HRTIM_FaultPrescalerConfig                        obj/main/OPENDRONEBRH/stm32f30x_hrtim.o (symbol from plugin)
HRTIM_GetBurstStatus                              obj/main/OPENDRONEBRH/stm32f30x_hrtim.o (symbol from plugin)
HRTIM_GetCapturedValue                            obj/main/OPENDRONEBRH/stm32f30x_hrtim.o (symbol from plugin)
HRTIM_GetCommonFlagStatus                         obj/main/OPENDRONEBRH/stm32f30x_hrtim.o (symbol from plugin)
HRTIM_GetCommonITStatus                           obj/main/OPENDRONEBRH/stm32f30x_hrtim.o (symbol from plugin)
HRTIM_GetCurrentPushPullStatus                    obj/main/OPENDRONEBRH/stm32f30x_hrtim.o (symbol from plugin)
HRTIM_GetDelayedProtectionStatus                  obj/main/OPENDRONEBRH/stm32f30x_hrtim.o (symbol from plugin)
HRTIM_GetFlagStatus                               obj/main/OPENDRONEBRH/stm32f30x_hrtim.o (symbol from plugin)
HRTIM_GetITStatus                                 obj/main/OPENDRONEBRH/stm32f30x_hrtim.o (symbol from plugin)
HRTIM_GetIdlePushPullStatus                       obj/main/OPENDRONEBRH/stm32f30x_hrtim.o (symbol from plugin)
HRTIM_ITCommonConfig                              obj/main/OPENDRONEBRH/stm32f30x_hrtim.o (symbol from plugin)
HRTIM_ITConfig                                    obj/main/OPENDRONEBRH/stm32f30x_hrtim.o (symbol from plugin)
HRTIM_MasterSetCompare                            obj/main/OPENDRONEBRH/stm32f30x_hrtim.o (symbol from plugin)
HRTIM_SimpleBaseStart                             obj/main/OPENDRONEBRH/stm32f30x_hrtim.o (symbol from plugin)
HRTIM_SimpleBaseStop                              obj/main/OPENDRONEBRH/stm32f30x_hrtim.o (symbol from plugin)
HRTIM_SimpleBase_Init                             obj/main/OPENDRONEBRH/stm32f30x_hrtim.o (symbol from plugin)
HRTIM_SimpleCaptureChannelConfig                  obj/main/OPENDRONEBRH/stm32f30x_hrtim.o (symbol from plugin)
HRTIM_SimpleCaptureStart                          obj/main/OPENDRONEBRH/stm32f30x_hrtim.o (symbol from plugin)
HRTIM_SimpleCaptureStop                           obj/main/OPENDRONEBRH/stm32f30x_hrtim.o (symbol from plugin)
HRTIM_SimpleCapture_Init                          obj/main/OPENDRONEBRH/stm32f30x_hrtim.o (symbol from plugin)
HRTIM_SimpleOCChannelConfig                       obj/main/OPENDRONEBRH/stm32f30x_hrtim.o (symbol from plugin)
HRTIM_SimpleOCStart                               obj/main/OPENDRONEBRH/stm32f30x_hrtim.o (symbol from plugin)
HRTIM_SimpleOCStop                                obj/main/OPENDRONEBRH/stm32f30x_hrtim.o (symbol from plugin)
HRTIM_SimpleOC_Init                               obj/main/OPENDRONEBRH/stm32f30x_hrtim.o (symbol from plugin)
HRTIM_SimpleOnePulseChannelConfig                 obj/main/OPENDRONEBRH/stm32f30x_hrtim.o (symbol from plugin)
HRTIM_SimpleOnePulseStart                         obj/main/OPENDRONEBRH/stm32f30x_hrtim.o (symbol from plugin)
HRTIM_SimpleOnePulseStop                          obj/main/OPENDRONEBRH/stm32f30x_hrtim.o (symbol from plugin)
HRTIM_SimpleOnePulse_Init                         obj/main/OPENDRONEBRH/stm32f30x_hrtim.o (symbol from plugin)
HRTIM_SimplePWMChannelConfig                      obj/main/OPENDRONEBRH/stm32f30x_hrtim.o (symbol from plugin)
HRTIM_SimplePWMStart                              obj/main/OPENDRONEBRH/stm32f30x_hrtim.o (symbol from plugin)
HRTIM_SimplePWMStop                               obj/main/OPENDRONEBRH/stm32f30x_hrtim.o (symbol from plugin)
HRTIM_SimplePWM_Init                              obj/main/OPENDRONEBRH/stm32f30x_hrtim.o (symbol from plugin)
HRTIM_SlaveSetCompare                             obj/main/OPENDRONEBRH/stm32f30x_hrtim.o (symbol from plugin)
HRTIM_SoftwareCapture                             obj/main/OPENDRONEBRH/stm32f30x_hrtim.o (symbol from plugin)
HRTIM_SoftwareReset                               obj/main/OPENDRONEBRH/stm32f30x_hrtim.o (symbol from plugin)
HRTIM_SoftwareUpdate                              obj/main/OPENDRONEBRH/stm32f30x_hrtim.o (symbol from plugin)
HRTIM_SynchronizationConfig                       obj/main/OPENDRONEBRH/stm32f30x_hrtim.o (symbol from plugin)
HRTIM_TimerEventFilteringConfig                   obj/main/OPENDRONEBRH/stm32f30x_hrtim.o (symbol from plugin)
HRTIM_WaveformCaptureConfig                       obj/main/OPENDRONEBRH/stm32f30x_hrtim.o (symbol from plugin)
HRTIM_WaveformCompareConfig                       obj/main/OPENDRONEBRH/stm32f30x_hrtim.o (symbol from plugin)
HRTIM_WaveformCounterStart                        obj/main/OPENDRONEBRH/stm32f30x_hrtim.o (symbol from plugin)
HRTIM_WaveformCounterStop                         obj/main/OPENDRONEBRH/stm32f30x_hrtim.o (symbol from plugin)
HRTIM_WaveformGetOutputLevel                      obj/main/OPENDRONEBRH/stm32f30x_hrtim.o (symbol from plugin)
HRTIM_WaveformGetOutputState                      obj/main/OPENDRONEBRH/stm32f30x_hrtim.o (symbol from plugin)
HRTIM_WaveformOutputConfig                        obj/main/OPENDRONEBRH/stm32f30x_hrtim.o (symbol from plugin)
HRTIM_WaveformOutputStart                         obj/main/OPENDRONEBRH/stm32f30x_hrtim.o (symbol from plugin)
HRTIM_WaveformOutputStop                          obj/main/OPENDRONEBRH/stm32f30x_hrtim.o (symbol from plugin)
HRTIM_WaveformSetOutputLevel                      obj/main/OPENDRONEBRH/stm32f30x_hrtim.o (symbol from plugin)
HRTIM_WaveformTimerConfig                         obj/main/OPENDRONEBRH/stm32f30x_hrtim.o (symbol from plugin)
HRTIM_Waveform_Init                               obj/main/OPENDRONEBRH/stm32f30x_hrtim.o (symbol from plugin)
HSEStartUpStatus                                  obj/main/OPENDRONEBRH/vcp/hw_config.o (symbol from plugin)
HardFault_Handler                                 /tmp/ccjoD88l.ltrans2.ltrans.o
                                                  obj/main/OPENDRONEBRH/fc/fc_hardfaults.o (symbol from plugin)
                                                  obj/main/OPENDRONEBRH/startup_stm32f30x_md_gcc.o
I2C1_ER_IRQHandler                                obj/main/OPENDRONEBRH/startup_stm32f30x_md_gcc.o
I2C1_EV_IRQHandler                                obj/main/OPENDRONEBRH/startup_stm32f30x_md_gcc.o
I2C2_ER_IRQHandler                                obj/main/OPENDRONEBRH/startup_stm32f30x_md_gcc.o
I2C2_EV_IRQHandler                                obj/main/OPENDRONEBRH/startup_stm32f30x_md_gcc.o
I2C_10BitAddressHeaderCmd                         obj/main/OPENDRONEBRH/stm32f30x_i2c.o (symbol from plugin)
I2C_10BitAddressingModeCmd                        obj/main/OPENDRONEBRH/stm32f30x_i2c.o (symbol from plugin)
I2C_AcknowledgeConfig                             obj/main/OPENDRONEBRH/stm32f30x_i2c.o (symbol from plugin)
I2C_AutoEndCmd                                    obj/main/OPENDRONEBRH/stm32f30x_i2c.o (symbol from plugin)
I2C_CalculatePEC                                  obj/main/OPENDRONEBRH/stm32f30x_i2c.o (symbol from plugin)
I2C_ClearFlag                                     obj/main/OPENDRONEBRH/stm32f30x_i2c.o (symbol from plugin)
                                                  obj/main/OPENDRONEBRH/drivers/bus_i2c_stm32f30x.o (symbol from plugin)
I2C_ClearITPendingBit                             obj/main/OPENDRONEBRH/stm32f30x_i2c.o (symbol from plugin)
I2C_ClockTimeoutCmd                               obj/main/OPENDRONEBRH/stm32f30x_i2c.o (symbol from plugin)
I2C_Cmd                                           obj/main/OPENDRONEBRH/stm32f30x_i2c.o (symbol from plugin)
                                                  obj/main/OPENDRONEBRH/drivers/bus_i2c_stm32f30x.o (symbol from plugin)
I2C_DMACmd                                        obj/main/OPENDRONEBRH/stm32f30x_i2c.o (symbol from plugin)
I2C_DeInit                                        obj/main/OPENDRONEBRH/stm32f30x_i2c.o (symbol from plugin)
I2C_DualAddressCmd                                obj/main/OPENDRONEBRH/stm32f30x_i2c.o (symbol from plugin)
I2C_ExtendedClockTimeoutCmd                       obj/main/OPENDRONEBRH/stm32f30x_i2c.o (symbol from plugin)
I2C_GeneralCallCmd                                obj/main/OPENDRONEBRH/stm32f30x_i2c.o (symbol from plugin)
I2C_GenerateSTART                                 obj/main/OPENDRONEBRH/stm32f30x_i2c.o (symbol from plugin)
I2C_GenerateSTOP                                  obj/main/OPENDRONEBRH/stm32f30x_i2c.o (symbol from plugin)
I2C_GetAddressMatched                             obj/main/OPENDRONEBRH/stm32f30x_i2c.o (symbol from plugin)
I2C_GetFlagStatus                                 obj/main/OPENDRONEBRH/stm32f30x_i2c.o (symbol from plugin)
                                                  obj/main/OPENDRONEBRH/drivers/bus_i2c_stm32f30x.o (symbol from plugin)
I2C_GetITStatus                                   obj/main/OPENDRONEBRH/stm32f30x_i2c.o (symbol from plugin)
I2C_GetPEC                                        obj/main/OPENDRONEBRH/stm32f30x_i2c.o (symbol from plugin)
I2C_GetTransferDirection                          obj/main/OPENDRONEBRH/stm32f30x_i2c.o (symbol from plugin)
I2C_ITConfig                                      obj/main/OPENDRONEBRH/stm32f30x_i2c.o (symbol from plugin)
I2C_IdleClockTimeoutCmd                           obj/main/OPENDRONEBRH/stm32f30x_i2c.o (symbol from plugin)
I2C_Init                                          obj/main/OPENDRONEBRH/stm32f30x_i2c.o (symbol from plugin)
                                                  obj/main/OPENDRONEBRH/drivers/bus_i2c_stm32f30x.o (symbol from plugin)
I2C_MasterRequestConfig                           obj/main/OPENDRONEBRH/stm32f30x_i2c.o (symbol from plugin)
I2C_NumberOfBytesConfig                           obj/main/OPENDRONEBRH/stm32f30x_i2c.o (symbol from plugin)
I2C_OwnAddress2Config                             obj/main/OPENDRONEBRH/stm32f30x_i2c.o (symbol from plugin)
I2C_PECRequestCmd                                 obj/main/OPENDRONEBRH/stm32f30x_i2c.o (symbol from plugin)
I2C_ReadRegister                                  obj/main/OPENDRONEBRH/stm32f30x_i2c.o (symbol from plugin)
I2C_ReceiveData                                   obj/main/OPENDRONEBRH/stm32f30x_i2c.o (symbol from plugin)
                                                  obj/main/OPENDRONEBRH/drivers/bus_i2c_stm32f30x.o (symbol from plugin)
I2C_ReloadCmd                                     obj/main/OPENDRONEBRH/stm32f30x_i2c.o (symbol from plugin)
I2C_SMBusAlertCmd                                 obj/main/OPENDRONEBRH/stm32f30x_i2c.o (symbol from plugin)
I2C_SendData                                      obj/main/OPENDRONEBRH/stm32f30x_i2c.o (symbol from plugin)
                                                  obj/main/OPENDRONEBRH/drivers/bus_i2c_stm32f30x.o (symbol from plugin)
I2C_SlaveAddressConfig                            obj/main/OPENDRONEBRH/stm32f30x_i2c.o (symbol from plugin)
I2C_SlaveByteControlCmd                           obj/main/OPENDRONEBRH/stm32f30x_i2c.o (symbol from plugin)
I2C_SoftwareResetCmd                              obj/main/OPENDRONEBRH/stm32f30x_i2c.o (symbol from plugin)
I2C_StopModeCmd                                   obj/main/OPENDRONEBRH/stm32f30x_i2c.o (symbol from plugin)
I2C_StretchClockCmd                               obj/main/OPENDRONEBRH/stm32f30x_i2c.o (symbol from plugin)
                                                  obj/main/OPENDRONEBRH/drivers/bus_i2c_stm32f30x.o (symbol from plugin)
I2C_StructInit                                    obj/main/OPENDRONEBRH/stm32f30x_i2c.o (symbol from plugin)
I2C_TimeoutAConfig                                obj/main/OPENDRONEBRH/stm32f30x_i2c.o (symbol from plugin)
I2C_TimeoutBConfig                                obj/main/OPENDRONEBRH/stm32f30x_i2c.o (symbol from plugin)
I2C_TransferHandling                              obj/main/OPENDRONEBRH/stm32f30x_i2c.o (symbol from plugin)
                                                  obj/main/OPENDRONEBRH/drivers/bus_i2c_stm32f30x.o (symbol from plugin)
I2S_Cmd                                           obj/main/OPENDRONEBRH/stm32f30x_spi.o (symbol from plugin)
I2S_FullDuplexConfig                              obj/main/OPENDRONEBRH/stm32f30x_spi.o (symbol from plugin)
I2S_Init                                          obj/main/OPENDRONEBRH/stm32f30x_spi.o (symbol from plugin)
I2S_StructInit                                    obj/main/OPENDRONEBRH/stm32f30x_spi.o (symbol from plugin)
IOConfigGPIO                                      /tmp/ccjoD88l.ltrans1.ltrans.o
                                                  obj/main/OPENDRONEBRH/drivers/io.o (symbol from plugin)
                                                  /tmp/ccjoD88l.ltrans3.ltrans.o
                                                  obj/main/OPENDRONEBRH/drivers/usb_io.o (symbol from plugin)
                                                  obj/main/OPENDRONEBRH/rx/spektrum.o (symbol from plugin)
                                                  obj/main/OPENDRONEBRH/drivers/timer.o (symbol from plugin)
                                                  obj/main/OPENDRONEBRH/drivers/sound_beeper.o (symbol from plugin)
                                                  obj/main/OPENDRONEBRH/drivers/rx_pwm.o (symbol from plugin)
                                                  obj/main/OPENDRONEBRH/drivers/pwm_output.o (symbol from plugin)
                                                  obj/main/OPENDRONEBRH/drivers/light_led.o (symbol from plugin)
                                                  obj/main/OPENDRONEBRH/drivers/bus.o (symbol from plugin)
                                                  obj/main/OPENDRONEBRH/drivers/serial_softserial.o (symbol from plugin)
                                                  obj/main/OPENDRONEBRH/drivers/adc_stm32f30x.o (symbol from plugin)
                                                  obj/main/OPENDRONEBRH/drivers/accgyro/accgyro.o (symbol from plugin)
IOConfigGPIOAF                                    /tmp/ccjoD88l.ltrans1.ltrans.o
                                                  obj/main/OPENDRONEBRH/drivers/io.o (symbol from plugin)
                                                  /tmp/ccjoD88l.ltrans4.ltrans.o
                                                  /tmp/ccjoD88l.ltrans3.ltrans.o
                                                  obj/main/OPENDRONEBRH/drivers/timer.o (symbol from plugin)
                                                  obj/main/OPENDRONEBRH/drivers/pwm_output.o (symbol from plugin)
                                                  obj/main/OPENDRONEBRH/drivers/bus_spi.o (symbol from plugin)
                                                  obj/main/OPENDRONEBRH/drivers/serial_softserial.o (symbol from plugin)
                                                  obj/main/OPENDRONEBRH/drivers/serial_uart_stm32f30x.o (symbol from plugin)
                                                  obj/main/OPENDRONEBRH/drivers/bus_i2c_stm32f30x.o (symbol from plugin)
IOGetByTag                                        /tmp/ccjoD88l.ltrans1.ltrans.o
                                                  obj/main/OPENDRONEBRH/drivers/io.o (symbol from plugin)
                                                  /tmp/ccjoD88l.ltrans3.ltrans.o
                                                  obj/main/OPENDRONEBRH/drivers/usb_io.o (symbol from plugin)
                                                  obj/main/OPENDRONEBRH/rx/spektrum.o (symbol from plugin)
                                                  obj/main/OPENDRONEBRH/drivers/timer.o (symbol from plugin)
                                                  obj/main/OPENDRONEBRH/drivers/sound_beeper.o (symbol from plugin)
                                                  obj/main/OPENDRONEBRH/drivers/rx_pwm.o (symbol from plugin)
                                                  obj/main/OPENDRONEBRH/drivers/pwm_output.o (symbol from plugin)
                                                  obj/main/OPENDRONEBRH/drivers/pwm_mapping.o (symbol from plugin)
                                                  obj/main/OPENDRONEBRH/drivers/bus_spi.o (symbol from plugin)
                                                  obj/main/OPENDRONEBRH/drivers/bus.o (symbol from plugin)
                                                  obj/main/OPENDRONEBRH/drivers/serial_softserial.o (symbol from plugin)
                                                  obj/main/OPENDRONEBRH/drivers/serial_uart_stm32f30x.o (symbol from plugin)
                                                  obj/main/OPENDRONEBRH/drivers/bus_i2c_stm32f30x.o (symbol from plugin)
                                                  obj/main/OPENDRONEBRH/drivers/adc_stm32f30x.o (symbol from plugin)
IOGetOwner                                        obj/main/OPENDRONEBRH/drivers/io.o (symbol from plugin)
IOGetResource                                     obj/main/OPENDRONEBRH/drivers/io.o (symbol from plugin)
IOHi                                              /tmp/ccjoD88l.ltrans1.ltrans.o
                                                  obj/main/OPENDRONEBRH/drivers/io.o (symbol from plugin)
                                                  /tmp/ccjoD88l.ltrans3.ltrans.o
                                                  obj/main/OPENDRONEBRH/drivers/usb_io.o (symbol from plugin)
                                                  obj/main/OPENDRONEBRH/drivers/bus_spi.o (symbol from plugin)
                                                  obj/main/OPENDRONEBRH/drivers/bus_busdev_spi.o (symbol from plugin)
                                                  obj/main/OPENDRONEBRH/drivers/bus.o (symbol from plugin)
                                                  obj/main/OPENDRONEBRH/drivers/serial_softserial.o (symbol from plugin)
IOInit                                            obj/main/OPENDRONEBRH/drivers/io.o (symbol from plugin)
                                                  obj/main/OPENDRONEBRH/rx/spektrum.o (symbol from plugin)
                                                  obj/main/OPENDRONEBRH/drivers/timer.o (symbol from plugin)
                                                  obj/main/OPENDRONEBRH/drivers/sound_beeper.o (symbol from plugin)
                                                  obj/main/OPENDRONEBRH/drivers/rx_pwm.o (symbol from plugin)
                                                  obj/main/OPENDRONEBRH/drivers/pwm_output.o (symbol from plugin)
                                                  obj/main/OPENDRONEBRH/drivers/light_led.o (symbol from plugin)
                                                  obj/main/OPENDRONEBRH/drivers/bus_spi.o (symbol from plugin)
                                                  obj/main/OPENDRONEBRH/drivers/bus.o (symbol from plugin)
                                                  obj/main/OPENDRONEBRH/drivers/serial_softserial.o (symbol from plugin)
                                                  obj/main/OPENDRONEBRH/drivers/serial_uart_stm32f30x.o (symbol from plugin)
                                                  obj/main/OPENDRONEBRH/drivers/bus_i2c_stm32f30x.o (symbol from plugin)
                                                  obj/main/OPENDRONEBRH/drivers/adc_stm32f30x.o (symbol from plugin)
                                                  obj/main/OPENDRONEBRH/drivers/accgyro/accgyro.o (symbol from plugin)
IOInitGlobal                                      obj/main/OPENDRONEBRH/drivers/io.o (symbol from plugin)
                                                  obj/main/OPENDRONEBRH/fc/fc_init.o (symbol from plugin)
IOLo                                              /tmp/ccjoD88l.ltrans1.ltrans.o
                                                  obj/main/OPENDRONEBRH/drivers/io.o (symbol from plugin)
                                                  /tmp/ccjoD88l.ltrans4.ltrans.o
                                                  /tmp/ccjoD88l.ltrans3.ltrans.o
                                                  obj/main/OPENDRONEBRH/drivers/usb_io.o (symbol from plugin)
                                                  obj/main/OPENDRONEBRH/drivers/pwm_output.o (symbol from plugin)
                                                  obj/main/OPENDRONEBRH/drivers/bus_busdev_spi.o (symbol from plugin)
                                                  obj/main/OPENDRONEBRH/drivers/serial_softserial.o (symbol from plugin)
                                                  obj/main/OPENDRONEBRH/drivers/serial_uart_stm32f30x.o (symbol from plugin)
IORead                                            obj/main/OPENDRONEBRH/drivers/io.o (symbol from plugin)
                                                  obj/main/OPENDRONEBRH/drivers/accgyro/accgyro.o (symbol from plugin)
IORelease                                         obj/main/OPENDRONEBRH/drivers/io.o (symbol from plugin)
IOToggle                                          obj/main/OPENDRONEBRH/drivers/io.o (symbol from plugin)
                                                  obj/main/OPENDRONEBRH/drivers/light_led.o (symbol from plugin)
IOWrite                                           /tmp/ccjoD88l.ltrans1.ltrans.o
                                                  obj/main/OPENDRONEBRH/drivers/io.o (symbol from plugin)
                                                  /tmp/ccjoD88l.ltrans4.ltrans.o
                                                  obj/main/OPENDRONEBRH/rx/spektrum.o (symbol from plugin)
                                                  obj/main/OPENDRONEBRH/drivers/sound_beeper.o (symbol from plugin)
                                                  obj/main/OPENDRONEBRH/drivers/light_led.o (symbol from plugin)
IO_EXTI_Line                                      obj/main/OPENDRONEBRH/drivers/io.o (symbol from plugin)
                                                  obj/main/OPENDRONEBRH/drivers/exti.o (symbol from plugin)
IO_EXTI_PinSource                                 obj/main/OPENDRONEBRH/drivers/io.o (symbol from plugin)
                                                  obj/main/OPENDRONEBRH/drivers/exti.o (symbol from plugin)
IO_EXTI_PortSourceGPIO                            obj/main/OPENDRONEBRH/drivers/io.o (symbol from plugin)
                                                  obj/main/OPENDRONEBRH/drivers/exti.o (symbol from plugin)
IO_GPIO                                           obj/main/OPENDRONEBRH/drivers/io.o (symbol from plugin)
                                                  obj/main/OPENDRONEBRH/drivers/pwm_mapping.o (symbol from plugin)
IO_GPIOPinIdx                                     /tmp/ccjoD88l.ltrans1.ltrans.o
                                                  obj/main/OPENDRONEBRH/drivers/io.o (symbol from plugin)
                                                  /tmp/ccjoD88l.ltrans3.ltrans.o
                                                  /tmp/ccjoD88l.ltrans0.ltrans.o
                                                  obj/main/OPENDRONEBRH/fc/cli.o (symbol from plugin)
                                                  obj/main/OPENDRONEBRH/drivers/exti.o (symbol from plugin)
IO_GPIOPortIdx                                    /tmp/ccjoD88l.ltrans1.ltrans.o
                                                  obj/main/OPENDRONEBRH/drivers/io.o (symbol from plugin)
                                                  /tmp/ccjoD88l.ltrans3.ltrans.o
                                                  /tmp/ccjoD88l.ltrans0.ltrans.o
                                                  obj/main/OPENDRONEBRH/fc/cli.o (symbol from plugin)
IO_GPIO_PinSource                                 obj/main/OPENDRONEBRH/drivers/io.o (symbol from plugin)
                                                  obj/main/OPENDRONEBRH/drivers/pwm_mapping.o (symbol from plugin)
IO_GPIO_PortSource                                obj/main/OPENDRONEBRH/drivers/io.o (symbol from plugin)
IO_Pin                                            obj/main/OPENDRONEBRH/drivers/io.o (symbol from plugin)
                                                  obj/main/OPENDRONEBRH/drivers/pwm_mapping.o (symbol from plugin)
IO_Rec                                            obj/main/OPENDRONEBRH/drivers/io.o (symbol from plugin)
IS_RC_MODE_ACTIVE                                 /tmp/ccjoD88l.ltrans5.ltrans.o
                                                  obj/main/OPENDRONEBRH/fc/rc_modes.o (symbol from plugin)
                                                  /tmp/ccjoD88l.ltrans4.ltrans.o
                                                  /tmp/ccjoD88l.ltrans3.ltrans.o
                                                  /tmp/ccjoD88l.ltrans1.ltrans.o
                                                  /tmp/ccjoD88l.ltrans0.ltrans.o
                                                  obj/main/OPENDRONEBRH/io/rcdevice_cam.o (symbol from plugin)
                                                  obj/main/OPENDRONEBRH/io/beeper.o (symbol from plugin)
                                                  obj/main/OPENDRONEBRH/flight/servos.o (symbol from plugin)
                                                  obj/main/OPENDRONEBRH/flight/pid_autotune.o (symbol from plugin)
                                                  obj/main/OPENDRONEBRH/flight/failsafe.o (symbol from plugin)
                                                  obj/main/OPENDRONEBRH/fc/rc_controls.o (symbol from plugin)
                                                  obj/main/OPENDRONEBRH/fc/fc_msp_box.o (symbol from plugin)
                                                  obj/main/OPENDRONEBRH/fc/fc_core.o (symbol from plugin)
                                                  obj/main/OPENDRONEBRH/telemetry/telemetry.o (symbol from plugin)
                                                  obj/main/OPENDRONEBRH/telemetry/smartport.o (symbol from plugin)
                                                  obj/main/OPENDRONEBRH/navigation/navigation.o (symbol from plugin)
IWDG_Enable                                       obj/main/OPENDRONEBRH/stm32f30x_iwdg.o (symbol from plugin)
IWDG_GetFlagStatus                                obj/main/OPENDRONEBRH/stm32f30x_iwdg.o (symbol from plugin)
IWDG_ReloadCounter                                obj/main/OPENDRONEBRH/stm32f30x_iwdg.o (symbol from plugin)
IWDG_SetPrescaler                                 obj/main/OPENDRONEBRH/stm32f30x_iwdg.o (symbol from plugin)
IWDG_SetReload                                    obj/main/OPENDRONEBRH/stm32f30x_iwdg.o (symbol from plugin)
IWDG_SetWindowValue                               obj/main/OPENDRONEBRH/stm32f30x_iwdg.o (symbol from plugin)
IWDG_WriteAccessCmd                               obj/main/OPENDRONEBRH/stm32f30x_iwdg.o (symbol from plugin)
In0_Process                                       obj/main/OPENDRONEBRH/usb_core.o (symbol from plugin)
                                                  obj/main/OPENDRONEBRH/usb_int.o (symbol from plugin)
Leave_LowPowerMode                                obj/main/OPENDRONEBRH/vcp/hw_config.o (symbol from plugin)
                                                  obj/main/OPENDRONEBRH/vcp/usb_pwr.o (symbol from plugin)
MemManage_Handler                                 /tmp/ccjoD88l.ltrans4.ltrans.o
                                                  obj/main/OPENDRONEBRH/vcp/stm32_it.o (symbol from plugin)
                                                  obj/main/OPENDRONEBRH/startup_stm32f30x_md_gcc.o
NAV_Status                                        /tmp/ccjoD88l.ltrans2.ltrans.o
                                                  obj/main/OPENDRONEBRH/navigation/navigation.o (symbol from plugin)
                                                  /tmp/ccjoD88l.ltrans3.ltrans.o
                                                  obj/main/OPENDRONEBRH/fc/fc_msp.o (symbol from plugin)
NMI_Handler                                       /tmp/ccjoD88l.ltrans4.ltrans.o
                                                  obj/main/OPENDRONEBRH/vcp/stm32_it.o (symbol from plugin)
                                                  obj/main/OPENDRONEBRH/startup_stm32f30x_md_gcc.o
NOP_Process                                       /tmp/ccjoD88l.ltrans4.ltrans.o
                                                  obj/main/OPENDRONEBRH/usb_core.o (symbol from plugin)
                                                  /tmp/ccjoD88l.ltrans1.ltrans.o
                                                  obj/main/OPENDRONEBRH/vcp/usb_prop.o (symbol from plugin)
                                                  obj/main/OPENDRONEBRH/vcp/usb_istr.o (symbol from plugin)
NRF24L01_WritePayload                             obj/main/OPENDRONEBRH/drivers/rx_xn297.o (symbol from plugin)
NVIC_Init                                         obj/main/OPENDRONEBRH/stm32f30x_misc.o (symbol from plugin)
                                                  obj/main/OPENDRONEBRH/vcp/hw_config.o (symbol from plugin)
                                                  obj/main/OPENDRONEBRH/drivers/timer.o (symbol from plugin)
                                                  obj/main/OPENDRONEBRH/drivers/exti.o (symbol from plugin)
                                                  obj/main/OPENDRONEBRH/drivers/serial_uart_stm32f30x.o (symbol from plugin)
                                                  obj/main/OPENDRONEBRH/drivers/dma.o (symbol from plugin)
NVIC_Init.part.0.constprop.204                    /tmp/ccjoD88l.ltrans4.ltrans.o
                                                  /tmp/ccjoD88l.ltrans3.ltrans.o
                                                  /tmp/ccjoD88l.ltrans1.ltrans.o
                                                  /tmp/ccjoD88l.ltrans0.ltrans.o
NVIC_PriorityGroupConfig                          obj/main/OPENDRONEBRH/stm32f30x_misc.o (symbol from plugin)
                                                  obj/main/OPENDRONEBRH/vcp/hw_config.o (symbol from plugin)
                                                  obj/main/OPENDRONEBRH/drivers/system_stm32f30x.o (symbol from plugin)
NVIC_SetVectorTable                               obj/main/OPENDRONEBRH/stm32f30x_misc.o (symbol from plugin)
NVIC_SystemLPConfig                               obj/main/OPENDRONEBRH/stm32f30x_misc.o (symbol from plugin)
OPAMP_Cmd                                         obj/main/OPENDRONEBRH/stm32f30x_opamp.o (symbol from plugin)
OPAMP_DeInit                                      obj/main/OPENDRONEBRH/stm32f30x_opamp.o (symbol from plugin)
OPAMP_GetOutputLevel                              obj/main/OPENDRONEBRH/stm32f30x_opamp.o (symbol from plugin)
OPAMP_Init                                        obj/main/OPENDRONEBRH/stm32f30x_opamp.o (symbol from plugin)
OPAMP_LockConfig                                  obj/main/OPENDRONEBRH/stm32f30x_opamp.o (symbol from plugin)
OPAMP_OffsetTrimConfig                            obj/main/OPENDRONEBRH/stm32f30x_opamp.o (symbol from plugin)
OPAMP_OffsetTrimModeSelect                        obj/main/OPENDRONEBRH/stm32f30x_opamp.o (symbol from plugin)
OPAMP_PGAConfig                                   obj/main/OPENDRONEBRH/stm32f30x_opamp.o (symbol from plugin)
OPAMP_StartCalibration                            obj/main/OPENDRONEBRH/stm32f30x_opamp.o (symbol from plugin)
OPAMP_StructInit                                  obj/main/OPENDRONEBRH/stm32f30x_opamp.o (symbol from plugin)
OPAMP_TimerControlledMuxCmd                       obj/main/OPENDRONEBRH/stm32f30x_opamp.o (symbol from plugin)
OPAMP_TimerControlledMuxConfig                    obj/main/OPENDRONEBRH/stm32f30x_opamp.o (symbol from plugin)
OPAMP_VrefConfig                                  obj/main/OPENDRONEBRH/stm32f30x_opamp.o (symbol from plugin)
OPAMP_VrefConnectADCCmd                           obj/main/OPENDRONEBRH/stm32f30x_opamp.o (symbol from plugin)
OPAMP_VrefConnectNonInvertingInput                obj/main/OPENDRONEBRH/stm32f30x_opamp.o (symbol from plugin)
Out0_Process                                      obj/main/OPENDRONEBRH/usb_core.o (symbol from plugin)
                                                  obj/main/OPENDRONEBRH/usb_int.o (symbol from plugin)
PMAToUserBufferCopy                               obj/main/OPENDRONEBRH/usb_mem.o (symbol from plugin)
                                                  obj/main/OPENDRONEBRH/vcp/usb_endp.o (symbol from plugin)
                                                  obj/main/OPENDRONEBRH/usb_core.o (symbol from plugin)
                                                  obj/main/OPENDRONEBRH/usb_sil.o (symbol from plugin)
PVD_IRQHandler                                    obj/main/OPENDRONEBRH/startup_stm32f30x_md_gcc.o
PWR_BackupAccessCmd                               obj/main/OPENDRONEBRH/stm32f30x_pwr.o (symbol from plugin)
PWR_ClearFlag                                     obj/main/OPENDRONEBRH/stm32f30x_pwr.o (symbol from plugin)
PWR_DeInit                                        obj/main/OPENDRONEBRH/stm32f30x_pwr.o (symbol from plugin)
PWR_EnterSTANDBYMode                              obj/main/OPENDRONEBRH/stm32f30x_pwr.o (symbol from plugin)
PWR_EnterSTOPMode                                 obj/main/OPENDRONEBRH/stm32f30x_pwr.o (symbol from plugin)
PWR_EnterSleepMode                                obj/main/OPENDRONEBRH/stm32f30x_pwr.o (symbol from plugin)
PWR_GetFlagStatus                                 obj/main/OPENDRONEBRH/stm32f30x_pwr.o (symbol from plugin)
PWR_PVDCmd                                        obj/main/OPENDRONEBRH/stm32f30x_pwr.o (symbol from plugin)
PWR_PVDLevelConfig                                obj/main/OPENDRONEBRH/stm32f30x_pwr.o (symbol from plugin)
PWR_WakeUpPinCmd                                  obj/main/OPENDRONEBRH/stm32f30x_pwr.o (symbol from plugin)
PendSV_Handler                                    /tmp/ccjoD88l.ltrans4.ltrans.o
                                                  obj/main/OPENDRONEBRH/vcp/stm32_it.o (symbol from plugin)
                                                  obj/main/OPENDRONEBRH/startup_stm32f30x_md_gcc.o
Post0_Process                                     obj/main/OPENDRONEBRH/usb_core.o (symbol from plugin)
PowerOff                                          obj/main/OPENDRONEBRH/vcp/usb_pwr.o (symbol from plugin)
PowerOn                                           obj/main/OPENDRONEBRH/vcp/usb_pwr.o (symbol from plugin)
                                                  obj/main/OPENDRONEBRH/vcp/usb_prop.o (symbol from plugin)
RCC_ADCCLKConfig                                  obj/main/OPENDRONEBRH/stm32f30x_rcc.o (symbol from plugin)
                                                  obj/main/OPENDRONEBRH/drivers/adc_stm32f30x.o (symbol from plugin)
RCC_AHBPeriphClockCmd                             obj/main/OPENDRONEBRH/stm32f30x_rcc.o (symbol from plugin)
                                                  obj/main/OPENDRONEBRH/vcp/hw_config.o (symbol from plugin)
                                                  obj/main/OPENDRONEBRH/drivers/rcc.o (symbol from plugin)
                                                  obj/main/OPENDRONEBRH/drivers/system_stm32f30x.o (symbol from plugin)
                                                  obj/main/OPENDRONEBRH/drivers/dma.o (symbol from plugin)
RCC_AHBPeriphResetCmd                             obj/main/OPENDRONEBRH/stm32f30x_rcc.o (symbol from plugin)
                                                  obj/main/OPENDRONEBRH/stm32f30x_adc.o (symbol from plugin)
                                                  obj/main/OPENDRONEBRH/stm32f30x_gpio.o (symbol from plugin)
                                                  obj/main/OPENDRONEBRH/drivers/rcc.o (symbol from plugin)
RCC_APB1PeriphClockCmd                            obj/main/OPENDRONEBRH/stm32f30x_rcc.o (symbol from plugin)
                                                  obj/main/OPENDRONEBRH/vcp/hw_config.o (symbol from plugin)
                                                  obj/main/OPENDRONEBRH/drivers/rcc.o (symbol from plugin)
RCC_APB1PeriphResetCmd                            obj/main/OPENDRONEBRH/stm32f30x_rcc.o (symbol from plugin)
                                                  obj/main/OPENDRONEBRH/stm32f30x_spi.o (symbol from plugin)
                                                  obj/main/OPENDRONEBRH/stm32f30x_wwdg.o (symbol from plugin)
                                                  obj/main/OPENDRONEBRH/stm32f30x_tim.o (symbol from plugin)
                                                  obj/main/OPENDRONEBRH/stm32f30x_dac.o (symbol from plugin)
                                                  obj/main/OPENDRONEBRH/stm32f30x_usart.o (symbol from plugin)
                                                  obj/main/OPENDRONEBRH/stm32f30x_i2c.o (symbol from plugin)
                                                  obj/main/OPENDRONEBRH/stm32f30x_pwr.o (symbol from plugin)
                                                  obj/main/OPENDRONEBRH/drivers/rcc.o (symbol from plugin)
RCC_APB2PeriphClockCmd                            obj/main/OPENDRONEBRH/stm32f30x_rcc.o (symbol from plugin)
                                                  obj/main/OPENDRONEBRH/vcp/hw_config.o (symbol from plugin)
                                                  obj/main/OPENDRONEBRH/drivers/rcc.o (symbol from plugin)
                                                  obj/main/OPENDRONEBRH/drivers/exti.o (symbol from plugin)
RCC_APB2PeriphResetCmd                            obj/main/OPENDRONEBRH/stm32f30x_rcc.o (symbol from plugin)
                                                  obj/main/OPENDRONEBRH/stm32f30x_spi.o (symbol from plugin)
                                                  obj/main/OPENDRONEBRH/stm32f30x_tim.o (symbol from plugin)
                                                  obj/main/OPENDRONEBRH/stm32f30x_usart.o (symbol from plugin)
                                                  obj/main/OPENDRONEBRH/stm32f30x_hrtim.o (symbol from plugin)
                                                  obj/main/OPENDRONEBRH/drivers/rcc.o (symbol from plugin)
RCC_AdjustHSICalibrationValue                     obj/main/OPENDRONEBRH/stm32f30x_rcc.o (symbol from plugin)
RCC_BackupResetCmd                                obj/main/OPENDRONEBRH/stm32f30x_rcc.o (symbol from plugin)
RCC_ClearFlag                                     obj/main/OPENDRONEBRH/stm32f30x_rcc.o (symbol from plugin)
                                                  obj/main/OPENDRONEBRH/drivers/system_stm32f30x.o (symbol from plugin)
RCC_ClearITPendingBit                             obj/main/OPENDRONEBRH/stm32f30x_rcc.o (symbol from plugin)
RCC_ClockCmd                                      obj/main/OPENDRONEBRH/drivers/rcc.o (symbol from plugin)
                                                  obj/main/OPENDRONEBRH/drivers/timer.o (symbol from plugin)
                                                  obj/main/OPENDRONEBRH/drivers/io.o (symbol from plugin)
                                                  obj/main/OPENDRONEBRH/drivers/bus_spi.o (symbol from plugin)
                                                  obj/main/OPENDRONEBRH/drivers/serial_uart_stm32f30x.o (symbol from plugin)
                                                  obj/main/OPENDRONEBRH/drivers/bus_i2c_stm32f30x.o (symbol from plugin)
                                                  obj/main/OPENDRONEBRH/drivers/adc_stm32f30x.o (symbol from plugin)
RCC_ClockCmd.constprop.205                        /tmp/ccjoD88l.ltrans4.ltrans.o
                                                  /tmp/ccjoD88l.ltrans1.ltrans.o
RCC_ClockSecuritySystemCmd                        obj/main/OPENDRONEBRH/stm32f30x_rcc.o (symbol from plugin)
RCC_DeInit                                        obj/main/OPENDRONEBRH/stm32f30x_rcc.o (symbol from plugin)
RCC_GetClocksFreq                                 /tmp/ccjoD88l.ltrans4.ltrans.o
                                                  obj/main/OPENDRONEBRH/stm32f30x_rcc.o (symbol from plugin)
                                                  /tmp/ccjoD88l.ltrans3.ltrans.o
                                                  /tmp/ccjoD88l.ltrans1.ltrans.o
                                                  /tmp/ccjoD88l.ltrans0.ltrans.o
                                                  obj/main/OPENDRONEBRH/vcp/hw_config.o (symbol from plugin)
                                                  obj/main/OPENDRONEBRH/stm32f30x_spi.o (symbol from plugin)
                                                  obj/main/OPENDRONEBRH/stm32f30x_usart.o (symbol from plugin)
                                                  obj/main/OPENDRONEBRH/fc/cli.o (symbol from plugin)
                                                  obj/main/OPENDRONEBRH/drivers/system.o (symbol from plugin)
                                                  obj/main/OPENDRONEBRH/drivers/system_stm32f30x.o (symbol from plugin)
RCC_GetFlagStatus                                 obj/main/OPENDRONEBRH/stm32f30x_rcc.o (symbol from plugin)
RCC_GetITStatus                                   obj/main/OPENDRONEBRH/stm32f30x_rcc.o (symbol from plugin)
RCC_GetSYSCLKSource                               obj/main/OPENDRONEBRH/stm32f30x_rcc.o (symbol from plugin)
RCC_HCLKConfig                                    obj/main/OPENDRONEBRH/stm32f30x_rcc.o (symbol from plugin)
RCC_HRTIM1CLKConfig                               obj/main/OPENDRONEBRH/stm32f30x_rcc.o (symbol from plugin)
RCC_HSEConfig                                     obj/main/OPENDRONEBRH/stm32f30x_rcc.o (symbol from plugin)
RCC_HSICmd                                        obj/main/OPENDRONEBRH/stm32f30x_rcc.o (symbol from plugin)
RCC_I2CCLKConfig                                  obj/main/OPENDRONEBRH/stm32f30x_rcc.o (symbol from plugin)
                                                  obj/main/OPENDRONEBRH/drivers/bus_i2c_stm32f30x.o (symbol from plugin)
RCC_I2SCLKConfig                                  obj/main/OPENDRONEBRH/stm32f30x_rcc.o (symbol from plugin)
RCC_IRQHandler                                    obj/main/OPENDRONEBRH/startup_stm32f30x_md_gcc.o
RCC_ITConfig                                      obj/main/OPENDRONEBRH/stm32f30x_rcc.o (symbol from plugin)
RCC_LSEConfig                                     obj/main/OPENDRONEBRH/stm32f30x_rcc.o (symbol from plugin)
RCC_LSEDriveConfig                                obj/main/OPENDRONEBRH/stm32f30x_rcc.o (symbol from plugin)
RCC_LSICmd                                        obj/main/OPENDRONEBRH/stm32f30x_rcc.o (symbol from plugin)
RCC_MCOConfig                                     obj/main/OPENDRONEBRH/stm32f30x_rcc.o (symbol from plugin)
RCC_PCLK1Config                                   obj/main/OPENDRONEBRH/stm32f30x_rcc.o (symbol from plugin)
RCC_PCLK2Config                                   obj/main/OPENDRONEBRH/stm32f30x_rcc.o (symbol from plugin)
RCC_PLLCmd                                        obj/main/OPENDRONEBRH/stm32f30x_rcc.o (symbol from plugin)
RCC_PLLConfig                                     obj/main/OPENDRONEBRH/stm32f30x_rcc.o (symbol from plugin)
RCC_PREDIV1Config                                 obj/main/OPENDRONEBRH/stm32f30x_rcc.o (symbol from plugin)
RCC_RTCCLKCmd                                     obj/main/OPENDRONEBRH/stm32f30x_rcc.o (symbol from plugin)
RCC_RTCCLKConfig                                  obj/main/OPENDRONEBRH/stm32f30x_rcc.o (symbol from plugin)
RCC_ResetCmd                                      obj/main/OPENDRONEBRH/drivers/rcc.o (symbol from plugin)
                                                  obj/main/OPENDRONEBRH/drivers/bus_spi.o (symbol from plugin)
RCC_SYSCLKConfig                                  obj/main/OPENDRONEBRH/stm32f30x_rcc.o (symbol from plugin)
RCC_TIMCLKConfig                                  obj/main/OPENDRONEBRH/stm32f30x_rcc.o (symbol from plugin)
RCC_USARTCLKConfig                                obj/main/OPENDRONEBRH/stm32f30x_rcc.o (symbol from plugin)
RCC_USBCLKConfig                                  obj/main/OPENDRONEBRH/stm32f30x_rcc.o (symbol from plugin)
                                                  obj/main/OPENDRONEBRH/vcp/hw_config.o (symbol from plugin)
RCC_WaitForHSEStartUp                             obj/main/OPENDRONEBRH/stm32f30x_rcc.o (symbol from plugin)
RTC_AlarmCmd                                      obj/main/OPENDRONEBRH/stm32f30x_rtc.o (symbol from plugin)
RTC_AlarmStructInit                               obj/main/OPENDRONEBRH/stm32f30x_rtc.o (symbol from plugin)
RTC_AlarmSubSecondConfig                          obj/main/OPENDRONEBRH/stm32f30x_rtc.o (symbol from plugin)
RTC_Alarm_IRQHandler                              obj/main/OPENDRONEBRH/startup_stm32f30x_md_gcc.o
RTC_BypassShadowCmd                               obj/main/OPENDRONEBRH/stm32f30x_rtc.o (symbol from plugin)
RTC_CalibOutputCmd                                obj/main/OPENDRONEBRH/stm32f30x_rtc.o (symbol from plugin)
RTC_CalibOutputConfig                             obj/main/OPENDRONEBRH/stm32f30x_rtc.o (symbol from plugin)
RTC_ClearFlag                                     obj/main/OPENDRONEBRH/stm32f30x_rtc.o (symbol from plugin)
RTC_ClearITPendingBit                             obj/main/OPENDRONEBRH/stm32f30x_rtc.o (symbol from plugin)
RTC_DateStructInit                                obj/main/OPENDRONEBRH/stm32f30x_rtc.o (symbol from plugin)
RTC_DayLightSavingConfig                          obj/main/OPENDRONEBRH/stm32f30x_rtc.o (symbol from plugin)
RTC_DeInit                                        obj/main/OPENDRONEBRH/stm32f30x_rtc.o (symbol from plugin)
RTC_EnterInitMode                                 obj/main/OPENDRONEBRH/stm32f30x_rtc.o (symbol from plugin)
RTC_ExitInitMode                                  obj/main/OPENDRONEBRH/stm32f30x_rtc.o (symbol from plugin)
RTC_GetAlarm                                      obj/main/OPENDRONEBRH/stm32f30x_rtc.o (symbol from plugin)
RTC_GetAlarmSubSecond                             obj/main/OPENDRONEBRH/stm32f30x_rtc.o (symbol from plugin)
RTC_GetDate                                       obj/main/OPENDRONEBRH/stm32f30x_rtc.o (symbol from plugin)
RTC_GetFlagStatus                                 obj/main/OPENDRONEBRH/stm32f30x_rtc.o (symbol from plugin)
RTC_GetITStatus                                   obj/main/OPENDRONEBRH/stm32f30x_rtc.o (symbol from plugin)
RTC_GetStoreOperation                             obj/main/OPENDRONEBRH/stm32f30x_rtc.o (symbol from plugin)
RTC_GetSubSecond                                  obj/main/OPENDRONEBRH/stm32f30x_rtc.o (symbol from plugin)
RTC_GetTime                                       obj/main/OPENDRONEBRH/stm32f30x_rtc.o (symbol from plugin)
RTC_GetTimeStamp                                  obj/main/OPENDRONEBRH/stm32f30x_rtc.o (symbol from plugin)
RTC_GetTimeStampSubSecond                         obj/main/OPENDRONEBRH/stm32f30x_rtc.o (symbol from plugin)
RTC_GetWakeUpCounter                              obj/main/OPENDRONEBRH/stm32f30x_rtc.o (symbol from plugin)
RTC_ITConfig                                      obj/main/OPENDRONEBRH/stm32f30x_rtc.o (symbol from plugin)
RTC_Init                                          obj/main/OPENDRONEBRH/stm32f30x_rtc.o (symbol from plugin)
RTC_OutputConfig                                  obj/main/OPENDRONEBRH/stm32f30x_rtc.o (symbol from plugin)
RTC_OutputTypeConfig                              obj/main/OPENDRONEBRH/stm32f30x_rtc.o (symbol from plugin)
RTC_ReadBackupRegister                            obj/main/OPENDRONEBRH/stm32f30x_rtc.o (symbol from plugin)
RTC_RefClockCmd                                   obj/main/OPENDRONEBRH/stm32f30x_rtc.o (symbol from plugin)
RTC_SetAlarm                                      obj/main/OPENDRONEBRH/stm32f30x_rtc.o (symbol from plugin)
RTC_SetDate                                       obj/main/OPENDRONEBRH/stm32f30x_rtc.o (symbol from plugin)
RTC_SetTime                                       obj/main/OPENDRONEBRH/stm32f30x_rtc.o (symbol from plugin)
RTC_SetWakeUpCounter                              obj/main/OPENDRONEBRH/stm32f30x_rtc.o (symbol from plugin)
RTC_SmoothCalibConfig                             obj/main/OPENDRONEBRH/stm32f30x_rtc.o (symbol from plugin)
RTC_StructInit                                    obj/main/OPENDRONEBRH/stm32f30x_rtc.o (symbol from plugin)
RTC_SynchroShiftConfig                            obj/main/OPENDRONEBRH/stm32f30x_rtc.o (symbol from plugin)
RTC_TamperCmd                                     obj/main/OPENDRONEBRH/stm32f30x_rtc.o (symbol from plugin)
RTC_TamperFilterConfig                            obj/main/OPENDRONEBRH/stm32f30x_rtc.o (symbol from plugin)
RTC_TamperPinsPrechargeDuration                   obj/main/OPENDRONEBRH/stm32f30x_rtc.o (symbol from plugin)
RTC_TamperPullUpCmd                               obj/main/OPENDRONEBRH/stm32f30x_rtc.o (symbol from plugin)
RTC_TamperSamplingFreqConfig                      obj/main/OPENDRONEBRH/stm32f30x_rtc.o (symbol from plugin)
RTC_TamperTriggerConfig                           obj/main/OPENDRONEBRH/stm32f30x_rtc.o (symbol from plugin)
RTC_TimeStampCmd                                  obj/main/OPENDRONEBRH/stm32f30x_rtc.o (symbol from plugin)
RTC_TimeStampOnTamperDetectionCmd                 obj/main/OPENDRONEBRH/stm32f30x_rtc.o (symbol from plugin)
RTC_TimeStructInit                                obj/main/OPENDRONEBRH/stm32f30x_rtc.o (symbol from plugin)
RTC_WKUP_IRQHandler                               obj/main/OPENDRONEBRH/startup_stm32f30x_md_gcc.o
RTC_WaitForSynchro                                obj/main/OPENDRONEBRH/stm32f30x_rtc.o (symbol from plugin)
RTC_WakeUpClockConfig                             obj/main/OPENDRONEBRH/stm32f30x_rtc.o (symbol from plugin)
RTC_WakeUpCmd                                     obj/main/OPENDRONEBRH/stm32f30x_rtc.o (symbol from plugin)
RTC_WriteBackupRegister                           obj/main/OPENDRONEBRH/stm32f30x_rtc.o (symbol from plugin)
RTC_WriteProtectionCmd                            obj/main/OPENDRONEBRH/stm32f30x_rtc.o (symbol from plugin)
Request                                           obj/main/OPENDRONEBRH/vcp/usb_prop.o (symbol from plugin)
Reset_Handler                                     obj/main/OPENDRONEBRH/startup_stm32f30x_md_gcc.o
Resume                                            obj/main/OPENDRONEBRH/vcp/usb_pwr.o (symbol from plugin)
                                                  obj/main/OPENDRONEBRH/vcp/usb_istr.o (symbol from plugin)
ResumeS                                           obj/main/OPENDRONEBRH/vcp/usb_pwr.o (symbol from plugin)
Resume_Init                                       obj/main/OPENDRONEBRH/vcp/usb_pwr.o (symbol from plugin)
SENSOR_ADDRESS_TYPE_LOOKUP.lto_priv.508           /tmp/ccjoD88l.ltrans1.ltrans.o
                                                  /tmp/ccjoD88l.ltrans3.ltrans.o
SPI1_IRQHandler                                   obj/main/OPENDRONEBRH/startup_stm32f30x_md_gcc.o
SPI2_IRQHandler                                   obj/main/OPENDRONEBRH/startup_stm32f30x_md_gcc.o
SPI3_IRQHandler                                   obj/main/OPENDRONEBRH/startup_stm32f30x_md_gcc.o
SPI_BiDirectionalLineConfig                       obj/main/OPENDRONEBRH/stm32f30x_spi.o (symbol from plugin)
SPI_CRCLengthConfig                               obj/main/OPENDRONEBRH/stm32f30x_spi.o (symbol from plugin)
SPI_CalculateCRC                                  obj/main/OPENDRONEBRH/stm32f30x_spi.o (symbol from plugin)
SPI_Cmd                                           obj/main/OPENDRONEBRH/stm32f30x_spi.o (symbol from plugin)
                                                  obj/main/OPENDRONEBRH/drivers/bus_spi.o (symbol from plugin)
SPI_DataSizeConfig                                obj/main/OPENDRONEBRH/stm32f30x_spi.o (symbol from plugin)
SPI_GetCRC                                        obj/main/OPENDRONEBRH/stm32f30x_spi.o (symbol from plugin)
SPI_GetCRCPolynomial                              obj/main/OPENDRONEBRH/stm32f30x_spi.o (symbol from plugin)
SPI_GetReceptionFIFOStatus                        obj/main/OPENDRONEBRH/stm32f30x_spi.o (symbol from plugin)
SPI_GetTransmissionFIFOStatus                     obj/main/OPENDRONEBRH/stm32f30x_spi.o (symbol from plugin)
                                                  obj/main/OPENDRONEBRH/drivers/bus_spi.o (symbol from plugin)
SPI_I2S_ClearFlag                                 obj/main/OPENDRONEBRH/stm32f30x_spi.o (symbol from plugin)
SPI_I2S_DMACmd                                    obj/main/OPENDRONEBRH/stm32f30x_spi.o (symbol from plugin)
SPI_I2S_DeInit                                    obj/main/OPENDRONEBRH/stm32f30x_spi.o (symbol from plugin)
                                                  obj/main/OPENDRONEBRH/drivers/bus_spi.o (symbol from plugin)
SPI_I2S_GetFlagStatus                             obj/main/OPENDRONEBRH/stm32f30x_spi.o (symbol from plugin)
                                                  obj/main/OPENDRONEBRH/drivers/bus_spi.o (symbol from plugin)
SPI_I2S_GetITStatus                               obj/main/OPENDRONEBRH/stm32f30x_spi.o (symbol from plugin)
SPI_I2S_ITConfig                                  obj/main/OPENDRONEBRH/stm32f30x_spi.o (symbol from plugin)
SPI_I2S_ReceiveData16                             obj/main/OPENDRONEBRH/stm32f30x_spi.o (symbol from plugin)
SPI_I2S_SendData16                                obj/main/OPENDRONEBRH/stm32f30x_spi.o (symbol from plugin)
SPI_Init                                          obj/main/OPENDRONEBRH/stm32f30x_spi.o (symbol from plugin)
                                                  obj/main/OPENDRONEBRH/drivers/bus_spi.o (symbol from plugin)
SPI_LastDMATransferCmd                            obj/main/OPENDRONEBRH/stm32f30x_spi.o (symbol from plugin)
SPI_NSSInternalSoftwareConfig                     obj/main/OPENDRONEBRH/stm32f30x_spi.o (symbol from plugin)
SPI_NSSPulseModeCmd                               obj/main/OPENDRONEBRH/stm32f30x_spi.o (symbol from plugin)
SPI_ReceiveData8                                  obj/main/OPENDRONEBRH/stm32f30x_spi.o (symbol from plugin)
                                                  obj/main/OPENDRONEBRH/drivers/bus_spi.o (symbol from plugin)
SPI_RxFIFOThresholdConfig                         obj/main/OPENDRONEBRH/stm32f30x_spi.o (symbol from plugin)
                                                  obj/main/OPENDRONEBRH/drivers/bus_spi.o (symbol from plugin)
SPI_SSOutputCmd                                   obj/main/OPENDRONEBRH/stm32f30x_spi.o (symbol from plugin)
SPI_SendData8                                     obj/main/OPENDRONEBRH/stm32f30x_spi.o (symbol from plugin)
                                                  obj/main/OPENDRONEBRH/drivers/bus_spi.o (symbol from plugin)
SPI_StructInit                                    obj/main/OPENDRONEBRH/stm32f30x_spi.o (symbol from plugin)
SPI_TIModeCmd                                     obj/main/OPENDRONEBRH/stm32f30x_spi.o (symbol from plugin)
SPI_TransmitCRC                                   obj/main/OPENDRONEBRH/stm32f30x_spi.o (symbol from plugin)
SVC_Handler                                       /tmp/ccjoD88l.ltrans4.ltrans.o
                                                  obj/main/OPENDRONEBRH/vcp/stm32_it.o (symbol from plugin)
                                                  obj/main/OPENDRONEBRH/startup_stm32f30x_md_gcc.o
SYSCFG_BreakConfig                                obj/main/OPENDRONEBRH/stm32f30x_syscfg.o (symbol from plugin)
SYSCFG_BypassParityCheckDisable                   obj/main/OPENDRONEBRH/stm32f30x_syscfg.o (symbol from plugin)
SYSCFG_ClearFlag                                  obj/main/OPENDRONEBRH/stm32f30x_syscfg.o (symbol from plugin)
SYSCFG_DMAChannelRemapConfig                      obj/main/OPENDRONEBRH/stm32f30x_syscfg.o (symbol from plugin)
SYSCFG_DeInit                                     obj/main/OPENDRONEBRH/stm32f30x_syscfg.o (symbol from plugin)
SYSCFG_EXTILineConfig                             obj/main/OPENDRONEBRH/stm32f30x_syscfg.o (symbol from plugin)
                                                  obj/main/OPENDRONEBRH/drivers/exti.o (symbol from plugin)
                                                  obj/main/OPENDRONEBRH/drivers/gpio_stm32f30x.o (symbol from plugin)
SYSCFG_EncoderRemapConfig                         obj/main/OPENDRONEBRH/stm32f30x_syscfg.o (symbol from plugin)
SYSCFG_GetFlagStatus                              obj/main/OPENDRONEBRH/stm32f30x_syscfg.o (symbol from plugin)
SYSCFG_I2CFastModePlusConfig                      obj/main/OPENDRONEBRH/stm32f30x_syscfg.o (symbol from plugin)
SYSCFG_ITConfig                                   obj/main/OPENDRONEBRH/stm32f30x_syscfg.o (symbol from plugin)
SYSCFG_MemoryRemapConfig                          obj/main/OPENDRONEBRH/stm32f30x_syscfg.o (symbol from plugin)
SYSCFG_SRAMWRPEnable                              obj/main/OPENDRONEBRH/stm32f30x_syscfg.o (symbol from plugin)
SYSCFG_TriggerRemapConfig                         obj/main/OPENDRONEBRH/stm32f30x_syscfg.o (symbol from plugin)
SYSCFG_USBInterruptLineRemapCmd                   obj/main/OPENDRONEBRH/stm32f30x_syscfg.o (symbol from plugin)
SaveRState                                        obj/main/OPENDRONEBRH/usb_int.o (symbol from plugin)
                                                  obj/main/OPENDRONEBRH/usb_core.o (symbol from plugin)
SaveState                                         obj/main/OPENDRONEBRH/usb_init.o (symbol from plugin)
SaveTState                                        obj/main/OPENDRONEBRH/usb_int.o (symbol from plugin)
                                                  obj/main/OPENDRONEBRH/usb_core.o (symbol from plugin)
SetBTABLE                                         obj/main/OPENDRONEBRH/usb_regs.o (symbol from plugin)
                                                  obj/main/OPENDRONEBRH/vcp/usb_prop.o (symbol from plugin)
SetCNTR                                           obj/main/OPENDRONEBRH/usb_regs.o (symbol from plugin)
SetDADDR                                          obj/main/OPENDRONEBRH/usb_regs.o (symbol from plugin)
SetDeviceAddress                                  obj/main/OPENDRONEBRH/usb_core.o (symbol from plugin)
                                                  obj/main/OPENDRONEBRH/vcp/usb_prop.o (symbol from plugin)
SetDouBleBuffEPStall                              obj/main/OPENDRONEBRH/usb_regs.o (symbol from plugin)
SetENDPOINT                                       obj/main/OPENDRONEBRH/usb_regs.o (symbol from plugin)
SetEPAddress                                      obj/main/OPENDRONEBRH/usb_regs.o (symbol from plugin)
SetEPCountRxReg                                   obj/main/OPENDRONEBRH/usb_regs.o (symbol from plugin)
SetEPDblBuf0Addr                                  obj/main/OPENDRONEBRH/usb_regs.o (symbol from plugin)
SetEPDblBuf0Count                                 obj/main/OPENDRONEBRH/usb_regs.o (symbol from plugin)
SetEPDblBuf1Addr                                  obj/main/OPENDRONEBRH/usb_regs.o (symbol from plugin)
SetEPDblBuf1Count                                 obj/main/OPENDRONEBRH/usb_regs.o (symbol from plugin)
SetEPDblBuffAddr                                  obj/main/OPENDRONEBRH/usb_regs.o (symbol from plugin)
SetEPDblBuffCount                                 obj/main/OPENDRONEBRH/usb_regs.o (symbol from plugin)
SetEPDoubleBuff                                   obj/main/OPENDRONEBRH/usb_regs.o (symbol from plugin)
SetEPRxAddr                                       obj/main/OPENDRONEBRH/usb_regs.o (symbol from plugin)
                                                  obj/main/OPENDRONEBRH/vcp/usb_prop.o (symbol from plugin)
SetEPRxCount                                      /tmp/ccjoD88l.ltrans4.ltrans.o
                                                  obj/main/OPENDRONEBRH/usb_regs.o (symbol from plugin)
                                                  /tmp/ccjoD88l.ltrans3.ltrans.o
                                                  obj/main/OPENDRONEBRH/vcp/usb_prop.o (symbol from plugin)
                                                  obj/main/OPENDRONEBRH/vcp/hw_config.o (symbol from plugin)
                                                  obj/main/OPENDRONEBRH/usb_core.o (symbol from plugin)
SetEPRxStatus                                     obj/main/OPENDRONEBRH/usb_regs.o (symbol from plugin)
                                                  obj/main/OPENDRONEBRH/vcp/usb_prop.o (symbol from plugin)
                                                  obj/main/OPENDRONEBRH/vcp/hw_config.o (symbol from plugin)
SetEPRxValid                                      obj/main/OPENDRONEBRH/usb_regs.o (symbol from plugin)
                                                  obj/main/OPENDRONEBRH/vcp/usb_prop.o (symbol from plugin)
SetEPTxAddr                                       obj/main/OPENDRONEBRH/usb_regs.o (symbol from plugin)
                                                  obj/main/OPENDRONEBRH/vcp/usb_prop.o (symbol from plugin)
SetEPTxCount                                      obj/main/OPENDRONEBRH/usb_regs.o (symbol from plugin)
                                                  obj/main/OPENDRONEBRH/vcp/hw_config.o (symbol from plugin)
                                                  obj/main/OPENDRONEBRH/usb_core.o (symbol from plugin)
                                                  obj/main/OPENDRONEBRH/usb_sil.o (symbol from plugin)
SetEPTxStatus                                     obj/main/OPENDRONEBRH/usb_regs.o (symbol from plugin)
                                                  obj/main/OPENDRONEBRH/vcp/usb_prop.o (symbol from plugin)
                                                  obj/main/OPENDRONEBRH/usb_core.o (symbol from plugin)
SetEPTxValid                                      obj/main/OPENDRONEBRH/usb_regs.o (symbol from plugin)
                                                  obj/main/OPENDRONEBRH/vcp/hw_config.o (symbol from plugin)
SetEPType                                         obj/main/OPENDRONEBRH/usb_regs.o (symbol from plugin)
                                                  obj/main/OPENDRONEBRH/vcp/usb_prop.o (symbol from plugin)
SetEP_KIND                                        obj/main/OPENDRONEBRH/usb_regs.o (symbol from plugin)
SetISTR                                           obj/main/OPENDRONEBRH/usb_regs.o (symbol from plugin)
SetSysClock                                       obj/main/OPENDRONEBRH/target/system_stm32f30x.o (symbol from plugin)
                                                  obj/main/OPENDRONEBRH/drivers/system_stm32f30x.o (symbol from plugin)
Set_Status_Out                                    obj/main/OPENDRONEBRH/usb_regs.o (symbol from plugin)
Set_System                                        obj/main/OPENDRONEBRH/vcp/hw_config.o (symbol from plugin)
                                                  obj/main/OPENDRONEBRH/drivers/serial_usb_vcp.o (symbol from plugin)
Set_USBClock                                      obj/main/OPENDRONEBRH/vcp/hw_config.o (symbol from plugin)
                                                  obj/main/OPENDRONEBRH/drivers/serial_usb_vcp.o (symbol from plugin)
Setup0_Process                                    obj/main/OPENDRONEBRH/usb_core.o (symbol from plugin)
                                                  obj/main/OPENDRONEBRH/usb_int.o (symbol from plugin)
Standard_ClearFeature                             obj/main/OPENDRONEBRH/usb_core.o (symbol from plugin)
Standard_GetConfiguration                         obj/main/OPENDRONEBRH/usb_core.o (symbol from plugin)
Standard_GetDescriptorData                        obj/main/OPENDRONEBRH/usb_core.o (symbol from plugin)
                                                  obj/main/OPENDRONEBRH/vcp/usb_prop.o (symbol from plugin)
Standard_GetInterface                             obj/main/OPENDRONEBRH/usb_core.o (symbol from plugin)
Standard_GetStatus                                obj/main/OPENDRONEBRH/usb_core.o (symbol from plugin)
Standard_SetConfiguration                         obj/main/OPENDRONEBRH/usb_core.o (symbol from plugin)
Standard_SetDeviceFeature                         obj/main/OPENDRONEBRH/usb_core.o (symbol from plugin)
Standard_SetEndPointFeature                       obj/main/OPENDRONEBRH/usb_core.o (symbol from plugin)
Standard_SetInterface                             obj/main/OPENDRONEBRH/usb_core.o (symbol from plugin)
StatusInfo                                        obj/main/OPENDRONEBRH/usb_core.o (symbol from plugin)
String_Descriptor                                 obj/main/OPENDRONEBRH/vcp/usb_prop.o (symbol from plugin)
Suspend                                           obj/main/OPENDRONEBRH/vcp/usb_pwr.o (symbol from plugin)
SysTick_CLKSourceConfig                           obj/main/OPENDRONEBRH/stm32f30x_misc.o (symbol from plugin)
SysTick_Handler                                   /tmp/ccjoD88l.ltrans1.ltrans.o
                                                  obj/main/OPENDRONEBRH/drivers/system.o (symbol from plugin)
                                                  obj/main/OPENDRONEBRH/startup_stm32f30x_md_gcc.o
SystemCoreClock                                   /tmp/ccjoD88l.ltrans0.ltrans.o
                                                  obj/main/OPENDRONEBRH/target/system_stm32f30x.o (symbol from plugin)
                                                  /tmp/ccjoD88l.ltrans3.ltrans.o
                                                  /tmp/ccjoD88l.ltrans1.ltrans.o
                                                  obj/main/OPENDRONEBRH/fc/cli.o (symbol from plugin)
                                                  obj/main/OPENDRONEBRH/drivers/timer.o (symbol from plugin)
                                                  obj/main/OPENDRONEBRH/drivers/serial_softserial.o (symbol from plugin)
SystemCoreClockUpdate                             obj/main/OPENDRONEBRH/target/system_stm32f30x.o (symbol from plugin)
SystemInit                                        /tmp/ccjoD88l.ltrans3.ltrans.o
                                                  obj/main/OPENDRONEBRH/target/system_stm32f30x.o (symbol from plugin)
                                                  /tmp/ccjoD88l.ltrans4.ltrans.o
                                                  obj/main/OPENDRONEBRH/vcp/hw_config.o (symbol from plugin)
                                                  obj/main/OPENDRONEBRH/startup_stm32f30x_md_gcc.o
TAMPER_STAMP_IRQHandler                           obj/main/OPENDRONEBRH/startup_stm32f30x_md_gcc.o
TIM1_BRK_TIM15_IRQHandler                         /tmp/ccjoD88l.ltrans0.ltrans.o
                                                  obj/main/OPENDRONEBRH/drivers/timer.o (symbol from plugin)
                                                  obj/main/OPENDRONEBRH/startup_stm32f30x_md_gcc.o
TIM1_CC_IRQHandler                                /tmp/ccjoD88l.ltrans0.ltrans.o
                                                  obj/main/OPENDRONEBRH/drivers/timer.o (symbol from plugin)
                                                  obj/main/OPENDRONEBRH/startup_stm32f30x_md_gcc.o
TIM1_TRG_COM_TIM17_IRQHandler                     obj/main/OPENDRONEBRH/startup_stm32f30x_md_gcc.o
TIM1_UP_TIM16_IRQHandler                          /tmp/ccjoD88l.ltrans0.ltrans.o
                                                  obj/main/OPENDRONEBRH/drivers/timer.o (symbol from plugin)
                                                  obj/main/OPENDRONEBRH/startup_stm32f30x_md_gcc.o
TIM2_IRQHandler                                   /tmp/ccjoD88l.ltrans0.ltrans.o
                                                  obj/main/OPENDRONEBRH/drivers/timer.o (symbol from plugin)
                                                  obj/main/OPENDRONEBRH/startup_stm32f30x_md_gcc.o
TIM3_IRQHandler                                   /tmp/ccjoD88l.ltrans0.ltrans.o
                                                  obj/main/OPENDRONEBRH/drivers/timer.o (symbol from plugin)
                                                  obj/main/OPENDRONEBRH/startup_stm32f30x_md_gcc.o
TIM4_IRQHandler                                   obj/main/OPENDRONEBRH/startup_stm32f30x_md_gcc.o
TIM6_DAC_IRQHandler                               obj/main/OPENDRONEBRH/startup_stm32f30x_md_gcc.o
TIM7_IRQHandler                                   obj/main/OPENDRONEBRH/startup_stm32f30x_md_gcc.o
TIM8_BRK_IRQHandler                               obj/main/OPENDRONEBRH/startup_stm32f30x_md_gcc.o
TIM8_CC_IRQHandler                                /tmp/ccjoD88l.ltrans0.ltrans.o
                                                  obj/main/OPENDRONEBRH/drivers/timer.o (symbol from plugin)
                                                  obj/main/OPENDRONEBRH/startup_stm32f30x_md_gcc.o
TIM8_TRG_COM_IRQHandler                           obj/main/OPENDRONEBRH/startup_stm32f30x_md_gcc.o
TIM8_UP_IRQHandler                                /tmp/ccjoD88l.ltrans0.ltrans.o
                                                  obj/main/OPENDRONEBRH/drivers/timer.o (symbol from plugin)
                                                  obj/main/OPENDRONEBRH/startup_stm32f30x_md_gcc.o
TIM_ARRPreloadConfig                              obj/main/OPENDRONEBRH/stm32f30x_tim.o (symbol from plugin)
TIM_BDTRConfig                                    obj/main/OPENDRONEBRH/stm32f30x_tim.o (symbol from plugin)
TIM_BDTRStructInit                                obj/main/OPENDRONEBRH/stm32f30x_tim.o (symbol from plugin)
TIM_Break1Cmd                                     obj/main/OPENDRONEBRH/stm32f30x_tim.o (symbol from plugin)
TIM_Break1Config                                  obj/main/OPENDRONEBRH/stm32f30x_tim.o (symbol from plugin)
TIM_Break2Cmd                                     obj/main/OPENDRONEBRH/stm32f30x_tim.o (symbol from plugin)
TIM_Break2Config                                  obj/main/OPENDRONEBRH/stm32f30x_tim.o (symbol from plugin)
TIM_CCPreloadControl                              obj/main/OPENDRONEBRH/stm32f30x_tim.o (symbol from plugin)
TIM_CCxCmd                                        obj/main/OPENDRONEBRH/stm32f30x_tim.o (symbol from plugin)
                                                  obj/main/OPENDRONEBRH/drivers/serial_softserial.o (symbol from plugin)
TIM_CCxNCmd                                       obj/main/OPENDRONEBRH/stm32f30x_tim.o (symbol from plugin)
TIM_ClearFlag                                     obj/main/OPENDRONEBRH/stm32f30x_tim.o (symbol from plugin)
                                                  obj/main/OPENDRONEBRH/drivers/timer.o (symbol from plugin)
TIM_ClearITPendingBit                             obj/main/OPENDRONEBRH/stm32f30x_tim.o (symbol from plugin)
TIM_ClearOC1Ref                                   obj/main/OPENDRONEBRH/stm32f30x_tim.o (symbol from plugin)
TIM_ClearOC2Ref                                   obj/main/OPENDRONEBRH/stm32f30x_tim.o (symbol from plugin)
TIM_ClearOC3Ref                                   obj/main/OPENDRONEBRH/stm32f30x_tim.o (symbol from plugin)
TIM_ClearOC4Ref                                   obj/main/OPENDRONEBRH/stm32f30x_tim.o (symbol from plugin)
TIM_ClearOC5Ref                                   obj/main/OPENDRONEBRH/stm32f30x_tim.o (symbol from plugin)
TIM_ClearOC6Ref                                   obj/main/OPENDRONEBRH/stm32f30x_tim.o (symbol from plugin)
TIM_Cmd                                           obj/main/OPENDRONEBRH/stm32f30x_tim.o (symbol from plugin)
                                                  obj/main/OPENDRONEBRH/drivers/timer.o (symbol from plugin)
                                                  obj/main/OPENDRONEBRH/drivers/pwm_output.o (symbol from plugin)
TIM_CounterModeConfig                             obj/main/OPENDRONEBRH/stm32f30x_tim.o (symbol from plugin)
TIM_CtrlPWMOutputs                                obj/main/OPENDRONEBRH/stm32f30x_tim.o (symbol from plugin)
                                                  obj/main/OPENDRONEBRH/drivers/pwm_output.o (symbol from plugin)
TIM_DMACmd                                        obj/main/OPENDRONEBRH/stm32f30x_tim.o (symbol from plugin)
TIM_DMAConfig                                     obj/main/OPENDRONEBRH/stm32f30x_tim.o (symbol from plugin)
TIM_DeInit                                        obj/main/OPENDRONEBRH/stm32f30x_tim.o (symbol from plugin)
TIM_ETRClockMode1Config                           obj/main/OPENDRONEBRH/stm32f30x_tim.o (symbol from plugin)
TIM_ETRClockMode2Config                           obj/main/OPENDRONEBRH/stm32f30x_tim.o (symbol from plugin)
TIM_ETRConfig                                     obj/main/OPENDRONEBRH/stm32f30x_tim.o (symbol from plugin)
TIM_EncoderInterfaceConfig                        obj/main/OPENDRONEBRH/stm32f30x_tim.o (symbol from plugin)
TIM_ForcedOC1Config                               obj/main/OPENDRONEBRH/stm32f30x_tim.o (symbol from plugin)
TIM_ForcedOC2Config                               obj/main/OPENDRONEBRH/stm32f30x_tim.o (symbol from plugin)
TIM_ForcedOC3Config                               obj/main/OPENDRONEBRH/stm32f30x_tim.o (symbol from plugin)
TIM_ForcedOC4Config                               obj/main/OPENDRONEBRH/stm32f30x_tim.o (symbol from plugin)
TIM_ForcedOC5Config                               obj/main/OPENDRONEBRH/stm32f30x_tim.o (symbol from plugin)
TIM_ForcedOC6Config                               obj/main/OPENDRONEBRH/stm32f30x_tim.o (symbol from plugin)
TIM_GenerateEvent                                 obj/main/OPENDRONEBRH/stm32f30x_tim.o (symbol from plugin)
TIM_GetCapture1                                   obj/main/OPENDRONEBRH/stm32f30x_tim.o (symbol from plugin)
TIM_GetCapture2                                   obj/main/OPENDRONEBRH/stm32f30x_tim.o (symbol from plugin)
TIM_GetCapture3                                   obj/main/OPENDRONEBRH/stm32f30x_tim.o (symbol from plugin)
TIM_GetCapture4                                   obj/main/OPENDRONEBRH/stm32f30x_tim.o (symbol from plugin)
TIM_GetCounter                                    obj/main/OPENDRONEBRH/stm32f30x_tim.o (symbol from plugin)
TIM_GetFlagStatus                                 obj/main/OPENDRONEBRH/stm32f30x_tim.o (symbol from plugin)
TIM_GetITStatus                                   obj/main/OPENDRONEBRH/stm32f30x_tim.o (symbol from plugin)
TIM_GetPrescaler                                  obj/main/OPENDRONEBRH/stm32f30x_tim.o (symbol from plugin)
TIM_ICInit                                        /tmp/ccjoD88l.ltrans4.ltrans.o
                                                  obj/main/OPENDRONEBRH/stm32f30x_tim.o (symbol from plugin)
                                                  /tmp/ccjoD88l.ltrans1.ltrans.o
                                                  obj/main/OPENDRONEBRH/drivers/timer.o (symbol from plugin)
                                                  obj/main/OPENDRONEBRH/drivers/rx_pwm.o (symbol from plugin)
TIM_ICStructInit                                  obj/main/OPENDRONEBRH/stm32f30x_tim.o (symbol from plugin)
                                                  obj/main/OPENDRONEBRH/drivers/timer.o (symbol from plugin)
                                                  obj/main/OPENDRONEBRH/drivers/rx_pwm.o (symbol from plugin)
TIM_ITConfig                                      obj/main/OPENDRONEBRH/stm32f30x_tim.o (symbol from plugin)
                                                  obj/main/OPENDRONEBRH/drivers/timer.o (symbol from plugin)
TIM_ITRxExternalClockConfig                       obj/main/OPENDRONEBRH/stm32f30x_tim.o (symbol from plugin)
TIM_InternalClockConfig                           obj/main/OPENDRONEBRH/stm32f30x_tim.o (symbol from plugin)
TIM_OC1FastConfig                                 obj/main/OPENDRONEBRH/stm32f30x_tim.o (symbol from plugin)
TIM_OC1Init                                       obj/main/OPENDRONEBRH/stm32f30x_tim.o (symbol from plugin)
                                                  obj/main/OPENDRONEBRH/drivers/timer.o (symbol from plugin)
TIM_OC1NPolarityConfig                            obj/main/OPENDRONEBRH/stm32f30x_tim.o (symbol from plugin)
TIM_OC1PolarityConfig                             obj/main/OPENDRONEBRH/stm32f30x_tim.o (symbol from plugin)
TIM_OC1PreloadConfig                              obj/main/OPENDRONEBRH/stm32f30x_tim.o (symbol from plugin)
                                                  obj/main/OPENDRONEBRH/drivers/timer.o (symbol from plugin)
TIM_OC2FastConfig                                 obj/main/OPENDRONEBRH/stm32f30x_tim.o (symbol from plugin)
TIM_OC2Init                                       obj/main/OPENDRONEBRH/stm32f30x_tim.o (symbol from plugin)
                                                  obj/main/OPENDRONEBRH/drivers/timer.o (symbol from plugin)
TIM_OC2NPolarityConfig                            obj/main/OPENDRONEBRH/stm32f30x_tim.o (symbol from plugin)
TIM_OC2PolarityConfig                             obj/main/OPENDRONEBRH/stm32f30x_tim.o (symbol from plugin)
TIM_OC2PreloadConfig                              obj/main/OPENDRONEBRH/stm32f30x_tim.o (symbol from plugin)
                                                  obj/main/OPENDRONEBRH/drivers/timer.o (symbol from plugin)
TIM_OC3FastConfig                                 obj/main/OPENDRONEBRH/stm32f30x_tim.o (symbol from plugin)
TIM_OC3Init                                       obj/main/OPENDRONEBRH/stm32f30x_tim.o (symbol from plugin)
                                                  obj/main/OPENDRONEBRH/drivers/timer.o (symbol from plugin)
TIM_OC3NPolarityConfig                            obj/main/OPENDRONEBRH/stm32f30x_tim.o (symbol from plugin)
TIM_OC3PolarityConfig                             obj/main/OPENDRONEBRH/stm32f30x_tim.o (symbol from plugin)
TIM_OC3PreloadConfig                              obj/main/OPENDRONEBRH/stm32f30x_tim.o (symbol from plugin)
                                                  obj/main/OPENDRONEBRH/drivers/timer.o (symbol from plugin)
TIM_OC4FastConfig                                 obj/main/OPENDRONEBRH/stm32f30x_tim.o (symbol from plugin)
TIM_OC4Init                                       obj/main/OPENDRONEBRH/stm32f30x_tim.o (symbol from plugin)
                                                  obj/main/OPENDRONEBRH/drivers/timer.o (symbol from plugin)
TIM_OC4PolarityConfig                             obj/main/OPENDRONEBRH/stm32f30x_tim.o (symbol from plugin)
TIM_OC4PreloadConfig                              obj/main/OPENDRONEBRH/stm32f30x_tim.o (symbol from plugin)
                                                  obj/main/OPENDRONEBRH/drivers/timer.o (symbol from plugin)
TIM_OC5Init                                       obj/main/OPENDRONEBRH/stm32f30x_tim.o (symbol from plugin)
TIM_OC5PolarityConfig                             obj/main/OPENDRONEBRH/stm32f30x_tim.o (symbol from plugin)
TIM_OC5PreloadConfig                              obj/main/OPENDRONEBRH/stm32f30x_tim.o (symbol from plugin)
TIM_OC6Init                                       obj/main/OPENDRONEBRH/stm32f30x_tim.o (symbol from plugin)
TIM_OC6PolarityConfig                             obj/main/OPENDRONEBRH/stm32f30x_tim.o (symbol from plugin)
TIM_OC6PreloadConfig                              obj/main/OPENDRONEBRH/stm32f30x_tim.o (symbol from plugin)
TIM_OCStructInit                                  obj/main/OPENDRONEBRH/stm32f30x_tim.o (symbol from plugin)
                                                  obj/main/OPENDRONEBRH/drivers/timer.o (symbol from plugin)
                                                  obj/main/OPENDRONEBRH/drivers/pwm_output.o (symbol from plugin)
TIM_PWMIConfig                                    obj/main/OPENDRONEBRH/stm32f30x_tim.o (symbol from plugin)
TIM_PrescalerConfig                               obj/main/OPENDRONEBRH/stm32f30x_tim.o (symbol from plugin)
TIM_RemapConfig                                   obj/main/OPENDRONEBRH/stm32f30x_tim.o (symbol from plugin)
TIM_SelectCCDMA                                   obj/main/OPENDRONEBRH/stm32f30x_tim.o (symbol from plugin)
TIM_SelectCOM                                     obj/main/OPENDRONEBRH/stm32f30x_tim.o (symbol from plugin)
TIM_SelectGC5C1                                   obj/main/OPENDRONEBRH/stm32f30x_tim.o (symbol from plugin)
TIM_SelectGC5C2                                   obj/main/OPENDRONEBRH/stm32f30x_tim.o (symbol from plugin)
TIM_SelectGC5C3                                   obj/main/OPENDRONEBRH/stm32f30x_tim.o (symbol from plugin)
TIM_SelectHallSensor                              obj/main/OPENDRONEBRH/stm32f30x_tim.o (symbol from plugin)
TIM_SelectInputTrigger                            obj/main/OPENDRONEBRH/stm32f30x_tim.o (symbol from plugin)
TIM_SelectMasterSlaveMode                         obj/main/OPENDRONEBRH/stm32f30x_tim.o (symbol from plugin)
TIM_SelectOCREFClear                              obj/main/OPENDRONEBRH/stm32f30x_tim.o (symbol from plugin)
TIM_SelectOCxM                                    obj/main/OPENDRONEBRH/stm32f30x_tim.o (symbol from plugin)
TIM_SelectOCxM_NoDisable                          obj/main/OPENDRONEBRH/drivers/timer_stm32f30x.o (symbol from plugin)
TIM_SelectOnePulseMode                            obj/main/OPENDRONEBRH/stm32f30x_tim.o (symbol from plugin)
TIM_SelectOutputTrigger                           obj/main/OPENDRONEBRH/stm32f30x_tim.o (symbol from plugin)
TIM_SelectOutputTrigger2                          obj/main/OPENDRONEBRH/stm32f30x_tim.o (symbol from plugin)
TIM_SelectSlaveMode                               obj/main/OPENDRONEBRH/stm32f30x_tim.o (symbol from plugin)
TIM_SetAutoreload                                 obj/main/OPENDRONEBRH/stm32f30x_tim.o (symbol from plugin)
TIM_SetClockDivision                              obj/main/OPENDRONEBRH/stm32f30x_tim.o (symbol from plugin)
TIM_SetCompare1                                   obj/main/OPENDRONEBRH/stm32f30x_tim.o (symbol from plugin)
TIM_SetCompare2                                   obj/main/OPENDRONEBRH/stm32f30x_tim.o (symbol from plugin)
TIM_SetCompare3                                   obj/main/OPENDRONEBRH/stm32f30x_tim.o (symbol from plugin)
TIM_SetCompare4                                   obj/main/OPENDRONEBRH/stm32f30x_tim.o (symbol from plugin)
TIM_SetCompare5                                   obj/main/OPENDRONEBRH/stm32f30x_tim.o (symbol from plugin)
TIM_SetCompare6                                   obj/main/OPENDRONEBRH/stm32f30x_tim.o (symbol from plugin)
TIM_SetCounter                                    obj/main/OPENDRONEBRH/stm32f30x_tim.o (symbol from plugin)
                                                  obj/main/OPENDRONEBRH/drivers/serial_softserial.o (symbol from plugin)
TIM_SetIC1Prescaler                               obj/main/OPENDRONEBRH/stm32f30x_tim.o (symbol from plugin)
TIM_SetIC2Prescaler                               obj/main/OPENDRONEBRH/stm32f30x_tim.o (symbol from plugin)
TIM_SetIC3Prescaler                               obj/main/OPENDRONEBRH/stm32f30x_tim.o (symbol from plugin)
TIM_SetIC4Prescaler                               obj/main/OPENDRONEBRH/stm32f30x_tim.o (symbol from plugin)
TIM_TIxExternalClockConfig                        obj/main/OPENDRONEBRH/stm32f30x_tim.o (symbol from plugin)
TIM_TimeBaseInit                                  obj/main/OPENDRONEBRH/stm32f30x_tim.o (symbol from plugin)
                                                  obj/main/OPENDRONEBRH/drivers/timer.o (symbol from plugin)
TIM_TimeBaseStructInit                            obj/main/OPENDRONEBRH/stm32f30x_tim.o (symbol from plugin)
                                                  obj/main/OPENDRONEBRH/drivers/timer.o (symbol from plugin)
TIM_UIFRemap                                      obj/main/OPENDRONEBRH/stm32f30x_tim.o (symbol from plugin)
TIM_UpdateDisableConfig                           obj/main/OPENDRONEBRH/stm32f30x_tim.o (symbol from plugin)
TIM_UpdateRequestConfig                           obj/main/OPENDRONEBRH/stm32f30x_tim.o (symbol from plugin)
ToWord                                            obj/main/OPENDRONEBRH/usb_regs.o (symbol from plugin)
ToggleDTOG_RX                                     obj/main/OPENDRONEBRH/usb_regs.o (symbol from plugin)
ToggleDTOG_TX                                     obj/main/OPENDRONEBRH/usb_regs.o (symbol from plugin)
UART4_IRQHandler                                  obj/main/OPENDRONEBRH/startup_stm32f30x_md_gcc.o
UART5_IRQHandler                                  obj/main/OPENDRONEBRH/startup_stm32f30x_md_gcc.o
USART1_IRQHandler                                 /tmp/ccjoD88l.ltrans3.ltrans.o
                                                  obj/main/OPENDRONEBRH/drivers/serial_uart_stm32f30x.o (symbol from plugin)
                                                  obj/main/OPENDRONEBRH/startup_stm32f30x_md_gcc.o
USART2_IRQHandler                                 /tmp/ccjoD88l.ltrans3.ltrans.o
                                                  obj/main/OPENDRONEBRH/drivers/serial_uart_stm32f30x.o (symbol from plugin)
                                                  obj/main/OPENDRONEBRH/startup_stm32f30x_md_gcc.o
USART3_IRQHandler                                 /tmp/ccjoD88l.ltrans3.ltrans.o
                                                  obj/main/OPENDRONEBRH/drivers/serial_uart_stm32f30x.o (symbol from plugin)
                                                  obj/main/OPENDRONEBRH/startup_stm32f30x_md_gcc.o
USART_AddressDetectionConfig                      obj/main/OPENDRONEBRH/stm32f30x_usart.o (symbol from plugin)
USART_AutoBaudRateCmd                             obj/main/OPENDRONEBRH/stm32f30x_usart.o (symbol from plugin)
USART_AutoBaudRateConfig                          obj/main/OPENDRONEBRH/stm32f30x_usart.o (symbol from plugin)
USART_ClearFlag                                   obj/main/OPENDRONEBRH/stm32f30x_usart.o (symbol from plugin)
USART_ClearITPendingBit                           obj/main/OPENDRONEBRH/stm32f30x_usart.o (symbol from plugin)
                                                  obj/main/OPENDRONEBRH/drivers/serial_uart.o (symbol from plugin)
                                                  obj/main/OPENDRONEBRH/drivers/serial_uart_stm32f30x.o (symbol from plugin)
USART_ClockInit                                   obj/main/OPENDRONEBRH/stm32f30x_usart.o (symbol from plugin)
USART_ClockStructInit                             obj/main/OPENDRONEBRH/stm32f30x_usart.o (symbol from plugin)
USART_Cmd                                         obj/main/OPENDRONEBRH/stm32f30x_usart.o (symbol from plugin)
                                                  obj/main/OPENDRONEBRH/drivers/serial_uart.o (symbol from plugin)
USART_DECmd                                       obj/main/OPENDRONEBRH/stm32f30x_usart.o (symbol from plugin)
USART_DEPolarityConfig                            obj/main/OPENDRONEBRH/stm32f30x_usart.o (symbol from plugin)
USART_DMACmd                                      obj/main/OPENDRONEBRH/stm32f30x_usart.o (symbol from plugin)
                                                  obj/main/OPENDRONEBRH/drivers/serial_uart.o (symbol from plugin)
USART_DMAReceptionErrorConfig                     obj/main/OPENDRONEBRH/stm32f30x_usart.o (symbol from plugin)
USART_DataInvCmd                                  obj/main/OPENDRONEBRH/stm32f30x_usart.o (symbol from plugin)
USART_DeInit                                      obj/main/OPENDRONEBRH/stm32f30x_usart.o (symbol from plugin)
USART_DirectionModeCmd                            obj/main/OPENDRONEBRH/stm32f30x_usart.o (symbol from plugin)
USART_GetFlagStatus                               obj/main/OPENDRONEBRH/stm32f30x_usart.o (symbol from plugin)
USART_GetITStatus                                 obj/main/OPENDRONEBRH/stm32f30x_usart.o (symbol from plugin)
USART_HalfDuplexCmd                               obj/main/OPENDRONEBRH/stm32f30x_usart.o (symbol from plugin)
                                                  obj/main/OPENDRONEBRH/drivers/serial_uart.o (symbol from plugin)
USART_ITConfig                                    obj/main/OPENDRONEBRH/stm32f30x_usart.o (symbol from plugin)
                                                  obj/main/OPENDRONEBRH/drivers/serial_uart.o (symbol from plugin)
                                                  obj/main/OPENDRONEBRH/drivers/serial_uart_stm32f30x.o (symbol from plugin)
USART_Init                                        obj/main/OPENDRONEBRH/stm32f30x_usart.o (symbol from plugin)
                                                  obj/main/OPENDRONEBRH/drivers/serial_uart.o (symbol from plugin)
USART_InvPinCmd                                   obj/main/OPENDRONEBRH/stm32f30x_usart.o (symbol from plugin)
                                                  obj/main/OPENDRONEBRH/drivers/serial_uart.o (symbol from plugin)
USART_IrDACmd                                     obj/main/OPENDRONEBRH/stm32f30x_usart.o (symbol from plugin)
USART_IrDAConfig                                  obj/main/OPENDRONEBRH/stm32f30x_usart.o (symbol from plugin)
USART_LINBreakDetectLengthConfig                  obj/main/OPENDRONEBRH/stm32f30x_usart.o (symbol from plugin)
USART_LINCmd                                      obj/main/OPENDRONEBRH/stm32f30x_usart.o (symbol from plugin)
USART_MSBFirstCmd                                 obj/main/OPENDRONEBRH/stm32f30x_usart.o (symbol from plugin)
USART_MuteModeCmd                                 obj/main/OPENDRONEBRH/stm32f30x_usart.o (symbol from plugin)
USART_MuteModeWakeUpConfig                        obj/main/OPENDRONEBRH/stm32f30x_usart.o (symbol from plugin)
USART_OneBitMethodCmd                             obj/main/OPENDRONEBRH/stm32f30x_usart.o (symbol from plugin)
USART_OverSampling8Cmd                            obj/main/OPENDRONEBRH/stm32f30x_usart.o (symbol from plugin)
USART_OverrunDetectionConfig                      obj/main/OPENDRONEBRH/stm32f30x_usart.o (symbol from plugin)
USART_ReceiveData                                 obj/main/OPENDRONEBRH/stm32f30x_usart.o (symbol from plugin)
USART_ReceiverTimeOutCmd                          obj/main/OPENDRONEBRH/stm32f30x_usart.o (symbol from plugin)
USART_RequestCmd                                  obj/main/OPENDRONEBRH/stm32f30x_usart.o (symbol from plugin)
USART_STOPModeCmd                                 obj/main/OPENDRONEBRH/stm32f30x_usart.o (symbol from plugin)
USART_SWAPPinCmd                                  obj/main/OPENDRONEBRH/stm32f30x_usart.o (symbol from plugin)
USART_SendData                                    obj/main/OPENDRONEBRH/stm32f30x_usart.o (symbol from plugin)
                                                  obj/main/OPENDRONEBRH/drivers/serial_uart_stm32f30x.o (symbol from plugin)
USART_SetAddress                                  obj/main/OPENDRONEBRH/stm32f30x_usart.o (symbol from plugin)
USART_SetAutoRetryCount                           obj/main/OPENDRONEBRH/stm32f30x_usart.o (symbol from plugin)
USART_SetBlockLength                              obj/main/OPENDRONEBRH/stm32f30x_usart.o (symbol from plugin)
USART_SetDEAssertionTime                          obj/main/OPENDRONEBRH/stm32f30x_usart.o (symbol from plugin)
USART_SetDEDeassertionTime                        obj/main/OPENDRONEBRH/stm32f30x_usart.o (symbol from plugin)
USART_SetGuardTime                                obj/main/OPENDRONEBRH/stm32f30x_usart.o (symbol from plugin)
USART_SetPrescaler                                obj/main/OPENDRONEBRH/stm32f30x_usart.o (symbol from plugin)
USART_SetReceiverTimeOut                          obj/main/OPENDRONEBRH/stm32f30x_usart.o (symbol from plugin)
USART_SmartCardCmd                                obj/main/OPENDRONEBRH/stm32f30x_usart.o (symbol from plugin)
USART_SmartCardNACKCmd                            obj/main/OPENDRONEBRH/stm32f30x_usart.o (symbol from plugin)
USART_StopModeWakeUpSourceConfig                  obj/main/OPENDRONEBRH/stm32f30x_usart.o (symbol from plugin)
USART_StructInit                                  obj/main/OPENDRONEBRH/stm32f30x_usart.o (symbol from plugin)
USBWakeUp_IRQHandler                              /tmp/ccjoD88l.ltrans4.ltrans.o
                                                  obj/main/OPENDRONEBRH/vcp/stm32_it.o (symbol from plugin)
                                                  obj/main/OPENDRONEBRH/startup_stm32f30x_md_gcc.o
USBWakeUp_RMP_IRQHandler                          obj/main/OPENDRONEBRH/startup_stm32f30x_md_gcc.o
USB_Cable_Config                                  obj/main/OPENDRONEBRH/vcp/hw_config.o (symbol from plugin)
                                                  obj/main/OPENDRONEBRH/vcp/usb_pwr.o (symbol from plugin)
USB_HP_CAN1_TX_IRQHandler                         obj/main/OPENDRONEBRH/startup_stm32f30x_md_gcc.o
USB_HP_IRQHandler                                 obj/main/OPENDRONEBRH/startup_stm32f30x_md_gcc.o
USB_Init                                          obj/main/OPENDRONEBRH/usb_init.o (symbol from plugin)
                                                  obj/main/OPENDRONEBRH/drivers/serial_usb_vcp.o (symbol from plugin)
USB_Interrupts_Config                             obj/main/OPENDRONEBRH/vcp/hw_config.o (symbol from plugin)
                                                  obj/main/OPENDRONEBRH/drivers/serial_usb_vcp.o (symbol from plugin)
USB_Istr                                          obj/main/OPENDRONEBRH/vcp/usb_istr.o (symbol from plugin)
                                                  obj/main/OPENDRONEBRH/vcp/stm32_it.o (symbol from plugin)
USB_LP_CAN1_RX0_IRQHandler                        /tmp/ccjoD88l.ltrans4.ltrans.o
                                                  obj/main/OPENDRONEBRH/vcp/stm32_it.o (symbol from plugin)
                                                  obj/main/OPENDRONEBRH/startup_stm32f30x_md_gcc.o
USB_LP_IRQHandler                                 obj/main/OPENDRONEBRH/startup_stm32f30x_md_gcc.o
USB_SIL_Init                                      obj/main/OPENDRONEBRH/usb_sil.o (symbol from plugin)
                                                  obj/main/OPENDRONEBRH/vcp/usb_prop.o (symbol from plugin)
USB_SIL_Read                                      obj/main/OPENDRONEBRH/usb_sil.o (symbol from plugin)
USB_SIL_Write                                     obj/main/OPENDRONEBRH/usb_sil.o (symbol from plugin)
UsageFault_Handler                                /tmp/ccjoD88l.ltrans4.ltrans.o
                                                  obj/main/OPENDRONEBRH/vcp/stm32_it.o (symbol from plugin)
                                                  obj/main/OPENDRONEBRH/startup_stm32f30x_md_gcc.o
UserToPMABufferCopy                               obj/main/OPENDRONEBRH/usb_mem.o (symbol from plugin)
                                                  obj/main/OPENDRONEBRH/vcp/hw_config.o (symbol from plugin)
                                                  obj/main/OPENDRONEBRH/usb_core.o (symbol from plugin)
                                                  obj/main/OPENDRONEBRH/usb_sil.o (symbol from plugin)
User_Standard_Requests                            obj/main/OPENDRONEBRH/vcp/usb_prop.o (symbol from plugin)
                                                  obj/main/OPENDRONEBRH/usb_init.o (symbol from plugin)
Virtual_Com_Port_ConfigDescriptor                 obj/main/OPENDRONEBRH/vcp/usb_desc.o (symbol from plugin)
                                                  obj/main/OPENDRONEBRH/vcp/usb_prop.o (symbol from plugin)
Virtual_Com_Port_Data_Setup                       obj/main/OPENDRONEBRH/vcp/usb_prop.o (symbol from plugin)
Virtual_Com_Port_DeviceDescriptor                 obj/main/OPENDRONEBRH/vcp/usb_desc.o (symbol from plugin)
                                                  obj/main/OPENDRONEBRH/vcp/usb_prop.o (symbol from plugin)
Virtual_Com_Port_GetBaudRate                      obj/main/OPENDRONEBRH/vcp/usb_prop.o (symbol from plugin)
                                                  obj/main/OPENDRONEBRH/vcp/hw_config.o (symbol from plugin)
Virtual_Com_Port_GetConfigDescriptor              obj/main/OPENDRONEBRH/vcp/usb_prop.o (symbol from plugin)
Virtual_Com_Port_GetDeviceDescriptor              obj/main/OPENDRONEBRH/vcp/usb_prop.o (symbol from plugin)
Virtual_Com_Port_GetLineCoding                    obj/main/OPENDRONEBRH/vcp/usb_prop.o (symbol from plugin)
Virtual_Com_Port_GetStringDescriptor              obj/main/OPENDRONEBRH/vcp/usb_prop.o (symbol from plugin)
Virtual_Com_Port_Get_Interface_Setting            obj/main/OPENDRONEBRH/vcp/usb_prop.o (symbol from plugin)
Virtual_Com_Port_NoData_Setup                     obj/main/OPENDRONEBRH/vcp/usb_prop.o (symbol from plugin)
Virtual_Com_Port_Reset                            obj/main/OPENDRONEBRH/vcp/usb_prop.o (symbol from plugin)
Virtual_Com_Port_SetConfiguration                 /tmp/ccjoD88l.ltrans4.ltrans.o
                                                  obj/main/OPENDRONEBRH/vcp/usb_prop.o (symbol from plugin)
                                                  /tmp/ccjoD88l.ltrans1.ltrans.o
Virtual_Com_Port_SetDeviceAddress                 /tmp/ccjoD88l.ltrans4.ltrans.o
                                                  obj/main/OPENDRONEBRH/vcp/usb_prop.o (symbol from plugin)
                                                  /tmp/ccjoD88l.ltrans1.ltrans.o
Virtual_Com_Port_SetLineCoding                    obj/main/OPENDRONEBRH/vcp/usb_prop.o (symbol from plugin)
Virtual_Com_Port_Status_In                        obj/main/OPENDRONEBRH/vcp/usb_prop.o (symbol from plugin)
Virtual_Com_Port_Status_Out                       obj/main/OPENDRONEBRH/vcp/usb_prop.o (symbol from plugin)
Virtual_Com_Port_StringLangID                     obj/main/OPENDRONEBRH/vcp/usb_desc.o (symbol from plugin)
                                                  obj/main/OPENDRONEBRH/vcp/usb_prop.o (symbol from plugin)
Virtual_Com_Port_StringProduct                    obj/main/OPENDRONEBRH/vcp/usb_desc.o (symbol from plugin)
                                                  obj/main/OPENDRONEBRH/vcp/usb_prop.o (symbol from plugin)
Virtual_Com_Port_StringSerial                     obj/main/OPENDRONEBRH/vcp/usb_desc.o (symbol from plugin)
                                                  obj/main/OPENDRONEBRH/vcp/usb_prop.o (symbol from plugin)
                                                  obj/main/OPENDRONEBRH/vcp/hw_config.o (symbol from plugin)
Virtual_Com_Port_StringVendor                     obj/main/OPENDRONEBRH/vcp/usb_desc.o (symbol from plugin)
                                                  obj/main/OPENDRONEBRH/vcp/usb_prop.o (symbol from plugin)
Virtual_Com_Port_init                             obj/main/OPENDRONEBRH/vcp/usb_prop.o (symbol from plugin)
WWDG_ClearFlag                                    obj/main/OPENDRONEBRH/stm32f30x_wwdg.o (symbol from plugin)
WWDG_DeInit                                       obj/main/OPENDRONEBRH/stm32f30x_wwdg.o (symbol from plugin)
WWDG_Enable                                       obj/main/OPENDRONEBRH/stm32f30x_wwdg.o (symbol from plugin)
WWDG_EnableIT                                     obj/main/OPENDRONEBRH/stm32f30x_wwdg.o (symbol from plugin)
WWDG_GetFlagStatus                                obj/main/OPENDRONEBRH/stm32f30x_wwdg.o (symbol from plugin)
WWDG_IRQHandler                                   obj/main/OPENDRONEBRH/startup_stm32f30x_md_gcc.o
WWDG_SetCounter                                   obj/main/OPENDRONEBRH/stm32f30x_wwdg.o (symbol from plugin)
WWDG_SetPrescaler                                 obj/main/OPENDRONEBRH/stm32f30x_wwdg.o (symbol from plugin)
WWDG_SetWindowValue                               obj/main/OPENDRONEBRH/stm32f30x_wwdg.o (symbol from plugin)
XN297_UnscramblePayload                           obj/main/OPENDRONEBRH/drivers/rx_xn297.o (symbol from plugin)
XN297_WritePayload                                obj/main/OPENDRONEBRH/drivers/rx_xn297.o (symbol from plugin)
_Min_Stack_Size                                   /tmp/ccjoD88l.ltrans0.ltrans.o
                                                  obj/main/OPENDRONEBRH/drivers/stack_check.o (symbol from plugin)
__adddf3                                          /home/ethan/developer/opendrone/tools/gcc-arm-none-eabi-7-2017-q4-major/bin/../lib/gcc/arm-none-eabi/7.2.1/thumb/v7e-m/fpv4-sp/hard/libgcc.a(_arm_addsubdf3.o)
__addsf3                                          /home/ethan/developer/opendrone/tools/gcc-arm-none-eabi-7-2017-q4-major/bin/../lib/gcc/arm-none-eabi/7.2.1/thumb/v7e-m/fpv4-sp/hard/libgcc.a(_arm_addsubsf3.o)
__aeabi_cdcmpeq                                   /home/ethan/developer/opendrone/tools/gcc-arm-none-eabi-7-2017-q4-major/bin/../lib/gcc/arm-none-eabi/7.2.1/thumb/v7e-m/fpv4-sp/hard/libgcc.a(_arm_cmpdf2.o)
__aeabi_cdcmple                                   /home/ethan/developer/opendrone/tools/gcc-arm-none-eabi-7-2017-q4-major/bin/../lib/gcc/arm-none-eabi/7.2.1/thumb/v7e-m/fpv4-sp/hard/libgcc.a(_arm_cmpdf2.o)
__aeabi_cdrcmple                                  /home/ethan/developer/opendrone/tools/gcc-arm-none-eabi-7-2017-q4-major/bin/../lib/gcc/arm-none-eabi/7.2.1/thumb/v7e-m/fpv4-sp/hard/libgcc.a(_arm_cmpdf2.o)
__aeabi_d2f                                       /home/ethan/developer/opendrone/tools/gcc-arm-none-eabi-7-2017-q4-major/bin/../lib/gcc/arm-none-eabi/7.2.1/thumb/v7e-m/fpv4-sp/hard/libgcc.a(_arm_truncdfsf2.o)
                                                  /home/ethan/developer/opendrone/tools/gcc-arm-none-eabi-7-2017-q4-major/bin/../lib/gcc/arm-none-eabi/7.2.1/../../../../arm-none-eabi/lib/thumb/v7e-m/fpv4-sp/hard/libm.a(lib_a-wf_sqrt.o)
                                                  /home/ethan/developer/opendrone/tools/gcc-arm-none-eabi-7-2017-q4-major/bin/../lib/gcc/arm-none-eabi/7.2.1/../../../../arm-none-eabi/lib/thumb/v7e-m/fpv4-sp/hard/libm.a(lib_a-sf_pow.o)
                                                  /home/ethan/developer/opendrone/tools/gcc-arm-none-eabi-7-2017-q4-major/bin/../lib/gcc/arm-none-eabi/7.2.1/../../../../arm-none-eabi/lib/thumb/v7e-m/fpv4-sp/hard/libm.a(lib_a-sf_log2.o)
                                                  /tmp/ccjoD88l.ltrans5.ltrans.o
                                                  /tmp/ccjoD88l.ltrans1.ltrans.o
__aeabi_d2uiz                                     /home/ethan/developer/opendrone/tools/gcc-arm-none-eabi-7-2017-q4-major/bin/../lib/gcc/arm-none-eabi/7.2.1/thumb/v7e-m/fpv4-sp/hard/libgcc.a(_arm_fixunsdfsi.o)
                                                  /tmp/ccjoD88l.ltrans1.ltrans.o
__aeabi_dadd                                      /home/ethan/developer/opendrone/tools/gcc-arm-none-eabi-7-2017-q4-major/bin/../lib/gcc/arm-none-eabi/7.2.1/thumb/v7e-m/fpv4-sp/hard/libgcc.a(_arm_addsubdf3.o)
                                                  /home/ethan/developer/opendrone/tools/gcc-arm-none-eabi-7-2017-q4-major/bin/../lib/gcc/arm-none-eabi/7.2.1/../../../../arm-none-eabi/lib/thumb/v7e-m/fpv4-sp/hard/libm.a(lib_a-sf_pow.o)
                                                  /home/ethan/developer/opendrone/tools/gcc-arm-none-eabi-7-2017-q4-major/bin/../lib/gcc/arm-none-eabi/7.2.1/../../../../arm-none-eabi/lib/thumb/v7e-m/fpv4-sp/hard/libm.a(lib_a-sf_log2.o)
                                                  /tmp/ccjoD88l.ltrans5.ltrans.o
__aeabi_dcmpeq                                    /home/ethan/developer/opendrone/tools/gcc-arm-none-eabi-7-2017-q4-major/bin/../lib/gcc/arm-none-eabi/7.2.1/thumb/v7e-m/fpv4-sp/hard/libgcc.a(_arm_cmpdf2.o)
                                                  /tmp/ccjoD88l.ltrans1.ltrans.o
__aeabi_dcmpge                                    /home/ethan/developer/opendrone/tools/gcc-arm-none-eabi-7-2017-q4-major/bin/../lib/gcc/arm-none-eabi/7.2.1/thumb/v7e-m/fpv4-sp/hard/libgcc.a(_arm_cmpdf2.o)
__aeabi_dcmpgt                                    /home/ethan/developer/opendrone/tools/gcc-arm-none-eabi-7-2017-q4-major/bin/../lib/gcc/arm-none-eabi/7.2.1/thumb/v7e-m/fpv4-sp/hard/libgcc.a(_arm_cmpdf2.o)
                                                  /home/ethan/developer/opendrone/tools/gcc-arm-none-eabi-7-2017-q4-major/bin/../lib/gcc/arm-none-eabi/7.2.1/../../../../arm-none-eabi/lib/thumb/v7e-m/fpv4-sp/hard/libm.a(lib_a-sf_pow.o)
__aeabi_dcmple                                    /home/ethan/developer/opendrone/tools/gcc-arm-none-eabi-7-2017-q4-major/bin/../lib/gcc/arm-none-eabi/7.2.1/thumb/v7e-m/fpv4-sp/hard/libgcc.a(_arm_cmpdf2.o)
                                                  /home/ethan/developer/opendrone/tools/gcc-arm-none-eabi-7-2017-q4-major/bin/../lib/gcc/arm-none-eabi/7.2.1/../../../../arm-none-eabi/lib/thumb/v7e-m/fpv4-sp/hard/libm.a(lib_a-sf_pow.o)
__aeabi_dcmplt                                    /home/ethan/developer/opendrone/tools/gcc-arm-none-eabi-7-2017-q4-major/bin/../lib/gcc/arm-none-eabi/7.2.1/thumb/v7e-m/fpv4-sp/hard/libgcc.a(_arm_cmpdf2.o)
                                                  /home/ethan/developer/opendrone/tools/gcc-arm-none-eabi-7-2017-q4-major/bin/../lib/gcc/arm-none-eabi/7.2.1/../../../../arm-none-eabi/lib/thumb/v7e-m/fpv4-sp/hard/libm.a(lib_a-sf_pow.o)
__aeabi_ddiv                                      /home/ethan/developer/opendrone/tools/gcc-arm-none-eabi-7-2017-q4-major/bin/../lib/gcc/arm-none-eabi/7.2.1/thumb/v7e-m/fpv4-sp/hard/libgcc.a(_arm_muldivdf3.o)
                                                  /home/ethan/developer/opendrone/tools/gcc-arm-none-eabi-7-2017-q4-major/bin/../lib/gcc/arm-none-eabi/7.2.1/../../../../arm-none-eabi/lib/thumb/v7e-m/fpv4-sp/hard/libm.a(lib_a-wf_sqrt.o)
                                                  /tmp/ccjoD88l.ltrans1.ltrans.o
__aeabi_dmul                                      /home/ethan/developer/opendrone/tools/gcc-arm-none-eabi-7-2017-q4-major/bin/../lib/gcc/arm-none-eabi/7.2.1/thumb/v7e-m/fpv4-sp/hard/libgcc.a(_arm_muldivdf3.o)
                                                  /home/ethan/developer/opendrone/tools/gcc-arm-none-eabi-7-2017-q4-major/bin/../lib/gcc/arm-none-eabi/7.2.1/../../../../arm-none-eabi/lib/thumb/v7e-m/fpv4-sp/hard/libm.a(lib_a-sf_pow.o)
                                                  /home/ethan/developer/opendrone/tools/gcc-arm-none-eabi-7-2017-q4-major/bin/../lib/gcc/arm-none-eabi/7.2.1/../../../../arm-none-eabi/lib/thumb/v7e-m/fpv4-sp/hard/libm.a(lib_a-sf_log2.o)
__aeabi_drsub                                     /home/ethan/developer/opendrone/tools/gcc-arm-none-eabi-7-2017-q4-major/bin/../lib/gcc/arm-none-eabi/7.2.1/thumb/v7e-m/fpv4-sp/hard/libgcc.a(_arm_addsubdf3.o)
__aeabi_dsub                                      /home/ethan/developer/opendrone/tools/gcc-arm-none-eabi-7-2017-q4-major/bin/../lib/gcc/arm-none-eabi/7.2.1/thumb/v7e-m/fpv4-sp/hard/libgcc.a(_arm_addsubdf3.o)
                                                  /home/ethan/developer/opendrone/tools/gcc-arm-none-eabi-7-2017-q4-major/bin/../lib/gcc/arm-none-eabi/7.2.1/../../../../arm-none-eabi/lib/thumb/v7e-m/fpv4-sp/hard/libm.a(lib_a-sf_pow.o)
                                                  /home/ethan/developer/opendrone/tools/gcc-arm-none-eabi-7-2017-q4-major/bin/../lib/gcc/arm-none-eabi/7.2.1/../../../../arm-none-eabi/lib/thumb/v7e-m/fpv4-sp/hard/libm.a(lib_a-sf_log2.o)
__aeabi_f2d                                       /home/ethan/developer/opendrone/tools/gcc-arm-none-eabi-7-2017-q4-major/bin/../lib/gcc/arm-none-eabi/7.2.1/thumb/v7e-m/fpv4-sp/hard/libgcc.a(_arm_addsubdf3.o)
                                                  /home/ethan/developer/opendrone/tools/gcc-arm-none-eabi-7-2017-q4-major/bin/../lib/gcc/arm-none-eabi/7.2.1/../../../../arm-none-eabi/lib/thumb/v7e-m/fpv4-sp/hard/libm.a(lib_a-wf_sqrt.o)
                                                  /home/ethan/developer/opendrone/tools/gcc-arm-none-eabi-7-2017-q4-major/bin/../lib/gcc/arm-none-eabi/7.2.1/../../../../arm-none-eabi/lib/thumb/v7e-m/fpv4-sp/hard/libm.a(lib_a-sf_pow.o)
                                                  /home/ethan/developer/opendrone/tools/gcc-arm-none-eabi-7-2017-q4-major/bin/../lib/gcc/arm-none-eabi/7.2.1/../../../../arm-none-eabi/lib/thumb/v7e-m/fpv4-sp/hard/libm.a(lib_a-sf_log2.o)
                                                  /tmp/ccjoD88l.ltrans5.ltrans.o
__aeabi_fadd                                      /home/ethan/developer/opendrone/tools/gcc-arm-none-eabi-7-2017-q4-major/bin/../lib/gcc/arm-none-eabi/7.2.1/thumb/v7e-m/fpv4-sp/hard/libgcc.a(_arm_addsubsf3.o)
__aeabi_frsub                                     /home/ethan/developer/opendrone/tools/gcc-arm-none-eabi-7-2017-q4-major/bin/../lib/gcc/arm-none-eabi/7.2.1/thumb/v7e-m/fpv4-sp/hard/libgcc.a(_arm_addsubsf3.o)
__aeabi_fsub                                      /home/ethan/developer/opendrone/tools/gcc-arm-none-eabi-7-2017-q4-major/bin/../lib/gcc/arm-none-eabi/7.2.1/thumb/v7e-m/fpv4-sp/hard/libgcc.a(_arm_addsubsf3.o)
__aeabi_i2d                                       /home/ethan/developer/opendrone/tools/gcc-arm-none-eabi-7-2017-q4-major/bin/../lib/gcc/arm-none-eabi/7.2.1/thumb/v7e-m/fpv4-sp/hard/libgcc.a(_arm_addsubdf3.o)
                                                  /home/ethan/developer/opendrone/tools/gcc-arm-none-eabi-7-2017-q4-major/bin/../lib/gcc/arm-none-eabi/7.2.1/../../../../arm-none-eabi/lib/thumb/v7e-m/fpv4-sp/hard/libm.a(lib_a-sf_pow.o)
                                                  /home/ethan/developer/opendrone/tools/gcc-arm-none-eabi-7-2017-q4-major/bin/../lib/gcc/arm-none-eabi/7.2.1/../../../../arm-none-eabi/lib/thumb/v7e-m/fpv4-sp/hard/libm.a(lib_a-sf_log2.o)
                                                  /tmp/ccjoD88l.ltrans1.ltrans.o
__aeabi_i2f                                       /home/ethan/developer/opendrone/tools/gcc-arm-none-eabi-7-2017-q4-major/bin/../lib/gcc/arm-none-eabi/7.2.1/thumb/v7e-m/fpv4-sp/hard/libgcc.a(_arm_addsubsf3.o)
__aeabi_idiv0                                     /home/ethan/developer/opendrone/tools/gcc-arm-none-eabi-7-2017-q4-major/bin/../lib/gcc/arm-none-eabi/7.2.1/thumb/v7e-m/fpv4-sp/hard/libgcc.a(_dvmd_tls.o)
__aeabi_l2d                                       /home/ethan/developer/opendrone/tools/gcc-arm-none-eabi-7-2017-q4-major/bin/../lib/gcc/arm-none-eabi/7.2.1/thumb/v7e-m/fpv4-sp/hard/libgcc.a(_arm_addsubdf3.o)
__aeabi_l2f                                       /home/ethan/developer/opendrone/tools/gcc-arm-none-eabi-7-2017-q4-major/bin/../lib/gcc/arm-none-eabi/7.2.1/thumb/v7e-m/fpv4-sp/hard/libgcc.a(_arm_addsubsf3.o)
__aeabi_ldiv0                                     /home/ethan/developer/opendrone/tools/gcc-arm-none-eabi-7-2017-q4-major/bin/../lib/gcc/arm-none-eabi/7.2.1/thumb/v7e-m/fpv4-sp/hard/libgcc.a(_dvmd_tls.o)
                                                  /home/ethan/developer/opendrone/tools/gcc-arm-none-eabi-7-2017-q4-major/bin/../lib/gcc/arm-none-eabi/7.2.1/thumb/v7e-m/fpv4-sp/hard/libgcc.a(_aeabi_uldivmod.o)
                                                  /home/ethan/developer/opendrone/tools/gcc-arm-none-eabi-7-2017-q4-major/bin/../lib/gcc/arm-none-eabi/7.2.1/thumb/v7e-m/fpv4-sp/hard/libgcc.a(_aeabi_ldivmod.o)
__aeabi_ldivmod                                   /home/ethan/developer/opendrone/tools/gcc-arm-none-eabi-7-2017-q4-major/bin/../lib/gcc/arm-none-eabi/7.2.1/thumb/v7e-m/fpv4-sp/hard/libgcc.a(_aeabi_ldivmod.o)
                                                  /tmp/ccjoD88l.ltrans4.ltrans.o
                                                  /tmp/ccjoD88l.ltrans3.ltrans.o
                                                  /tmp/ccjoD88l.ltrans2.ltrans.o
                                                  /tmp/ccjoD88l.ltrans1.ltrans.o
                                                  /tmp/ccjoD88l.ltrans0.ltrans.o
__aeabi_ui2d                                      /home/ethan/developer/opendrone/tools/gcc-arm-none-eabi-7-2017-q4-major/bin/../lib/gcc/arm-none-eabi/7.2.1/thumb/v7e-m/fpv4-sp/hard/libgcc.a(_arm_addsubdf3.o)
__aeabi_ui2f                                      /home/ethan/developer/opendrone/tools/gcc-arm-none-eabi-7-2017-q4-major/bin/../lib/gcc/arm-none-eabi/7.2.1/thumb/v7e-m/fpv4-sp/hard/libgcc.a(_arm_addsubsf3.o)
__aeabi_ul2d                                      /home/ethan/developer/opendrone/tools/gcc-arm-none-eabi-7-2017-q4-major/bin/../lib/gcc/arm-none-eabi/7.2.1/thumb/v7e-m/fpv4-sp/hard/libgcc.a(_arm_addsubdf3.o)
__aeabi_ul2f                                      /home/ethan/developer/opendrone/tools/gcc-arm-none-eabi-7-2017-q4-major/bin/../lib/gcc/arm-none-eabi/7.2.1/thumb/v7e-m/fpv4-sp/hard/libgcc.a(_arm_addsubsf3.o)
                                                  /tmp/ccjoD88l.ltrans5.ltrans.o
                                                  /tmp/ccjoD88l.ltrans3.ltrans.o
__aeabi_uldivmod                                  /home/ethan/developer/opendrone/tools/gcc-arm-none-eabi-7-2017-q4-major/bin/../lib/gcc/arm-none-eabi/7.2.1/thumb/v7e-m/fpv4-sp/hard/libgcc.a(_aeabi_uldivmod.o)
                                                  /tmp/ccjoD88l.ltrans5.ltrans.o
                                                  /tmp/ccjoD88l.ltrans4.ltrans.o
                                                  /tmp/ccjoD88l.ltrans3.ltrans.o
                                                  /tmp/ccjoD88l.ltrans2.ltrans.o
                                                  /tmp/ccjoD88l.ltrans0.ltrans.o
__busdev_registry_end                             /tmp/ccjoD88l.ltrans4.ltrans.o
                                                  /tmp/ccjoD88l.ltrans1.ltrans.o
                                                  obj/main/OPENDRONEBRH/drivers/bus.o (symbol from plugin)
__busdev_registry_start                           /tmp/ccjoD88l.ltrans4.ltrans.o
                                                  /tmp/ccjoD88l.ltrans1.ltrans.o
                                                  obj/main/OPENDRONEBRH/drivers/bus.o (symbol from plugin)
__cmpdf2                                          /home/ethan/developer/opendrone/tools/gcc-arm-none-eabi-7-2017-q4-major/bin/../lib/gcc/arm-none-eabi/7.2.1/thumb/v7e-m/fpv4-sp/hard/libgcc.a(_arm_cmpdf2.o)
__config_end                                      /tmp/ccjoD88l.ltrans1.ltrans.o
                                                  /tmp/ccjoD88l.ltrans0.ltrans.o
                                                  obj/main/OPENDRONEBRH/fc/cli.o (symbol from plugin)
                                                  obj/main/OPENDRONEBRH/config/config_eeprom.o (symbol from plugin)
__config_start                                    /tmp/ccjoD88l.ltrans1.ltrans.o
                                                  /tmp/ccjoD88l.ltrans0.ltrans.o
                                                  obj/main/OPENDRONEBRH/fc/cli.o (symbol from plugin)
                                                  obj/main/OPENDRONEBRH/config/config_eeprom.o (symbol from plugin)
__divdf3                                          /home/ethan/developer/opendrone/tools/gcc-arm-none-eabi-7-2017-q4-major/bin/../lib/gcc/arm-none-eabi/7.2.1/thumb/v7e-m/fpv4-sp/hard/libgcc.a(_arm_muldivdf3.o)
__eqdf2                                           /home/ethan/developer/opendrone/tools/gcc-arm-none-eabi-7-2017-q4-major/bin/../lib/gcc/arm-none-eabi/7.2.1/thumb/v7e-m/fpv4-sp/hard/libgcc.a(_arm_cmpdf2.o)
__errno                                           /home/ethan/developer/opendrone/tools/gcc-arm-none-eabi-7-2017-q4-major/bin/../lib/gcc/arm-none-eabi/7.2.1/../../../../arm-none-eabi/lib/thumb/v7e-m/fpv4-sp/hard/libc_nano.a(lib_a-errno.o)
                                                  /home/ethan/developer/opendrone/tools/gcc-arm-none-eabi-7-2017-q4-major/bin/../lib/gcc/arm-none-eabi/7.2.1/../../../../arm-none-eabi/lib/thumb/v7e-m/fpv4-sp/hard/libm.a(lib_a-math_errf.o)
                                                  /home/ethan/developer/opendrone/tools/gcc-arm-none-eabi-7-2017-q4-major/bin/../lib/gcc/arm-none-eabi/7.2.1/../../../../arm-none-eabi/lib/thumb/v7e-m/fpv4-sp/hard/libm.a(lib_a-wf_sqrt.o)
__exp2f_data                                      /home/ethan/developer/opendrone/tools/gcc-arm-none-eabi-7-2017-q4-major/bin/../lib/gcc/arm-none-eabi/7.2.1/../../../../arm-none-eabi/lib/thumb/v7e-m/fpv4-sp/hard/libm.a(lib_a-sf_exp2_data.o)
                                                  /home/ethan/developer/opendrone/tools/gcc-arm-none-eabi-7-2017-q4-major/bin/../lib/gcc/arm-none-eabi/7.2.1/../../../../arm-none-eabi/lib/thumb/v7e-m/fpv4-sp/hard/libm.a(lib_a-sf_pow.o)
__extendsfdf2                                     /home/ethan/developer/opendrone/tools/gcc-arm-none-eabi-7-2017-q4-major/bin/../lib/gcc/arm-none-eabi/7.2.1/thumb/v7e-m/fpv4-sp/hard/libgcc.a(_arm_addsubdf3.o)
__fastram_bss_end__                               obj/main/OPENDRONEBRH/startup_stm32f30x_md_gcc.o
__fastram_bss_start__                             obj/main/OPENDRONEBRH/startup_stm32f30x_md_gcc.o
__fdlib_version                                   /home/ethan/developer/opendrone/tools/gcc-arm-none-eabi-7-2017-q4-major/bin/../lib/gcc/arm-none-eabi/7.2.1/../../../../arm-none-eabi/lib/thumb/v7e-m/fpv4-sp/hard/libm.a(lib_a-s_lib_ver.o)
                                                  /home/ethan/developer/opendrone/tools/gcc-arm-none-eabi-7-2017-q4-major/bin/../lib/gcc/arm-none-eabi/7.2.1/../../../../arm-none-eabi/lib/thumb/v7e-m/fpv4-sp/hard/libm.a(lib_a-wf_sqrt.o)
__fixunsdfsi                                      /home/ethan/developer/opendrone/tools/gcc-arm-none-eabi-7-2017-q4-major/bin/../lib/gcc/arm-none-eabi/7.2.1/thumb/v7e-m/fpv4-sp/hard/libgcc.a(_arm_fixunsdfsi.o)
__floatdidf                                       /home/ethan/developer/opendrone/tools/gcc-arm-none-eabi-7-2017-q4-major/bin/../lib/gcc/arm-none-eabi/7.2.1/thumb/v7e-m/fpv4-sp/hard/libgcc.a(_arm_addsubdf3.o)
__floatdisf                                       /home/ethan/developer/opendrone/tools/gcc-arm-none-eabi-7-2017-q4-major/bin/../lib/gcc/arm-none-eabi/7.2.1/thumb/v7e-m/fpv4-sp/hard/libgcc.a(_arm_addsubsf3.o)
__floatsidf                                       /home/ethan/developer/opendrone/tools/gcc-arm-none-eabi-7-2017-q4-major/bin/../lib/gcc/arm-none-eabi/7.2.1/thumb/v7e-m/fpv4-sp/hard/libgcc.a(_arm_addsubdf3.o)
__floatsisf                                       /home/ethan/developer/opendrone/tools/gcc-arm-none-eabi-7-2017-q4-major/bin/../lib/gcc/arm-none-eabi/7.2.1/thumb/v7e-m/fpv4-sp/hard/libgcc.a(_arm_addsubsf3.o)
__floatundidf                                     /home/ethan/developer/opendrone/tools/gcc-arm-none-eabi-7-2017-q4-major/bin/../lib/gcc/arm-none-eabi/7.2.1/thumb/v7e-m/fpv4-sp/hard/libgcc.a(_arm_addsubdf3.o)
__floatundisf                                     /home/ethan/developer/opendrone/tools/gcc-arm-none-eabi-7-2017-q4-major/bin/../lib/gcc/arm-none-eabi/7.2.1/thumb/v7e-m/fpv4-sp/hard/libgcc.a(_arm_addsubsf3.o)
__floatunsidf                                     /home/ethan/developer/opendrone/tools/gcc-arm-none-eabi-7-2017-q4-major/bin/../lib/gcc/arm-none-eabi/7.2.1/thumb/v7e-m/fpv4-sp/hard/libgcc.a(_arm_addsubdf3.o)
__floatunsisf                                     /home/ethan/developer/opendrone/tools/gcc-arm-none-eabi-7-2017-q4-major/bin/../lib/gcc/arm-none-eabi/7.2.1/thumb/v7e-m/fpv4-sp/hard/libgcc.a(_arm_addsubsf3.o)
__gedf2                                           /home/ethan/developer/opendrone/tools/gcc-arm-none-eabi-7-2017-q4-major/bin/../lib/gcc/arm-none-eabi/7.2.1/thumb/v7e-m/fpv4-sp/hard/libgcc.a(_arm_cmpdf2.o)
__gtdf2                                           /home/ethan/developer/opendrone/tools/gcc-arm-none-eabi-7-2017-q4-major/bin/../lib/gcc/arm-none-eabi/7.2.1/thumb/v7e-m/fpv4-sp/hard/libgcc.a(_arm_cmpdf2.o)
__ieee754_sqrtf                                   /home/ethan/developer/opendrone/tools/gcc-arm-none-eabi-7-2017-q4-major/bin/../lib/gcc/arm-none-eabi/7.2.1/../../../../arm-none-eabi/lib/thumb/v7e-m/fpv4-sp/hard/libm.a(lib_a-ef_sqrt.o)
                                                  /home/ethan/developer/opendrone/tools/gcc-arm-none-eabi-7-2017-q4-major/bin/../lib/gcc/arm-none-eabi/7.2.1/../../../../arm-none-eabi/lib/thumb/v7e-m/fpv4-sp/hard/libm.a(lib_a-wf_sqrt.o)
__ledf2                                           /home/ethan/developer/opendrone/tools/gcc-arm-none-eabi-7-2017-q4-major/bin/../lib/gcc/arm-none-eabi/7.2.1/thumb/v7e-m/fpv4-sp/hard/libgcc.a(_arm_cmpdf2.o)
__log2f_data                                      /home/ethan/developer/opendrone/tools/gcc-arm-none-eabi-7-2017-q4-major/bin/../lib/gcc/arm-none-eabi/7.2.1/../../../../arm-none-eabi/lib/thumb/v7e-m/fpv4-sp/hard/libm.a(lib_a-sf_log2_data.o)
                                                  /home/ethan/developer/opendrone/tools/gcc-arm-none-eabi-7-2017-q4-major/bin/../lib/gcc/arm-none-eabi/7.2.1/../../../../arm-none-eabi/lib/thumb/v7e-m/fpv4-sp/hard/libm.a(lib_a-sf_log2.o)
__ltdf2                                           /home/ethan/developer/opendrone/tools/gcc-arm-none-eabi-7-2017-q4-major/bin/../lib/gcc/arm-none-eabi/7.2.1/thumb/v7e-m/fpv4-sp/hard/libgcc.a(_arm_cmpdf2.o)
__math_divzerof                                   /home/ethan/developer/opendrone/tools/gcc-arm-none-eabi-7-2017-q4-major/bin/../lib/gcc/arm-none-eabi/7.2.1/../../../../arm-none-eabi/lib/thumb/v7e-m/fpv4-sp/hard/libm.a(lib_a-math_errf.o)
                                                  /home/ethan/developer/opendrone/tools/gcc-arm-none-eabi-7-2017-q4-major/bin/../lib/gcc/arm-none-eabi/7.2.1/../../../../arm-none-eabi/lib/thumb/v7e-m/fpv4-sp/hard/libm.a(lib_a-sf_pow.o)
                                                  /home/ethan/developer/opendrone/tools/gcc-arm-none-eabi-7-2017-q4-major/bin/../lib/gcc/arm-none-eabi/7.2.1/../../../../arm-none-eabi/lib/thumb/v7e-m/fpv4-sp/hard/libm.a(lib_a-sf_log2.o)
__math_invalidf                                   /home/ethan/developer/opendrone/tools/gcc-arm-none-eabi-7-2017-q4-major/bin/../lib/gcc/arm-none-eabi/7.2.1/../../../../arm-none-eabi/lib/thumb/v7e-m/fpv4-sp/hard/libm.a(lib_a-math_errf.o)
                                                  /home/ethan/developer/opendrone/tools/gcc-arm-none-eabi-7-2017-q4-major/bin/../lib/gcc/arm-none-eabi/7.2.1/../../../../arm-none-eabi/lib/thumb/v7e-m/fpv4-sp/hard/libm.a(lib_a-sf_pow.o)
                                                  /home/ethan/developer/opendrone/tools/gcc-arm-none-eabi-7-2017-q4-major/bin/../lib/gcc/arm-none-eabi/7.2.1/../../../../arm-none-eabi/lib/thumb/v7e-m/fpv4-sp/hard/libm.a(lib_a-sf_log2.o)
__math_may_uflowf                                 /home/ethan/developer/opendrone/tools/gcc-arm-none-eabi-7-2017-q4-major/bin/../lib/gcc/arm-none-eabi/7.2.1/../../../../arm-none-eabi/lib/thumb/v7e-m/fpv4-sp/hard/libm.a(lib_a-math_errf.o)
                                                  /home/ethan/developer/opendrone/tools/gcc-arm-none-eabi-7-2017-q4-major/bin/../lib/gcc/arm-none-eabi/7.2.1/../../../../arm-none-eabi/lib/thumb/v7e-m/fpv4-sp/hard/libm.a(lib_a-sf_pow.o)
__math_oflowf                                     /home/ethan/developer/opendrone/tools/gcc-arm-none-eabi-7-2017-q4-major/bin/../lib/gcc/arm-none-eabi/7.2.1/../../../../arm-none-eabi/lib/thumb/v7e-m/fpv4-sp/hard/libm.a(lib_a-math_errf.o)
                                                  /home/ethan/developer/opendrone/tools/gcc-arm-none-eabi-7-2017-q4-major/bin/../lib/gcc/arm-none-eabi/7.2.1/../../../../arm-none-eabi/lib/thumb/v7e-m/fpv4-sp/hard/libm.a(lib_a-sf_pow.o)
__math_uflowf                                     /home/ethan/developer/opendrone/tools/gcc-arm-none-eabi-7-2017-q4-major/bin/../lib/gcc/arm-none-eabi/7.2.1/../../../../arm-none-eabi/lib/thumb/v7e-m/fpv4-sp/hard/libm.a(lib_a-math_errf.o)
                                                  /home/ethan/developer/opendrone/tools/gcc-arm-none-eabi-7-2017-q4-major/bin/../lib/gcc/arm-none-eabi/7.2.1/../../../../arm-none-eabi/lib/thumb/v7e-m/fpv4-sp/hard/libm.a(lib_a-sf_pow.o)
__muldf3                                          /home/ethan/developer/opendrone/tools/gcc-arm-none-eabi-7-2017-q4-major/bin/../lib/gcc/arm-none-eabi/7.2.1/thumb/v7e-m/fpv4-sp/hard/libgcc.a(_arm_muldivdf3.o)
__nedf2                                           /home/ethan/developer/opendrone/tools/gcc-arm-none-eabi-7-2017-q4-major/bin/../lib/gcc/arm-none-eabi/7.2.1/thumb/v7e-m/fpv4-sp/hard/libgcc.a(_arm_cmpdf2.o)
__pg_registry_end                                 /tmp/ccjoD88l.ltrans1.ltrans.o
                                                  /tmp/ccjoD88l.ltrans0.ltrans.o
                                                  obj/main/OPENDRONEBRH/fc/cli.o (symbol from plugin)
                                                  obj/main/OPENDRONEBRH/config/parameter_group.o (symbol from plugin)
                                                  obj/main/OPENDRONEBRH/config/config_eeprom.o (symbol from plugin)
__pg_registry_start                               /tmp/ccjoD88l.ltrans1.ltrans.o
                                                  /tmp/ccjoD88l.ltrans0.ltrans.o
                                                  obj/main/OPENDRONEBRH/fc/cli.o (symbol from plugin)
                                                  obj/main/OPENDRONEBRH/config/parameter_group.o (symbol from plugin)
                                                  obj/main/OPENDRONEBRH/config/config_eeprom.o (symbol from plugin)
__pg_resetdata_end                                /tmp/ccjoD88l.ltrans1.ltrans.o
                                                  obj/main/OPENDRONEBRH/config/parameter_group.o (symbol from plugin)
__pg_resetdata_start                              /tmp/ccjoD88l.ltrans1.ltrans.o
                                                  obj/main/OPENDRONEBRH/config/parameter_group.o (symbol from plugin)
__popcountsi2                                     /home/ethan/developer/opendrone/tools/gcc-arm-none-eabi-7-2017-q4-major/bin/../lib/gcc/arm-none-eabi/7.2.1/thumb/v7e-m/fpv4-sp/hard/libgcc.a(_popcountsi2.o)
                                                  /tmp/ccjoD88l.ltrans1.ltrans.o
__powf_log2_data                                  /home/ethan/developer/opendrone/tools/gcc-arm-none-eabi-7-2017-q4-major/bin/../lib/gcc/arm-none-eabi/7.2.1/../../../../arm-none-eabi/lib/thumb/v7e-m/fpv4-sp/hard/libm.a(lib_a-sf_pow_log2_data.o)
                                                  /home/ethan/developer/opendrone/tools/gcc-arm-none-eabi-7-2017-q4-major/bin/../lib/gcc/arm-none-eabi/7.2.1/../../../../arm-none-eabi/lib/thumb/v7e-m/fpv4-sp/hard/libm.a(lib_a-sf_pow.o)
__sf_fake_stderr                                  /home/ethan/developer/opendrone/tools/gcc-arm-none-eabi-7-2017-q4-major/bin/../lib/gcc/arm-none-eabi/7.2.1/../../../../arm-none-eabi/lib/thumb/v7e-m/fpv4-sp/hard/libc_nano.a(lib_a-impure.o)
__sf_fake_stdin                                   /home/ethan/developer/opendrone/tools/gcc-arm-none-eabi-7-2017-q4-major/bin/../lib/gcc/arm-none-eabi/7.2.1/../../../../arm-none-eabi/lib/thumb/v7e-m/fpv4-sp/hard/libc_nano.a(lib_a-impure.o)
__sf_fake_stdout                                  /home/ethan/developer/opendrone/tools/gcc-arm-none-eabi-7-2017-q4-major/bin/../lib/gcc/arm-none-eabi/7.2.1/../../../../arm-none-eabi/lib/thumb/v7e-m/fpv4-sp/hard/libc_nano.a(lib_a-impure.o)
__strtok_r                                        /home/ethan/developer/opendrone/tools/gcc-arm-none-eabi-7-2017-q4-major/bin/../lib/gcc/arm-none-eabi/7.2.1/../../../../arm-none-eabi/lib/thumb/v7e-m/fpv4-sp/hard/libc_nano.a(lib_a-strtok_r.o)
__subdf3                                          /home/ethan/developer/opendrone/tools/gcc-arm-none-eabi-7-2017-q4-major/bin/../lib/gcc/arm-none-eabi/7.2.1/thumb/v7e-m/fpv4-sp/hard/libgcc.a(_arm_addsubdf3.o)
__subsf3                                          /home/ethan/developer/opendrone/tools/gcc-arm-none-eabi-7-2017-q4-major/bin/../lib/gcc/arm-none-eabi/7.2.1/thumb/v7e-m/fpv4-sp/hard/libgcc.a(_arm_addsubsf3.o)
__truncdfsf2                                      /home/ethan/developer/opendrone/tools/gcc-arm-none-eabi-7-2017-q4-major/bin/../lib/gcc/arm-none-eabi/7.2.1/thumb/v7e-m/fpv4-sp/hard/libgcc.a(_arm_truncdfsf2.o)
__udivmoddi4                                      /home/ethan/developer/opendrone/tools/gcc-arm-none-eabi-7-2017-q4-major/bin/../lib/gcc/arm-none-eabi/7.2.1/thumb/v7e-m/fpv4-sp/hard/libgcc.a(_udivmoddi4.o)
                                                  /home/ethan/developer/opendrone/tools/gcc-arm-none-eabi-7-2017-q4-major/bin/../lib/gcc/arm-none-eabi/7.2.1/thumb/v7e-m/fpv4-sp/hard/libgcc.a(_aeabi_uldivmod.o)
                                                  /home/ethan/developer/opendrone/tools/gcc-arm-none-eabi-7-2017-q4-major/bin/../lib/gcc/arm-none-eabi/7.2.1/thumb/v7e-m/fpv4-sp/hard/libgcc.a(_aeabi_ldivmod.o)
_ebss                                             obj/main/OPENDRONEBRH/startup_stm32f30x_md_gcc.o
_edata                                            obj/main/OPENDRONEBRH/startup_stm32f30x_md_gcc.o
_estack                                           /tmp/ccjoD88l.ltrans0.ltrans.o
                                                  obj/main/OPENDRONEBRH/drivers/stack_check.o (symbol from plugin)
                                                  obj/main/OPENDRONEBRH/startup_stm32f30x_md_gcc.o
_global_impure_ptr                                /home/ethan/developer/opendrone/tools/gcc-arm-none-eabi-7-2017-q4-major/bin/../lib/gcc/arm-none-eabi/7.2.1/../../../../arm-none-eabi/lib/thumb/v7e-m/fpv4-sp/hard/libc_nano.a(lib_a-impure.o)
_heap_stack_begin                                 obj/main/OPENDRONEBRH/startup_stm32f30x_md_gcc.o
_heap_stack_end                                   obj/main/OPENDRONEBRH/startup_stm32f30x_md_gcc.o
_impure_ptr                                       /home/ethan/developer/opendrone/tools/gcc-arm-none-eabi-7-2017-q4-major/bin/../lib/gcc/arm-none-eabi/7.2.1/../../../../arm-none-eabi/lib/thumb/v7e-m/fpv4-sp/hard/libc_nano.a(lib_a-impure.o)
                                                  /home/ethan/developer/opendrone/tools/gcc-arm-none-eabi-7-2017-q4-major/bin/../lib/gcc/arm-none-eabi/7.2.1/../../../../arm-none-eabi/lib/thumb/v7e-m/fpv4-sp/hard/libc_nano.a(lib_a-errno.o)
_sbss                                             obj/main/OPENDRONEBRH/startup_stm32f30x_md_gcc.o
_sdata                                            obj/main/OPENDRONEBRH/startup_stm32f30x_md_gcc.o
_sidata                                           obj/main/OPENDRONEBRH/startup_stm32f30x_md_gcc.o
a2d                                               obj/main/OPENDRONEBRH/common/typeconversion.o (symbol from plugin)
a2i                                               obj/main/OPENDRONEBRH/common/typeconversion.o (symbol from plugin)
                                                  obj/main/OPENDRONEBRH/common/printf.o (symbol from plugin)
abortForcedRTH                                    obj/main/OPENDRONEBRH/navigation/navigation.o (symbol from plugin)
                                                  obj/main/OPENDRONEBRH/flight/failsafe.o (symbol from plugin)
acc                                               /tmp/ccjoD88l.ltrans4.ltrans.o
                                                  obj/main/OPENDRONEBRH/sensors/acceleration.o (symbol from plugin)
                                                  /tmp/ccjoD88l.ltrans5.ltrans.o
                                                  /tmp/ccjoD88l.ltrans2.ltrans.o
                                                  /tmp/ccjoD88l.ltrans1.ltrans.o
                                                  obj/main/OPENDRONEBRH/flight/imu.o (symbol from plugin)
                                                  obj/main/OPENDRONEBRH/fc/fc_msp.o (symbol from plugin)
                                                  obj/main/OPENDRONEBRH/telemetry/smartport.o (symbol from plugin)
                                                  obj/main/OPENDRONEBRH/telemetry/frsky.o (symbol from plugin)
accFilter.lto_priv.247                            /tmp/ccjoD88l.ltrans4.ltrans.o
                                                  /tmp/ccjoD88l.ltrans5.ltrans.o
accGetCalibrationAxisFlags                        /tmp/ccjoD88l.ltrans4.ltrans.o
                                                  obj/main/OPENDRONEBRH/sensors/acceleration.o (symbol from plugin)
                                                  /tmp/ccjoD88l.ltrans2.ltrans.o
                                                  obj/main/OPENDRONEBRH/fc/fc_msp.o (symbol from plugin)
accGetMeasuredAcceleration                        obj/main/OPENDRONEBRH/sensors/acceleration.o (symbol from plugin)
                                                  obj/main/OPENDRONEBRH/flight/imu.o (symbol from plugin)
accInit                                           obj/main/OPENDRONEBRH/sensors/acceleration.o (symbol from plugin)
                                                  obj/main/OPENDRONEBRH/sensors/initialisation.o (symbol from plugin)
accInitFilters                                    /tmp/ccjoD88l.ltrans4.ltrans.o
                                                  obj/main/OPENDRONEBRH/sensors/acceleration.o (symbol from plugin)
                                                  /tmp/ccjoD88l.ltrans0.ltrans.o
                                                  obj/main/OPENDRONEBRH/fc/config.o (symbol from plugin)
accIsCalibrationComplete                          obj/main/OPENDRONEBRH/sensors/acceleration.o (symbol from plugin)
                                                  obj/main/OPENDRONEBRH/fc/fc_core.o (symbol from plugin)
accIsHealthy                                      obj/main/OPENDRONEBRH/sensors/acceleration.o (symbol from plugin)
                                                  obj/main/OPENDRONEBRH/sensors/diagnostics.o (symbol from plugin)
accNotchFilter.lto_priv.249                       /tmp/ccjoD88l.ltrans4.ltrans.o
                                                  /tmp/ccjoD88l.ltrans5.ltrans.o
accNotchFilterApplyFn.lto_priv.248                /tmp/ccjoD88l.ltrans4.ltrans.o
                                                  /tmp/ccjoD88l.ltrans5.ltrans.o
accSetCalibrationCycles                           obj/main/OPENDRONEBRH/sensors/acceleration.o (symbol from plugin)
                                                  obj/main/OPENDRONEBRH/fc/rc_controls.o (symbol from plugin)
                                                  obj/main/OPENDRONEBRH/fc/fc_msp.o (symbol from plugin)
accSetCalibrationValues                           obj/main/OPENDRONEBRH/sensors/acceleration.o (symbol from plugin)
                                                  obj/main/OPENDRONEBRH/fc/config.o (symbol from plugin)
accUpdate                                         obj/main/OPENDRONEBRH/sensors/acceleration.o (symbol from plugin)
                                                  obj/main/OPENDRONEBRH/flight/imu.o (symbol from plugin)
accelerometerConfig_Copy                          obj/main/OPENDRONEBRH/sensors/acceleration.o (symbol from plugin)
accelerometerConfig_Registry                      /tmp/ccjoD88l.ltrans4.ltrans.o
                                                  obj/main/OPENDRONEBRH/sensors/acceleration.o (symbol from plugin)
accelerometerConfig_System                        /tmp/ccjoD88l.ltrans4.ltrans.o
                                                  obj/main/OPENDRONEBRH/sensors/acceleration.o (symbol from plugin)
                                                  /tmp/ccjoD88l.ltrans5.ltrans.o
                                                  /tmp/ccjoD88l.ltrans2.ltrans.o
                                                  /tmp/ccjoD88l.ltrans0.ltrans.o
                                                  obj/main/OPENDRONEBRH/sensors/initialisation.o (symbol from plugin)
                                                  obj/main/OPENDRONEBRH/fc/fc_msp.o (symbol from plugin)
                                                  obj/main/OPENDRONEBRH/fc/config.o (symbol from plugin)
accumulatedRateTimeUs.lto_priv.366                /tmp/ccjoD88l.ltrans5.ltrans.o
                                                  /tmp/ccjoD88l.ltrans0.ltrans.o
accumulatedRates.lto_priv.367                     /tmp/ccjoD88l.ltrans5.ltrans.o
                                                  /tmp/ccjoD88l.ltrans0.ltrans.o
acos_approx                                       obj/main/OPENDRONEBRH/common/maths.o (symbol from plugin)
                                                  obj/main/OPENDRONEBRH/flight/imu.o (symbol from plugin)
activateControlRateConfig                         obj/main/OPENDRONEBRH/fc/controlrate_profile.o (symbol from plugin)
                                                  obj/main/OPENDRONEBRH/fc/config.o (symbol from plugin)
activateForcedRTH                                 obj/main/OPENDRONEBRH/navigation/navigation.o (symbol from plugin)
                                                  obj/main/OPENDRONEBRH/flight/failsafe.o (symbol from plugin)
activeBoxIdCount                                  /tmp/ccjoD88l.ltrans5.ltrans.o
                                                  obj/main/OPENDRONEBRH/fc/fc_msp_box.o (symbol from plugin)
                                                  /tmp/ccjoD88l.ltrans2.ltrans.o
                                                  /tmp/ccjoD88l.ltrans1.ltrans.o
activeBoxIds.lto_priv.272                         /tmp/ccjoD88l.ltrans5.ltrans.o
                                                  /tmp/ccjoD88l.ltrans2.ltrans.o
                                                  /tmp/ccjoD88l.ltrans1.ltrans.o
activeFeaturesLatch.lto_priv.236                  /tmp/ccjoD88l.ltrans4.ltrans.o
                                                  /tmp/ccjoD88l.ltrans5.ltrans.o
                                                  /tmp/ccjoD88l.ltrans3.ltrans.o
                                                  /tmp/ccjoD88l.ltrans2.ltrans.o
                                                  /tmp/ccjoD88l.ltrans1.ltrans.o
                                                  /tmp/ccjoD88l.ltrans0.ltrans.o
adcChannelByTag                                   obj/main/OPENDRONEBRH/drivers/adc.o (symbol from plugin)
                                                  obj/main/OPENDRONEBRH/drivers/adc_stm32f30x.o (symbol from plugin)
adcChannelConfig_Copy                             obj/main/OPENDRONEBRH/fc/config.o (symbol from plugin)
adcChannelConfig_Registry                         /tmp/ccjoD88l.ltrans0.ltrans.o
                                                  obj/main/OPENDRONEBRH/fc/config.o (symbol from plugin)
adcChannelConfig_System                           /tmp/ccjoD88l.ltrans0.ltrans.o
                                                  obj/main/OPENDRONEBRH/fc/config.o (symbol from plugin)
                                                  /tmp/ccjoD88l.ltrans1.ltrans.o
                                                  obj/main/OPENDRONEBRH/fc/fc_init.o (symbol from plugin)
                                                  obj/main/OPENDRONEBRH/fc/cli.o (symbol from plugin)
adcConfig                                         obj/main/OPENDRONEBRH/drivers/adc.o (symbol from plugin)
                                                  obj/main/OPENDRONEBRH/drivers/adc_stm32f30x.o (symbol from plugin)
adcDeviceByInstance                               obj/main/OPENDRONEBRH/drivers/adc_stm32f30x.o (symbol from plugin)
                                                  obj/main/OPENDRONEBRH/drivers/adc.o (symbol from plugin)
adcFunctionMap.lto_priv.377                       /tmp/ccjoD88l.ltrans4.ltrans.o
                                                  /tmp/ccjoD88l.ltrans1.ltrans.o
                                                  /tmp/ccjoD88l.ltrans0.ltrans.o
adcGetChannel                                     /tmp/ccjoD88l.ltrans1.ltrans.o
                                                  obj/main/OPENDRONEBRH/drivers/adc.o (symbol from plugin)
                                                  /tmp/ccjoD88l.ltrans4.ltrans.o
                                                  /tmp/ccjoD88l.ltrans2.ltrans.o
                                                  /tmp/ccjoD88l.ltrans0.ltrans.o
                                                  obj/main/OPENDRONEBRH/sensors/battery.o (symbol from plugin)
                                                  obj/main/OPENDRONEBRH/rx/rx.o (symbol from plugin)
                                                  obj/main/OPENDRONEBRH/drivers/pitotmeter_adc.o (symbol from plugin)
adcGetFunctionChannelAllocation                   obj/main/OPENDRONEBRH/drivers/adc.o (symbol from plugin)
                                                  obj/main/OPENDRONEBRH/fc/cli.o (symbol from plugin)
adcHardwareInit                                   obj/main/OPENDRONEBRH/drivers/adc_stm32f30x.o (symbol from plugin)
                                                  obj/main/OPENDRONEBRH/drivers/adc.o (symbol from plugin)
adcInit                                           obj/main/OPENDRONEBRH/drivers/adc.o (symbol from plugin)
                                                  obj/main/OPENDRONEBRH/fc/fc_init.o (symbol from plugin)
adcIsFunctionAssigned                             obj/main/OPENDRONEBRH/drivers/adc.o (symbol from plugin)
                                                  obj/main/OPENDRONEBRH/drivers/pitotmeter_adc.o (symbol from plugin)
adcPitotCalculate.lto_priv.225                    /tmp/ccjoD88l.ltrans1.ltrans.o
                                                  /tmp/ccjoD88l.ltrans4.ltrans.o
adcPitotDetect                                    obj/main/OPENDRONEBRH/drivers/pitotmeter_adc.o (symbol from plugin)
                                                  obj/main/OPENDRONEBRH/sensors/pitotmeter.o (symbol from plugin)
adcPitotRead.lto_priv.224                         /tmp/ccjoD88l.ltrans1.ltrans.o
                                                  /tmp/ccjoD88l.ltrans4.ltrans.o
adcPitotStart.lto_priv.223                        /tmp/ccjoD88l.ltrans1.ltrans.o
                                                  /tmp/ccjoD88l.ltrans4.ltrans.o
adcTagMap                                         obj/main/OPENDRONEBRH/drivers/adc_stm32f30x.o (symbol from plugin)
                                                  obj/main/OPENDRONEBRH/drivers/adc.o (symbol from plugin)
adcValues                                         obj/main/OPENDRONEBRH/drivers/adc.o (symbol from plugin)
                                                  obj/main/OPENDRONEBRH/drivers/adc_stm32f30x.o (symbol from plugin)
addBootlogEntry.lto_priv.230                      /tmp/ccjoD88l.ltrans1.ltrans.o
                                                  /tmp/ccjoD88l.ltrans4.ltrans.o
addBootlogEvent2                                  obj/main/OPENDRONEBRH/drivers/logging.o (symbol from plugin)
                                                  obj/main/OPENDRONEBRH/fc/fc_init.o (symbol from plugin)
addBootlogEvent2.constprop.75                     /tmp/ccjoD88l.ltrans4.ltrans.o
                                                  /tmp/ccjoD88l.ltrans1.ltrans.o
addBootlogEvent4                                  obj/main/OPENDRONEBRH/drivers/logging.o (symbol from plugin)
addBootlogEvent6                                  /tmp/ccjoD88l.ltrans1.ltrans.o
                                                  obj/main/OPENDRONEBRH/drivers/logging.o (symbol from plugin)
                                                  /tmp/ccjoD88l.ltrans4.ltrans.o
                                                  obj/main/OPENDRONEBRH/sensors/gyro.o (symbol from plugin)
                                                  obj/main/OPENDRONEBRH/sensors/acceleration.o (symbol from plugin)
                                                  obj/main/OPENDRONEBRH/drivers/pwm_mapping.o (symbol from plugin)
                                                  obj/main/OPENDRONEBRH/sensors/pitotmeter.o (symbol from plugin)
                                                  obj/main/OPENDRONEBRH/sensors/barometer.o (symbol from plugin)
addGPSCoordinates                                 obj/main/OPENDRONEBRH/telemetry/hott.o (symbol from plugin)
adjustFixedWingAltitudeFromRCInput                obj/main/OPENDRONEBRH/navigation/navigation_fixedwing.o (symbol from plugin)
                                                  obj/main/OPENDRONEBRH/navigation/navigation.o (symbol from plugin)
adjustFixedWingHeadingFromRCInput                 obj/main/OPENDRONEBRH/navigation/navigation_fixedwing.o (symbol from plugin)
                                                  obj/main/OPENDRONEBRH/navigation/navigation.o (symbol from plugin)
adjustFixedWingPositionFromRCInput                obj/main/OPENDRONEBRH/navigation/navigation_fixedwing.o (symbol from plugin)
                                                  obj/main/OPENDRONEBRH/navigation/navigation.o (symbol from plugin)
adjustMulticopterAltitudeFromRCInput              obj/main/OPENDRONEBRH/navigation/navigation_multicopter.o (symbol from plugin)
                                                  obj/main/OPENDRONEBRH/navigation/navigation.o (symbol from plugin)
adjustMulticopterHeadingFromRCInput               obj/main/OPENDRONEBRH/navigation/navigation_multicopter.o (symbol from plugin)
                                                  obj/main/OPENDRONEBRH/navigation/navigation.o (symbol from plugin)
adjustMulticopterPositionFromRCInput              obj/main/OPENDRONEBRH/navigation/navigation_multicopter.o (symbol from plugin)
                                                  obj/main/OPENDRONEBRH/navigation/navigation.o (symbol from plugin)
adjustmentRanges_CopyArray                        /tmp/ccjoD88l.ltrans2.ltrans.o
                                                  obj/main/OPENDRONEBRH/fc/rc_adjustments.o (symbol from plugin)
                                                  /tmp/ccjoD88l.ltrans0.ltrans.o
                                                  obj/main/OPENDRONEBRH/fc/cli.o (symbol from plugin)
adjustmentRanges_Registry                         /tmp/ccjoD88l.ltrans2.ltrans.o
                                                  obj/main/OPENDRONEBRH/fc/rc_adjustments.o (symbol from plugin)
adjustmentRanges_SystemArray                      /tmp/ccjoD88l.ltrans2.ltrans.o
                                                  obj/main/OPENDRONEBRH/fc/rc_adjustments.o (symbol from plugin)
                                                  /tmp/ccjoD88l.ltrans0.ltrans.o
                                                  obj/main/OPENDRONEBRH/fc/fc_msp.o (symbol from plugin)
                                                  obj/main/OPENDRONEBRH/fc/cli.o (symbol from plugin)
afatfs_chdir                                      obj/main/OPENDRONEBRH/io/asyncfatfs/asyncfatfs.o (symbol from plugin)
afatfs_destroy                                    obj/main/OPENDRONEBRH/io/asyncfatfs/asyncfatfs.o (symbol from plugin)
afatfs_fclose                                     obj/main/OPENDRONEBRH/io/asyncfatfs/asyncfatfs.o (symbol from plugin)
afatfs_feof                                       obj/main/OPENDRONEBRH/io/asyncfatfs/asyncfatfs.o (symbol from plugin)
afatfs_findFirst                                  obj/main/OPENDRONEBRH/io/asyncfatfs/asyncfatfs.o (symbol from plugin)
afatfs_findLast                                   obj/main/OPENDRONEBRH/io/asyncfatfs/asyncfatfs.o (symbol from plugin)
afatfs_findNext                                   obj/main/OPENDRONEBRH/io/asyncfatfs/asyncfatfs.o (symbol from plugin)
afatfs_flush                                      obj/main/OPENDRONEBRH/io/asyncfatfs/asyncfatfs.o (symbol from plugin)
afatfs_fopen                                      obj/main/OPENDRONEBRH/io/asyncfatfs/asyncfatfs.o (symbol from plugin)
afatfs_fputc                                      obj/main/OPENDRONEBRH/io/asyncfatfs/asyncfatfs.o (symbol from plugin)
afatfs_fread                                      obj/main/OPENDRONEBRH/io/asyncfatfs/asyncfatfs.o (symbol from plugin)
afatfs_fseek                                      obj/main/OPENDRONEBRH/io/asyncfatfs/asyncfatfs.o (symbol from plugin)
afatfs_ftell                                      obj/main/OPENDRONEBRH/io/asyncfatfs/asyncfatfs.o (symbol from plugin)
afatfs_ftruncate                                  obj/main/OPENDRONEBRH/io/asyncfatfs/asyncfatfs.o (symbol from plugin)
afatfs_funlink                                    obj/main/OPENDRONEBRH/io/asyncfatfs/asyncfatfs.o (symbol from plugin)
afatfs_fwrite                                     obj/main/OPENDRONEBRH/io/asyncfatfs/asyncfatfs.o (symbol from plugin)
afatfs_getContiguousFreeSpace                     obj/main/OPENDRONEBRH/io/asyncfatfs/asyncfatfs.o (symbol from plugin)
afatfs_getFilesystemState                         obj/main/OPENDRONEBRH/io/asyncfatfs/asyncfatfs.o (symbol from plugin)
afatfs_getFreeBufferSpace                         obj/main/OPENDRONEBRH/io/asyncfatfs/asyncfatfs.o (symbol from plugin)
afatfs_getLastError                               obj/main/OPENDRONEBRH/io/asyncfatfs/asyncfatfs.o (symbol from plugin)
afatfs_init                                       obj/main/OPENDRONEBRH/io/asyncfatfs/asyncfatfs.o (symbol from plugin)
afatfs_isFull                                     obj/main/OPENDRONEBRH/io/asyncfatfs/asyncfatfs.o (symbol from plugin)
afatfs_mkdir                                      obj/main/OPENDRONEBRH/io/asyncfatfs/asyncfatfs.o (symbol from plugin)
afatfs_poll                                       obj/main/OPENDRONEBRH/io/asyncfatfs/asyncfatfs.o (symbol from plugin)
altHoldThrottleRCZero.lto_priv.523                /tmp/ccjoD88l.ltrans0.ltrans.o
                                                  /tmp/ccjoD88l.ltrans3.ltrans.o
amperage.lto_priv.495                             /tmp/ccjoD88l.ltrans2.ltrans.o
                                                  /tmp/ccjoD88l.ltrans3.ltrans.o
                                                  /tmp/ccjoD88l.ltrans1.ltrans.o
annexCode                                         obj/main/OPENDRONEBRH/fc/fc_core.o (symbol from plugin)
applyAndSaveBoardAlignmentDelta                   obj/main/OPENDRONEBRH/fc/config.o (symbol from plugin)
                                                  obj/main/OPENDRONEBRH/fc/rc_controls.o (symbol from plugin)
applyBoardAlignment                               obj/main/OPENDRONEBRH/sensors/boardalignment.o (symbol from plugin)
                                                  obj/main/OPENDRONEBRH/sensors/gyro.o (symbol from plugin)
                                                  obj/main/OPENDRONEBRH/sensors/acceleration.o (symbol from plugin)
applyBoardAlignment.part.1                        /tmp/ccjoD88l.ltrans4.ltrans.o
                                                  /tmp/ccjoD88l.ltrans5.ltrans.o
                                                  /tmp/ccjoD88l.ltrans0.ltrans.o
applyChangedBits                                  obj/main/OPENDRONEBRH/drivers/serial_softserial.o (symbol from plugin)
applyDeadband                                     /tmp/ccjoD88l.ltrans1.ltrans.o
                                                  obj/main/OPENDRONEBRH/common/maths.o (symbol from plugin)
                                                  /tmp/ccjoD88l.ltrans3.ltrans.o
                                                  /tmp/ccjoD88l.ltrans0.ltrans.o
                                                  obj/main/OPENDRONEBRH/fc/fc_core.o (symbol from plugin)
                                                  obj/main/OPENDRONEBRH/navigation/navigation_multicopter.o (symbol from plugin)
                                                  obj/main/OPENDRONEBRH/navigation/navigation_fixedwing.o (symbol from plugin)
applyFixedWingAltitudeAndThrottleController       obj/main/OPENDRONEBRH/navigation/navigation_fixedwing.o (symbol from plugin)
applyFixedWingEmergencyLandingController          obj/main/OPENDRONEBRH/navigation/navigation_fixedwing.o (symbol from plugin)
applyFixedWingLaunchController                    obj/main/OPENDRONEBRH/navigation/navigation_fw_launch.o (symbol from plugin)
                                                  obj/main/OPENDRONEBRH/navigation/navigation_fixedwing.o (symbol from plugin)
applyFixedWingMinSpeedController                  obj/main/OPENDRONEBRH/navigation/navigation_fixedwing.o (symbol from plugin)
applyFixedWingNavigationController                /tmp/ccjoD88l.ltrans3.ltrans.o
                                                  obj/main/OPENDRONEBRH/navigation/navigation_fixedwing.o (symbol from plugin)
                                                  /tmp/ccjoD88l.ltrans0.ltrans.o
                                                  obj/main/OPENDRONEBRH/navigation/navigation.o (symbol from plugin)
applyFixedWingPitchRollThrottleController         obj/main/OPENDRONEBRH/navigation/navigation_fixedwing.o (symbol from plugin)
applyFixedWingPositionController                  obj/main/OPENDRONEBRH/navigation/navigation_fixedwing.o (symbol from plugin)
applyMulticopterNavigationController              obj/main/OPENDRONEBRH/navigation/navigation_multicopter.o (symbol from plugin)
                                                  obj/main/OPENDRONEBRH/navigation/navigation.o (symbol from plugin)
applySensorAlignment                              /tmp/ccjoD88l.ltrans4.ltrans.o
                                                  obj/main/OPENDRONEBRH/sensors/boardalignment.o (symbol from plugin)
                                                  /tmp/ccjoD88l.ltrans5.ltrans.o
                                                  /tmp/ccjoD88l.ltrans0.ltrans.o
                                                  obj/main/OPENDRONEBRH/sensors/gyro.o (symbol from plugin)
                                                  obj/main/OPENDRONEBRH/sensors/acceleration.o (symbol from plugin)
applyWaypointNavigationAndAltitudeHold            obj/main/OPENDRONEBRH/navigation/navigation.o (symbol from plugin)
                                                  obj/main/OPENDRONEBRH/fc/fc_core.o (symbol from plugin)
areSticksDeflectedMoreThanPosHoldDeadband         /tmp/ccjoD88l.ltrans5.ltrans.o
                                                  obj/main/OPENDRONEBRH/fc/rc_controls.o (symbol from plugin)
                                                  /tmp/ccjoD88l.ltrans3.ltrans.o
                                                  /tmp/ccjoD88l.ltrans0.ltrans.o
                                                  obj/main/OPENDRONEBRH/fc/fc_core.o (symbol from plugin)
                                                  obj/main/OPENDRONEBRH/navigation/navigation_fw_launch.o (symbol from plugin)
                                                  obj/main/OPENDRONEBRH/navigation/navigation.o (symbol from plugin)
areSticksInApModePosition                         obj/main/OPENDRONEBRH/fc/rc_controls.o (symbol from plugin)
armingConfig_Copy                                 obj/main/OPENDRONEBRH/fc/rc_controls.o (symbol from plugin)
armingConfig_Registry                             /tmp/ccjoD88l.ltrans2.ltrans.o
                                                  obj/main/OPENDRONEBRH/fc/rc_controls.o (symbol from plugin)
armingConfig_System                               /tmp/ccjoD88l.ltrans2.ltrans.o
                                                  obj/main/OPENDRONEBRH/fc/rc_controls.o (symbol from plugin)
                                                  /tmp/ccjoD88l.ltrans0.ltrans.o
                                                  obj/main/OPENDRONEBRH/fc/fc_msp.o (symbol from plugin)
                                                  obj/main/OPENDRONEBRH/fc/fc_core.o (symbol from plugin)
armingDisableFlagNames                            obj/main/OPENDRONEBRH/fc/runtime_config.o (symbol from plugin)
                                                  obj/main/OPENDRONEBRH/fc/cli.o (symbol from plugin)
armingFlags                                       /tmp/ccjoD88l.ltrans4.ltrans.o
                                                  obj/main/OPENDRONEBRH/fc/runtime_config.o (symbol from plugin)
                                                  /tmp/ccjoD88l.ltrans5.ltrans.o
                                                  /tmp/ccjoD88l.ltrans3.ltrans.o
                                                  /tmp/ccjoD88l.ltrans2.ltrans.o
                                                  /tmp/ccjoD88l.ltrans1.ltrans.o
                                                  /tmp/ccjoD88l.ltrans0.ltrans.o
                                                  obj/main/OPENDRONEBRH/sensors/battery.o (symbol from plugin)
                                                  obj/main/OPENDRONEBRH/io/rcdevice_cam.o (symbol from plugin)
                                                  obj/main/OPENDRONEBRH/flight/servos.o (symbol from plugin)
                                                  obj/main/OPENDRONEBRH/flight/pid_autotune.o (symbol from plugin)
                                                  obj/main/OPENDRONEBRH/flight/mixer.o (symbol from plugin)
                                                  obj/main/OPENDRONEBRH/flight/imu.o (symbol from plugin)
                                                  obj/main/OPENDRONEBRH/flight/failsafe.o (symbol from plugin)
                                                  obj/main/OPENDRONEBRH/fc/rc_controls.o (symbol from plugin)
                                                  obj/main/OPENDRONEBRH/fc/fc_msp_box.o (symbol from plugin)
                                                  obj/main/OPENDRONEBRH/fc/fc_msp.o (symbol from plugin)
                                                  obj/main/OPENDRONEBRH/fc/fc_tasks.o (symbol from plugin)
                                                  obj/main/OPENDRONEBRH/fc/fc_core.o (symbol from plugin)
                                                  obj/main/OPENDRONEBRH/fc/cli.o (symbol from plugin)
                                                  obj/main/OPENDRONEBRH/common/memory.o (symbol from plugin)
                                                  obj/main/OPENDRONEBRH/telemetry/telemetry.o (symbol from plugin)
                                                  obj/main/OPENDRONEBRH/telemetry/smartport.o (symbol from plugin)
                                                  obj/main/OPENDRONEBRH/telemetry/mavlink.o (symbol from plugin)
                                                  obj/main/OPENDRONEBRH/telemetry/ibus_shared.o (symbol from plugin)
                                                  obj/main/OPENDRONEBRH/telemetry/frsky.o (symbol from plugin)
                                                  obj/main/OPENDRONEBRH/navigation/navigation_pos_estimator.o (symbol from plugin)
                                                  obj/main/OPENDRONEBRH/navigation/navigation.o (symbol from plugin)
arraySubInt32                                     obj/main/OPENDRONEBRH/common/maths.o (symbol from plugin)
atan2_approx                                      /tmp/ccjoD88l.ltrans1.ltrans.o
                                                  obj/main/OPENDRONEBRH/common/maths.o (symbol from plugin)
                                                  /tmp/ccjoD88l.ltrans5.ltrans.o
                                                  /tmp/ccjoD88l.ltrans3.ltrans.o
                                                  /tmp/ccjoD88l.ltrans0.ltrans.o
                                                  obj/main/OPENDRONEBRH/flight/imu.o (symbol from plugin)
                                                  obj/main/OPENDRONEBRH/navigation/navigation_multicopter.o (symbol from plugin)
                                                  obj/main/OPENDRONEBRH/navigation/navigation_fixedwing.o (symbol from plugin)
                                                  obj/main/OPENDRONEBRH/navigation/navigation.o (symbol from plugin)
attitude                                          /tmp/ccjoD88l.ltrans5.ltrans.o
                                                  obj/main/OPENDRONEBRH/flight/imu.o (symbol from plugin)
                                                  /tmp/ccjoD88l.ltrans3.ltrans.o
                                                  /tmp/ccjoD88l.ltrans2.ltrans.o
                                                  /tmp/ccjoD88l.ltrans1.ltrans.o
                                                  /tmp/ccjoD88l.ltrans0.ltrans.o
                                                  obj/main/OPENDRONEBRH/flight/servos.o (symbol from plugin)
                                                  obj/main/OPENDRONEBRH/flight/pid.o (symbol from plugin)
                                                  obj/main/OPENDRONEBRH/fc/fc_msp.o (symbol from plugin)
                                                  obj/main/OPENDRONEBRH/fc/fc_core.o (symbol from plugin)
                                                  obj/main/OPENDRONEBRH/telemetry/smartport.o (symbol from plugin)
                                                  obj/main/OPENDRONEBRH/telemetry/mavlink.o (symbol from plugin)
                                                  obj/main/OPENDRONEBRH/telemetry/ibus_shared.o (symbol from plugin)
                                                  obj/main/OPENDRONEBRH/telemetry/frsky.o (symbol from plugin)
                                                  obj/main/OPENDRONEBRH/telemetry/crsf.o (symbol from plugin)
                                                  obj/main/OPENDRONEBRH/navigation/navigation_pos_estimator.o (symbol from plugin)
autotuneCheckUpdateGains                          obj/main/OPENDRONEBRH/flight/pid_autotune.o (symbol from plugin)
autotuneFixedWingUpdate                           obj/main/OPENDRONEBRH/flight/pid_autotune.o (symbol from plugin)
                                                  obj/main/OPENDRONEBRH/flight/pid.o (symbol from plugin)
autotuneStart                                     obj/main/OPENDRONEBRH/flight/pid_autotune.o (symbol from plugin)
autotuneUpdateGains                               /tmp/ccjoD88l.ltrans5.ltrans.o
                                                  obj/main/OPENDRONEBRH/flight/pid_autotune.o (symbol from plugin)
                                                  /tmp/ccjoD88l.ltrans0.ltrans.o
autotuneUpdateState                               obj/main/OPENDRONEBRH/flight/pid_autotune.o (symbol from plugin)
                                                  obj/main/OPENDRONEBRH/fc/fc_core.o (symbol from plugin)
averageSystemLoadPercent                          /tmp/ccjoD88l.ltrans4.ltrans.o
                                                  obj/main/OPENDRONEBRH/scheduler/scheduler.o (symbol from plugin)
                                                  /tmp/ccjoD88l.ltrans2.ltrans.o
                                                  /tmp/ccjoD88l.ltrans0.ltrans.o
                                                  obj/main/OPENDRONEBRH/fc/fc_msp.o (symbol from plugin)
                                                  obj/main/OPENDRONEBRH/fc/fc_core.o (symbol from plugin)
                                                  obj/main/OPENDRONEBRH/fc/cli.o (symbol from plugin)
axisPID                                           obj/main/OPENDRONEBRH/flight/pid.o (symbol from plugin)
                                                  obj/main/OPENDRONEBRH/flight/servos.o (symbol from plugin)
                                                  obj/main/OPENDRONEBRH/flight/mixer.o (symbol from plugin)
bDeviceState                                      /tmp/ccjoD88l.ltrans4.ltrans.o
                                                  obj/main/OPENDRONEBRH/vcp/usb_pwr.o (symbol from plugin)
                                                  /tmp/ccjoD88l.ltrans3.ltrans.o
                                                  obj/main/OPENDRONEBRH/vcp/usb_prop.o (symbol from plugin)
                                                  obj/main/OPENDRONEBRH/vcp/hw_config.o (symbol from plugin)
bIntPackSOF                                       obj/main/OPENDRONEBRH/vcp/usb_istr.o (symbol from plugin)
baro                                              /tmp/ccjoD88l.ltrans4.ltrans.o
                                                  obj/main/OPENDRONEBRH/sensors/barometer.o (symbol from plugin)
                                                  /tmp/ccjoD88l.ltrans3.ltrans.o
                                                  /tmp/ccjoD88l.ltrans2.ltrans.o
                                                  obj/main/OPENDRONEBRH/rx/jetiexbus.o (symbol from plugin)
                                                  obj/main/OPENDRONEBRH/telemetry/ibus_shared.o (symbol from plugin)
                                                  obj/main/OPENDRONEBRH/telemetry/frsky.o (symbol from plugin)
baroCalculateAltitude                             obj/main/OPENDRONEBRH/sensors/barometer.o (symbol from plugin)
                                                  obj/main/OPENDRONEBRH/navigation/navigation_pos_estimator.o (symbol from plugin)
baroCalibrationFinished.lto_priv.373              /tmp/ccjoD88l.ltrans2.ltrans.o
                                                  /tmp/ccjoD88l.ltrans1.ltrans.o
                                                  /tmp/ccjoD88l.ltrans0.ltrans.o
baroCalibrationTimeout.lto_priv.458               /tmp/ccjoD88l.ltrans2.ltrans.o
                                                  /tmp/ccjoD88l.ltrans1.ltrans.o
baroDetect                                        obj/main/OPENDRONEBRH/sensors/barometer.o (symbol from plugin)
baroGetLatestAltitude                             obj/main/OPENDRONEBRH/sensors/barometer.o (symbol from plugin)
                                                  obj/main/OPENDRONEBRH/fc/fc_msp.o (symbol from plugin)
baroInit                                          obj/main/OPENDRONEBRH/sensors/barometer.o (symbol from plugin)
                                                  obj/main/OPENDRONEBRH/sensors/initialisation.o (symbol from plugin)
baroIsCalibrationComplete                         obj/main/OPENDRONEBRH/sensors/barometer.o (symbol from plugin)
                                                  obj/main/OPENDRONEBRH/fc/fc_core.o (symbol from plugin)
                                                  obj/main/OPENDRONEBRH/navigation/navigation_pos_estimator.o (symbol from plugin)
baroIsHealthy                                     obj/main/OPENDRONEBRH/sensors/barometer.o (symbol from plugin)
                                                  obj/main/OPENDRONEBRH/sensors/diagnostics.o (symbol from plugin)
baroStartCalibration                              obj/main/OPENDRONEBRH/sensors/barometer.o (symbol from plugin)
                                                  obj/main/OPENDRONEBRH/fc/fc_init.o (symbol from plugin)
baroUpdate                                        obj/main/OPENDRONEBRH/sensors/barometer.o (symbol from plugin)
                                                  obj/main/OPENDRONEBRH/fc/fc_tasks.o (symbol from plugin)
barometerConfig_Copy                              obj/main/OPENDRONEBRH/sensors/barometer.o (symbol from plugin)
barometerConfig_Registry                          /tmp/ccjoD88l.ltrans4.ltrans.o
                                                  obj/main/OPENDRONEBRH/sensors/barometer.o (symbol from plugin)
barometerConfig_System                            /tmp/ccjoD88l.ltrans4.ltrans.o
                                                  obj/main/OPENDRONEBRH/sensors/barometer.o (symbol from plugin)
                                                  /tmp/ccjoD88l.ltrans2.ltrans.o
                                                  obj/main/OPENDRONEBRH/sensors/initialisation.o (symbol from plugin)
                                                  obj/main/OPENDRONEBRH/fc/fc_msp.o (symbol from plugin)
batteryAdcToVoltage                               obj/main/OPENDRONEBRH/sensors/battery.o (symbol from plugin)
batteryCellCount.lto_priv.237                     /tmp/ccjoD88l.ltrans4.ltrans.o
                                                  /tmp/ccjoD88l.ltrans5.ltrans.o
                                                  /tmp/ccjoD88l.ltrans2.ltrans.o
                                                  /tmp/ccjoD88l.ltrans1.ltrans.o
                                                  /tmp/ccjoD88l.ltrans0.ltrans.o
batteryConfig_Copy                                obj/main/OPENDRONEBRH/sensors/battery.o (symbol from plugin)
batteryConfig_Registry                            /tmp/ccjoD88l.ltrans4.ltrans.o
                                                  obj/main/OPENDRONEBRH/sensors/battery.o (symbol from plugin)
batteryConfig_System                              /tmp/ccjoD88l.ltrans4.ltrans.o
                                                  obj/main/OPENDRONEBRH/sensors/battery.o (symbol from plugin)
                                                  /tmp/ccjoD88l.ltrans2.ltrans.o
                                                  /tmp/ccjoD88l.ltrans1.ltrans.o
                                                  obj/main/OPENDRONEBRH/fc/fc_msp.o (symbol from plugin)
                                                  obj/main/OPENDRONEBRH/fc/fc_init.o (symbol from plugin)
                                                  obj/main/OPENDRONEBRH/telemetry/ibus.o (symbol from plugin)
                                                  obj/main/OPENDRONEBRH/telemetry/frsky.o (symbol from plugin)
batteryCriticalVoltage.lto_priv.286               /tmp/ccjoD88l.ltrans4.ltrans.o
                                                  /tmp/ccjoD88l.ltrans2.ltrans.o
                                                  /tmp/ccjoD88l.ltrans1.ltrans.o
batteryFullVoltage.lto_priv.285                   /tmp/ccjoD88l.ltrans4.ltrans.o
                                                  /tmp/ccjoD88l.ltrans2.ltrans.o
                                                  /tmp/ccjoD88l.ltrans1.ltrans.o
batteryFullWhenPluggedIn.lto_priv.274             /tmp/ccjoD88l.ltrans4.ltrans.o
                                                  /tmp/ccjoD88l.ltrans2.ltrans.o
batteryInit                                       obj/main/OPENDRONEBRH/sensors/battery.o (symbol from plugin)
                                                  obj/main/OPENDRONEBRH/fc/fc_init.o (symbol from plugin)
batteryRemainingCapacity.lto_priv.273             /tmp/ccjoD88l.ltrans4.ltrans.o
                                                  /tmp/ccjoD88l.ltrans2.ltrans.o
batteryState                                      /tmp/ccjoD88l.ltrans4.ltrans.o
                                                  obj/main/OPENDRONEBRH/sensors/battery.o (symbol from plugin)
                                                  /tmp/ccjoD88l.ltrans2.ltrans.o
                                                  /tmp/ccjoD88l.ltrans1.ltrans.o
                                                  /tmp/ccjoD88l.ltrans0.ltrans.o
batteryUpdate                                     obj/main/OPENDRONEBRH/sensors/battery.o (symbol from plugin)
                                                  obj/main/OPENDRONEBRH/fc/fc_tasks.o (symbol from plugin)
batteryUsesCapacityThresholds                     obj/main/OPENDRONEBRH/sensors/battery.o (symbol from plugin)
                                                  obj/main/OPENDRONEBRH/fc/fc_msp.o (symbol from plugin)
batteryWarningVoltage.lto_priv.456                /tmp/ccjoD88l.ltrans2.ltrans.o
                                                  /tmp/ccjoD88l.ltrans1.ltrans.o
batteryWasFullWhenPluggedIn                       obj/main/OPENDRONEBRH/sensors/battery.o (symbol from plugin)
                                                  obj/main/OPENDRONEBRH/fc/fc_msp.o (symbol from plugin)
baudRates                                         /tmp/ccjoD88l.ltrans4.ltrans.o
                                                  obj/main/OPENDRONEBRH/io/serial.o (symbol from plugin)
                                                  /tmp/ccjoD88l.ltrans1.ltrans.o
                                                  /tmp/ccjoD88l.ltrans0.ltrans.o
                                                  obj/main/OPENDRONEBRH/msp/msp_serial.o (symbol from plugin)
                                                  obj/main/OPENDRONEBRH/fc/cli.o (symbol from plugin)
                                                  obj/main/OPENDRONEBRH/build/debug.o (symbol from plugin)
                                                  obj/main/OPENDRONEBRH/telemetry/mavlink.o (symbol from plugin)
                                                  obj/main/OPENDRONEBRH/io/gps.o (symbol from plugin)
beep_2longerBeeps.lto_priv.422                    /tmp/ccjoD88l.ltrans5.ltrans.o
beep_2shortBeeps.lto_priv.421                     /tmp/ccjoD88l.ltrans5.ltrans.o
beep_armedBeep.lto_priv.425                       /tmp/ccjoD88l.ltrans5.ltrans.o
beep_armedGpsFix.lto_priv.416                     /tmp/ccjoD88l.ltrans5.ltrans.o
beep_armingBeep.lto_priv.415                      /tmp/ccjoD88l.ltrans5.ltrans.o
beep_camCloseBeep.lto_priv.428                    /tmp/ccjoD88l.ltrans5.ltrans.o
beep_camOpenBeep.lto_priv.427                     /tmp/ccjoD88l.ltrans5.ltrans.o
beep_critBatteryBeep.lto_priv.417                 /tmp/ccjoD88l.ltrans5.ltrans.o
beep_disarmBeep.lto_priv.414                      /tmp/ccjoD88l.ltrans5.ltrans.o
beep_disarmRepeatBeep.lto_priv.424                /tmp/ccjoD88l.ltrans5.ltrans.o
beep_hardwareFailure.lto_priv.411                 /tmp/ccjoD88l.ltrans5.ltrans.o
beep_launchModeBeep.lto_priv.426                  /tmp/ccjoD88l.ltrans5.ltrans.o
beep_lowBatteryBeep.lto_priv.418                  /tmp/ccjoD88l.ltrans5.ltrans.o
beep_multiBeeps.lto_priv.419                      /tmp/ccjoD88l.ltrans5.ltrans.o
beep_readyBeep.lto_priv.423                       /tmp/ccjoD88l.ltrans5.ltrans.o
beep_runtimeCalibrationDone.lto_priv.410          /tmp/ccjoD88l.ltrans5.ltrans.o
beep_shortBeep.lto_priv.420                       /tmp/ccjoD88l.ltrans5.ltrans.o
beep_sos.lto_priv.413                             /tmp/ccjoD88l.ltrans5.ltrans.o
beep_txLostBeep.lto_priv.412                      /tmp/ccjoD88l.ltrans5.ltrans.o
beeper                                            /tmp/ccjoD88l.ltrans5.ltrans.o
                                                  obj/main/OPENDRONEBRH/io/beeper.o (symbol from plugin)
                                                  /tmp/ccjoD88l.ltrans4.ltrans.o
                                                  /tmp/ccjoD88l.ltrans3.ltrans.o
                                                  /tmp/ccjoD88l.ltrans2.ltrans.o
                                                  /tmp/ccjoD88l.ltrans0.ltrans.o
                                                  obj/main/OPENDRONEBRH/sensors/battery.o (symbol from plugin)
                                                  obj/main/OPENDRONEBRH/io/rcdevice_cam.o (symbol from plugin)
                                                  obj/main/OPENDRONEBRH/flight/failsafe.o (symbol from plugin)
                                                  obj/main/OPENDRONEBRH/fc/rc_controls.o (symbol from plugin)
                                                  obj/main/OPENDRONEBRH/fc/fc_core.o (symbol from plugin)
                                                  obj/main/OPENDRONEBRH/fc/cli.o (symbol from plugin)
                                                  obj/main/OPENDRONEBRH/navigation/navigation_fw_launch.o (symbol from plugin)
                                                  obj/main/OPENDRONEBRH/navigation/navigation.o (symbol from plugin)
beeperConfig_Copy                                 /tmp/ccjoD88l.ltrans5.ltrans.o
                                                  obj/main/OPENDRONEBRH/fc/config.o (symbol from plugin)
                                                  /tmp/ccjoD88l.ltrans0.ltrans.o
                                                  obj/main/OPENDRONEBRH/fc/cli.o (symbol from plugin)
beeperConfig_Registry                             /tmp/ccjoD88l.ltrans5.ltrans.o
                                                  obj/main/OPENDRONEBRH/fc/config.o (symbol from plugin)
beeperConfig_System                               /tmp/ccjoD88l.ltrans5.ltrans.o
                                                  obj/main/OPENDRONEBRH/fc/config.o (symbol from plugin)
                                                  /tmp/ccjoD88l.ltrans1.ltrans.o
                                                  /tmp/ccjoD88l.ltrans0.ltrans.o
                                                  obj/main/OPENDRONEBRH/fc/cli.o (symbol from plugin)
beeperConfirmationBeeps                           /tmp/ccjoD88l.ltrans5.ltrans.o
                                                  obj/main/OPENDRONEBRH/io/beeper.o (symbol from plugin)
                                                  /tmp/ccjoD88l.ltrans0.ltrans.o
                                                  obj/main/OPENDRONEBRH/sensors/acceleration.o (symbol from plugin)
                                                  obj/main/OPENDRONEBRH/fc/runtime_config.o (symbol from plugin)
                                                  obj/main/OPENDRONEBRH/fc/rc_adjustments.o (symbol from plugin)
                                                  obj/main/OPENDRONEBRH/fc/fc_core.o (symbol from plugin)
                                                  obj/main/OPENDRONEBRH/fc/config.o (symbol from plugin)
beeperGpsStatus                                   obj/main/OPENDRONEBRH/io/beeper.o (symbol from plugin)
beeperInit                                        obj/main/OPENDRONEBRH/drivers/sound_beeper.o (symbol from plugin)
                                                  obj/main/OPENDRONEBRH/fc/fc_init.o (symbol from plugin)
beeperModeForTableIndex                           obj/main/OPENDRONEBRH/io/beeper.o (symbol from plugin)
                                                  obj/main/OPENDRONEBRH/fc/cli.o (symbol from plugin)
beeperNameForTableIndex                           obj/main/OPENDRONEBRH/io/beeper.o (symbol from plugin)
                                                  obj/main/OPENDRONEBRH/fc/cli.o (symbol from plugin)
beeperOffClear                                    obj/main/OPENDRONEBRH/fc/config.o (symbol from plugin)
                                                  obj/main/OPENDRONEBRH/fc/cli.o (symbol from plugin)
beeperOffClearAll                                 obj/main/OPENDRONEBRH/fc/config.o (symbol from plugin)
                                                  obj/main/OPENDRONEBRH/fc/cli.o (symbol from plugin)
beeperOffSet                                      obj/main/OPENDRONEBRH/fc/config.o (symbol from plugin)
                                                  obj/main/OPENDRONEBRH/fc/cli.o (symbol from plugin)
beeperOffSetAll                                   obj/main/OPENDRONEBRH/fc/config.o (symbol from plugin)
                                                  obj/main/OPENDRONEBRH/fc/cli.o (symbol from plugin)
beeperSilence                                     /tmp/ccjoD88l.ltrans5.ltrans.o
                                                  obj/main/OPENDRONEBRH/io/beeper.o (symbol from plugin)
                                                  /tmp/ccjoD88l.ltrans0.ltrans.o
                                                  obj/main/OPENDRONEBRH/fc/fc_core.o (symbol from plugin)
                                                  obj/main/OPENDRONEBRH/fc/cli.o (symbol from plugin)
beeperTable                                       /tmp/ccjoD88l.ltrans5.ltrans.o
                                                  obj/main/OPENDRONEBRH/io/beeper.o (symbol from plugin)
                                                  /tmp/ccjoD88l.ltrans0.ltrans.o
beeperTableEntryCount                             obj/main/OPENDRONEBRH/io/beeper.o (symbol from plugin)
                                                  obj/main/OPENDRONEBRH/fc/cli.o (symbol from plugin)
beeperUpdate                                      /tmp/ccjoD88l.ltrans5.ltrans.o
                                                  obj/main/OPENDRONEBRH/io/beeper.o (symbol from plugin)
                                                  /tmp/ccjoD88l.ltrans4.ltrans.o
                                                  obj/main/OPENDRONEBRH/fc/fc_tasks.o (symbol from plugin)
bellCurve                                         obj/main/OPENDRONEBRH/common/maths.o (symbol from plugin)
biquadFilterApply                                 /tmp/ccjoD88l.ltrans1.ltrans.o
                                                  obj/main/OPENDRONEBRH/common/filter.o (symbol from plugin)
                                                  /tmp/ccjoD88l.ltrans5.ltrans.o
                                                  /tmp/ccjoD88l.ltrans4.ltrans.o
                                                  /tmp/ccjoD88l.ltrans0.ltrans.o
                                                  obj/main/OPENDRONEBRH/sensors/gyro.o (symbol from plugin)
                                                  obj/main/OPENDRONEBRH/sensors/acceleration.o (symbol from plugin)
                                                  obj/main/OPENDRONEBRH/flight/servos.o (symbol from plugin)
                                                  obj/main/OPENDRONEBRH/flight/pid.o (symbol from plugin)
                                                  obj/main/OPENDRONEBRH/fc/fc_core.o (symbol from plugin)
biquadFilterInit                                  /tmp/ccjoD88l.ltrans1.ltrans.o
                                                  obj/main/OPENDRONEBRH/common/filter.o (symbol from plugin)
                                                  /tmp/ccjoD88l.ltrans4.ltrans.o
                                                  /tmp/ccjoD88l.ltrans0.ltrans.o
biquadFilterInitLPF                               obj/main/OPENDRONEBRH/common/filter.o (symbol from plugin)
                                                  obj/main/OPENDRONEBRH/sensors/gyro.o (symbol from plugin)
                                                  obj/main/OPENDRONEBRH/sensors/acceleration.o (symbol from plugin)
                                                  obj/main/OPENDRONEBRH/flight/servos.o (symbol from plugin)
                                                  obj/main/OPENDRONEBRH/fc/fc_core.o (symbol from plugin)
biquadFilterInitNotch                             /tmp/ccjoD88l.ltrans1.ltrans.o
                                                  obj/main/OPENDRONEBRH/common/filter.o (symbol from plugin)
                                                  /tmp/ccjoD88l.ltrans5.ltrans.o
                                                  /tmp/ccjoD88l.ltrans4.ltrans.o
                                                  obj/main/OPENDRONEBRH/sensors/gyro.o (symbol from plugin)
                                                  obj/main/OPENDRONEBRH/sensors/acceleration.o (symbol from plugin)
                                                  obj/main/OPENDRONEBRH/flight/pid.o (symbol from plugin)
bitArrayClr                                       obj/main/OPENDRONEBRH/common/bitarray.o (symbol from plugin)
bitArrayFindFirstSet                              obj/main/OPENDRONEBRH/common/bitarray.o (symbol from plugin)
bitArrayGet                                       obj/main/OPENDRONEBRH/common/bitarray.o (symbol from plugin)
                                                  obj/main/OPENDRONEBRH/fc/rc_modes.o (symbol from plugin)
bitArraySet                                       /tmp/ccjoD88l.ltrans1.ltrans.o
                                                  obj/main/OPENDRONEBRH/common/bitarray.o (symbol from plugin)
                                                  /tmp/ccjoD88l.ltrans5.ltrans.o
                                                  /tmp/ccjoD88l.ltrans0.ltrans.o
                                                  obj/main/OPENDRONEBRH/fc/rc_modes.o (symbol from plugin)
                                                  obj/main/OPENDRONEBRH/fc/fc_msp_box.o (symbol from plugin)
bmp280Detect                                      obj/main/OPENDRONEBRH/drivers/barometer/barometer_bmp280.o (symbol from plugin)
                                                  obj/main/OPENDRONEBRH/sensors/barometer.o (symbol from plugin)
bmp280_cal.lto_priv.526                           /tmp/ccjoD88l.ltrans4.ltrans.o
                                                  /tmp/ccjoD88l.ltrans3.ltrans.o
bmp280_calculate.lto_priv.222                     /tmp/ccjoD88l.ltrans3.ltrans.o
                                                  /tmp/ccjoD88l.ltrans4.ltrans.o
bmp280_get_up.lto_priv.221                        /tmp/ccjoD88l.ltrans3.ltrans.o
                                                  /tmp/ccjoD88l.ltrans4.ltrans.o
bmp280_get_ut.lto_priv.218                        /tmp/ccjoD88l.ltrans3.ltrans.o
                                                  /tmp/ccjoD88l.ltrans4.ltrans.o
bmp280_start_up.lto_priv.220                      /tmp/ccjoD88l.ltrans3.ltrans.o
                                                  /tmp/ccjoD88l.ltrans4.ltrans.o
bmp280_start_ut.lto_priv.219                      /tmp/ccjoD88l.ltrans3.ltrans.o
                                                  /tmp/ccjoD88l.ltrans4.ltrans.o
bmp280_up                                         obj/main/OPENDRONEBRH/drivers/barometer/barometer_bmp280.o (symbol from plugin)
bmp280_ut                                         obj/main/OPENDRONEBRH/drivers/barometer/barometer_bmp280.o (symbol from plugin)
boardAlignment_Copy                               obj/main/OPENDRONEBRH/sensors/boardalignment.o (symbol from plugin)
boardAlignment_Registry                           /tmp/ccjoD88l.ltrans4.ltrans.o
                                                  obj/main/OPENDRONEBRH/sensors/boardalignment.o (symbol from plugin)
boardAlignment_System                             /tmp/ccjoD88l.ltrans4.ltrans.o
                                                  obj/main/OPENDRONEBRH/sensors/boardalignment.o (symbol from plugin)
                                                  /tmp/ccjoD88l.ltrans2.ltrans.o
                                                  obj/main/OPENDRONEBRH/fc/fc_msp.o (symbol from plugin)
boxes.lto_priv.269                                /tmp/ccjoD88l.ltrans5.ltrans.o
                                                  /tmp/ccjoD88l.ltrans2.ltrans.o
bufWriterAppend                                   obj/main/OPENDRONEBRH/drivers/buf_writer.o (symbol from plugin)
                                                  obj/main/OPENDRONEBRH/fc/cli.o (symbol from plugin)
bufWriterFlush                                    /tmp/ccjoD88l.ltrans1.ltrans.o
                                                  obj/main/OPENDRONEBRH/drivers/buf_writer.o (symbol from plugin)
                                                  /tmp/ccjoD88l.ltrans2.ltrans.o
                                                  /tmp/ccjoD88l.ltrans0.ltrans.o
                                                  obj/main/OPENDRONEBRH/fc/cli.o (symbol from plugin)
bufWriterInit                                     obj/main/OPENDRONEBRH/drivers/buf_writer.o (symbol from plugin)
                                                  obj/main/OPENDRONEBRH/fc/cli.o (symbol from plugin)
bufferIndex.lto_priv.382                          /tmp/ccjoD88l.ltrans2.ltrans.o
                                                  /tmp/ccjoD88l.ltrans0.ltrans.o
buildDate                                         /tmp/ccjoD88l.ltrans2.ltrans.o
                                                  obj/main/OPENDRONEBRH/build/version.o (symbol from plugin)
                                                  obj/main/OPENDRONEBRH/fc/fc_msp.o (symbol from plugin)
                                                  obj/main/OPENDRONEBRH/fc/cli.o (symbol from plugin)
                                                  obj/main/OPENDRONEBRH/build/debug.o (symbol from plugin)
buildTime                                         /tmp/ccjoD88l.ltrans2.ltrans.o
                                                  obj/main/OPENDRONEBRH/build/version.o (symbol from plugin)
                                                  obj/main/OPENDRONEBRH/fc/fc_msp.o (symbol from plugin)
                                                  obj/main/OPENDRONEBRH/fc/cli.o (symbol from plugin)
                                                  obj/main/OPENDRONEBRH/build/debug.o (symbol from plugin)
busDeviceDeInit                                   /tmp/ccjoD88l.ltrans1.ltrans.o
                                                  obj/main/OPENDRONEBRH/drivers/bus.o (symbol from plugin)
                                                  /tmp/ccjoD88l.ltrans4.ltrans.o
                                                  obj/main/OPENDRONEBRH/drivers/io_pca9685.o (symbol from plugin)
                                                  obj/main/OPENDRONEBRH/drivers/barometer/barometer_ms56xx.o (symbol from plugin)
                                                  obj/main/OPENDRONEBRH/drivers/barometer/barometer_bmp280.o (symbol from plugin)
                                                  obj/main/OPENDRONEBRH/drivers/accgyro/accgyro_mpu6500.o (symbol from plugin)
busDeviceGetScratchpadMemory                      obj/main/OPENDRONEBRH/drivers/bus.o (symbol from plugin)
                                                  obj/main/OPENDRONEBRH/drivers/accgyro/accgyro_mpu6500.o (symbol from plugin)
                                                  obj/main/OPENDRONEBRH/drivers/accgyro/accgyro_mpu.o (symbol from plugin)
busDeviceInit                                     /tmp/ccjoD88l.ltrans1.ltrans.o
                                                  obj/main/OPENDRONEBRH/drivers/bus.o (symbol from plugin)
                                                  /tmp/ccjoD88l.ltrans4.ltrans.o
                                                  obj/main/OPENDRONEBRH/drivers/io_pca9685.o (symbol from plugin)
                                                  obj/main/OPENDRONEBRH/drivers/barometer/barometer_ms56xx.o (symbol from plugin)
                                                  obj/main/OPENDRONEBRH/drivers/barometer/barometer_bmp280.o (symbol from plugin)
                                                  obj/main/OPENDRONEBRH/drivers/accgyro/accgyro_mpu6500.o (symbol from plugin)
busDeviceOpen                                     obj/main/OPENDRONEBRH/drivers/bus.o (symbol from plugin)
                                                  obj/main/OPENDRONEBRH/drivers/accgyro/accgyro_mpu6500.o (symbol from plugin)
busDeviceReadScratchpad                           obj/main/OPENDRONEBRH/drivers/bus.o (symbol from plugin)
busDeviceWriteScratchpad                          obj/main/OPENDRONEBRH/drivers/bus.o (symbol from plugin)
busInit                                           obj/main/OPENDRONEBRH/drivers/bus.o (symbol from plugin)
                                                  obj/main/OPENDRONEBRH/fc/fc_init.o (symbol from plugin)
busRead                                           /tmp/ccjoD88l.ltrans1.ltrans.o
                                                  obj/main/OPENDRONEBRH/drivers/bus.o (symbol from plugin)
                                                  /tmp/ccjoD88l.ltrans4.ltrans.o
                                                  obj/main/OPENDRONEBRH/drivers/io_pca9685.o (symbol from plugin)
                                                  obj/main/OPENDRONEBRH/drivers/barometer/barometer_ms56xx.o (symbol from plugin)
                                                  obj/main/OPENDRONEBRH/drivers/barometer/barometer_bmp280.o (symbol from plugin)
                                                  obj/main/OPENDRONEBRH/drivers/accgyro/accgyro_mpu6500.o (symbol from plugin)
busReadBuf                                        /tmp/ccjoD88l.ltrans1.ltrans.o
                                                  obj/main/OPENDRONEBRH/drivers/bus.o (symbol from plugin)
                                                  /tmp/ccjoD88l.ltrans4.ltrans.o
                                                  /tmp/ccjoD88l.ltrans3.ltrans.o
                                                  obj/main/OPENDRONEBRH/drivers/barometer/barometer_ms56xx.o (symbol from plugin)
                                                  obj/main/OPENDRONEBRH/drivers/barometer/barometer_bmp280.o (symbol from plugin)
                                                  obj/main/OPENDRONEBRH/drivers/accgyro/accgyro_mpu.o (symbol from plugin)
busSetSpeed                                       /tmp/ccjoD88l.ltrans1.ltrans.o
                                                  obj/main/OPENDRONEBRH/drivers/bus.o (symbol from plugin)
                                                  /tmp/ccjoD88l.ltrans4.ltrans.o
                                                  /tmp/ccjoD88l.ltrans3.ltrans.o
                                                  obj/main/OPENDRONEBRH/drivers/barometer/barometer_ms56xx.o (symbol from plugin)
                                                  obj/main/OPENDRONEBRH/drivers/barometer/barometer_bmp280.o (symbol from plugin)
                                                  obj/main/OPENDRONEBRH/drivers/accgyro/accgyro_mpu6500.o (symbol from plugin)
busState.lto_priv.533                             /tmp/ccjoD88l.ltrans1.ltrans.o
                                                  /tmp/ccjoD88l.ltrans3.ltrans.o
busTransfer                                       obj/main/OPENDRONEBRH/drivers/bus.o (symbol from plugin)
busTransferMultiple                               obj/main/OPENDRONEBRH/drivers/bus.o (symbol from plugin)
busWrite                                          /tmp/ccjoD88l.ltrans1.ltrans.o
                                                  obj/main/OPENDRONEBRH/drivers/bus.o (symbol from plugin)
                                                  /tmp/ccjoD88l.ltrans4.ltrans.o
                                                  /tmp/ccjoD88l.ltrans3.ltrans.o
                                                  obj/main/OPENDRONEBRH/drivers/io_pca9685.o (symbol from plugin)
                                                  obj/main/OPENDRONEBRH/drivers/barometer/barometer_ms56xx.o (symbol from plugin)
                                                  obj/main/OPENDRONEBRH/drivers/barometer/barometer_bmp280.o (symbol from plugin)
                                                  obj/main/OPENDRONEBRH/drivers/accgyro/accgyro_mpu6500.o (symbol from plugin)
busWriteBuf                                       obj/main/OPENDRONEBRH/drivers/bus.o (symbol from plugin)
busdev_bmp280_registry                            /tmp/ccjoD88l.ltrans3.ltrans.o
                                                  obj/main/OPENDRONEBRH/target/common_hardware.o (symbol from plugin)
busdev_mpu6500_registry                           /tmp/ccjoD88l.ltrans3.ltrans.o
                                                  obj/main/OPENDRONEBRH/target/common_hardware.o (symbol from plugin)
busdev_ms5611_registry                            /tmp/ccjoD88l.ltrans3.ltrans.o
                                                  obj/main/OPENDRONEBRH/target/common_hardware.o (symbol from plugin)
cachedRccCsrValue                                 /tmp/ccjoD88l.ltrans1.ltrans.o
                                                  obj/main/OPENDRONEBRH/drivers/system.o (symbol from plugin)
                                                  /tmp/ccjoD88l.ltrans3.ltrans.o
                                                  obj/main/OPENDRONEBRH/drivers/system_stm32f30x.o (symbol from plugin)
calcCRC16                                         obj/main/OPENDRONEBRH/rx/jetiexbus.o (symbol from plugin)
calcCRC8                                          obj/main/OPENDRONEBRH/rx/jetiexbus.o (symbol from plugin)
calculateBatteryPercentage                        /tmp/ccjoD88l.ltrans4.ltrans.o
                                                  obj/main/OPENDRONEBRH/sensors/battery.o (symbol from plugin)
                                                  /tmp/ccjoD88l.ltrans2.ltrans.o
                                                  /tmp/ccjoD88l.ltrans1.ltrans.o
                                                  obj/main/OPENDRONEBRH/fc/fc_msp.o (symbol from plugin)
                                                  obj/main/OPENDRONEBRH/telemetry/smartport.o (symbol from plugin)
                                                  obj/main/OPENDRONEBRH/telemetry/mavlink.o (symbol from plugin)
                                                  obj/main/OPENDRONEBRH/telemetry/frsky.o (symbol from plugin)
                                                  obj/main/OPENDRONEBRH/telemetry/crsf.o (symbol from plugin)
calculateBearingToDestination                     /tmp/ccjoD88l.ltrans3.ltrans.o
                                                  obj/main/OPENDRONEBRH/navigation/navigation.o (symbol from plugin)
                                                  /tmp/ccjoD88l.ltrans0.ltrans.o
                                                  obj/main/OPENDRONEBRH/navigation/navigation_fixedwing.o (symbol from plugin)
calculateCosTiltAngle                             /tmp/ccjoD88l.ltrans5.ltrans.o
                                                  obj/main/OPENDRONEBRH/flight/imu.o (symbol from plugin)
                                                  /tmp/ccjoD88l.ltrans3.ltrans.o
                                                  /tmp/ccjoD88l.ltrans0.ltrans.o
                                                  obj/main/OPENDRONEBRH/flight/pid.o (symbol from plugin)
                                                  obj/main/OPENDRONEBRH/fc/fc_core.o (symbol from plugin)
                                                  obj/main/OPENDRONEBRH/navigation/navigation_fw_launch.o (symbol from plugin)
                                                  obj/main/OPENDRONEBRH/navigation/navigation.o (symbol from plugin)
calculateDistanceToDestination                    /tmp/ccjoD88l.ltrans3.ltrans.o
                                                  obj/main/OPENDRONEBRH/navigation/navigation.o (symbol from plugin)
                                                  /tmp/ccjoD88l.ltrans0.ltrans.o
calculateFarAwayTarget                            obj/main/OPENDRONEBRH/navigation/navigation.o (symbol from plugin)
calculateFixedWingInitialHoldPosition             obj/main/OPENDRONEBRH/navigation/navigation_fixedwing.o (symbol from plugin)
                                                  obj/main/OPENDRONEBRH/navigation/navigation.o (symbol from plugin)
calculateInitialHoldPosition                      obj/main/OPENDRONEBRH/navigation/navigation.o (symbol from plugin)
calculateMulticopterInitialHoldPosition           /tmp/ccjoD88l.ltrans3.ltrans.o
                                                  obj/main/OPENDRONEBRH/navigation/navigation_multicopter.o (symbol from plugin)
                                                  /tmp/ccjoD88l.ltrans0.ltrans.o
                                                  obj/main/OPENDRONEBRH/navigation/navigation.o (symbol from plugin)
calculateRollPitchCenterStatus                    obj/main/OPENDRONEBRH/fc/rc_controls.o (symbol from plugin)
                                                  obj/main/OPENDRONEBRH/fc/fc_core.o (symbol from plugin)
calculateRxChannelsAndUpdateFailsafe              obj/main/OPENDRONEBRH/rx/rx.o (symbol from plugin)
                                                  obj/main/OPENDRONEBRH/fc/fc_core.o (symbol from plugin)
calculateThrottleStatus                           /tmp/ccjoD88l.ltrans5.ltrans.o
                                                  obj/main/OPENDRONEBRH/fc/rc_controls.o (symbol from plugin)
                                                  /tmp/ccjoD88l.ltrans3.ltrans.o
                                                  /tmp/ccjoD88l.ltrans2.ltrans.o
                                                  /tmp/ccjoD88l.ltrans0.ltrans.o
                                                  obj/main/OPENDRONEBRH/sensors/battery.o (symbol from plugin)
                                                  obj/main/OPENDRONEBRH/flight/failsafe.o (symbol from plugin)
                                                  obj/main/OPENDRONEBRH/fc/fc_core.o (symbol from plugin)
                                                  obj/main/OPENDRONEBRH/telemetry/frsky.o (symbol from plugin)
                                                  obj/main/OPENDRONEBRH/navigation/navigation_multicopter.o (symbol from plugin)
                                                  obj/main/OPENDRONEBRH/navigation/navigation.o (symbol from plugin)
calibratedPosition.lto_priv.251                   /tmp/ccjoD88l.ltrans4.ltrans.o
                                                  /tmp/ccjoD88l.ltrans5.ltrans.o
calibratingA.lto_priv.246                         /tmp/ccjoD88l.ltrans4.ltrans.o
                                                  /tmp/ccjoD88l.ltrans5.ltrans.o
                                                  /tmp/ccjoD88l.ltrans2.ltrans.o
                                                  /tmp/ccjoD88l.ltrans0.ltrans.o
camDevice                                         /tmp/ccjoD88l.ltrans4.ltrans.o
                                                  obj/main/OPENDRONEBRH/io/rcdevice_cam.o (symbol from plugin)
captures.lto_priv.447                             /tmp/ccjoD88l.ltrans4.ltrans.o
                                                  /tmp/ccjoD88l.ltrans1.ltrans.o
castFloatBytesToInt                               obj/main/OPENDRONEBRH/common/encoding.o (symbol from plugin)
cfTasks                                           /tmp/ccjoD88l.ltrans4.ltrans.o
                                                  obj/main/OPENDRONEBRH/fc/fc_tasks.o (symbol from plugin)
                                                  /tmp/ccjoD88l.ltrans1.ltrans.o
                                                  /tmp/ccjoD88l.ltrans0.ltrans.o
                                                  obj/main/OPENDRONEBRH/scheduler/scheduler.o (symbol from plugin)
changeControlRateProfile                          obj/main/OPENDRONEBRH/fc/controlrate_profile.o (symbol from plugin)
changeTypeIbusTelemetry                           obj/main/OPENDRONEBRH/telemetry/ibus_shared.o (symbol from plugin)
                                                  obj/main/OPENDRONEBRH/telemetry/ibus.o (symbol from plugin)
checkCrsfTelemetryState                           obj/main/OPENDRONEBRH/telemetry/crsf.o (symbol from plugin)
                                                  obj/main/OPENDRONEBRH/telemetry/telemetry.o (symbol from plugin)
checkForBootLoaderRequest                         obj/main/OPENDRONEBRH/drivers/system_stm32f30x.o (symbol from plugin)
checkForPositionSensorTimeout                     obj/main/OPENDRONEBRH/navigation/navigation.o (symbol from plugin)
checkFrSkyTelemetryState                          obj/main/OPENDRONEBRH/telemetry/frsky.o (symbol from plugin)
                                                  obj/main/OPENDRONEBRH/telemetry/telemetry.o (symbol from plugin)
checkFuncMaxExecutionTime                         /tmp/ccjoD88l.ltrans0.ltrans.o
                                                  obj/main/OPENDRONEBRH/scheduler/scheduler.o (symbol from plugin)
                                                  /tmp/ccjoD88l.ltrans1.ltrans.o
checkFuncMovingSumExecutionTime                   /tmp/ccjoD88l.ltrans0.ltrans.o
                                                  obj/main/OPENDRONEBRH/scheduler/scheduler.o (symbol from plugin)
                                                  /tmp/ccjoD88l.ltrans1.ltrans.o
checkFuncTotalExecutionTime                       /tmp/ccjoD88l.ltrans0.ltrans.o
                                                  obj/main/OPENDRONEBRH/scheduler/scheduler.o (symbol from plugin)
                                                  /tmp/ccjoD88l.ltrans1.ltrans.o
checkHoTTTelemetryState                           obj/main/OPENDRONEBRH/telemetry/hott.o (symbol from plugin)
                                                  obj/main/OPENDRONEBRH/telemetry/telemetry.o (symbol from plugin)
checkIbusTelemetryState                           obj/main/OPENDRONEBRH/telemetry/ibus.o (symbol from plugin)
                                                  obj/main/OPENDRONEBRH/telemetry/telemetry.o (symbol from plugin)
checkJetiExBusTelemetryState                      obj/main/OPENDRONEBRH/rx/jetiexbus.o (symbol from plugin)
checkMAVLinkTelemetryState                        obj/main/OPENDRONEBRH/telemetry/mavlink.o (symbol from plugin)
                                                  obj/main/OPENDRONEBRH/telemetry/telemetry.o (symbol from plugin)
checkSmartPortTelemetryState                      obj/main/OPENDRONEBRH/telemetry/smartport.o (symbol from plugin)
                                                  obj/main/OPENDRONEBRH/telemetry/telemetry.o (symbol from plugin)
checkStickPosition                                obj/main/OPENDRONEBRH/fc/rc_controls.o (symbol from plugin)
chooseGyroConfig                                  obj/main/OPENDRONEBRH/drivers/accgyro/accgyro.o (symbol from plugin)
                                                  obj/main/OPENDRONEBRH/drivers/accgyro/accgyro_mpu.o (symbol from plugin)
cliAdjustmentRange.lto_priv.288                   /tmp/ccjoD88l.ltrans0.ltrans.o
                                                  /tmp/ccjoD88l.ltrans2.ltrans.o
cliAux.lto_priv.289                               /tmp/ccjoD88l.ltrans0.ltrans.o
                                                  /tmp/ccjoD88l.ltrans2.ltrans.o
cliBeeper.lto_priv.290                            /tmp/ccjoD88l.ltrans0.ltrans.o
                                                  /tmp/ccjoD88l.ltrans2.ltrans.o
cliBootlog.lto_priv.291                           /tmp/ccjoD88l.ltrans0.ltrans.o
                                                  /tmp/ccjoD88l.ltrans2.ltrans.o
cliBuffer.lto_priv.381                            /tmp/ccjoD88l.ltrans2.ltrans.o
                                                  /tmp/ccjoD88l.ltrans0.ltrans.o
cliDefaults.lto_priv.292                          /tmp/ccjoD88l.ltrans0.ltrans.o
                                                  /tmp/ccjoD88l.ltrans2.ltrans.o
cliDfu.lto_priv.293                               /tmp/ccjoD88l.ltrans0.ltrans.o
                                                  /tmp/ccjoD88l.ltrans2.ltrans.o
cliDiff.lto_priv.294                              /tmp/ccjoD88l.ltrans0.ltrans.o
                                                  /tmp/ccjoD88l.ltrans2.ltrans.o
cliDump.lto_priv.295                              /tmp/ccjoD88l.ltrans0.ltrans.o
                                                  /tmp/ccjoD88l.ltrans2.ltrans.o
cliEnter                                          obj/main/OPENDRONEBRH/fc/cli.o (symbol from plugin)
                                                  obj/main/OPENDRONEBRH/msp/msp_serial.o (symbol from plugin)
cliExit.lto_priv.296                              /tmp/ccjoD88l.ltrans0.ltrans.o
                                                  /tmp/ccjoD88l.ltrans2.ltrans.o
cliFeature.lto_priv.297                           /tmp/ccjoD88l.ltrans0.ltrans.o
                                                  /tmp/ccjoD88l.ltrans2.ltrans.o
cliGet.lto_priv.298                               /tmp/ccjoD88l.ltrans0.ltrans.o
                                                  /tmp/ccjoD88l.ltrans2.ltrans.o
cliGpsPassthrough.lto_priv.299                    /tmp/ccjoD88l.ltrans0.ltrans.o
                                                  /tmp/ccjoD88l.ltrans2.ltrans.o
cliHelp.lto_priv.300                              /tmp/ccjoD88l.ltrans0.ltrans.o
                                                  /tmp/ccjoD88l.ltrans2.ltrans.o
cliInit                                           obj/main/OPENDRONEBRH/fc/cli.o (symbol from plugin)
                                                  obj/main/OPENDRONEBRH/fc/fc_init.o (symbol from plugin)
cliMap.lto_priv.301                               /tmp/ccjoD88l.ltrans0.ltrans.o
                                                  /tmp/ccjoD88l.ltrans2.ltrans.o
cliMixer.lto_priv.302                             /tmp/ccjoD88l.ltrans0.ltrans.o
                                                  /tmp/ccjoD88l.ltrans2.ltrans.o
cliMode                                           /tmp/ccjoD88l.ltrans2.ltrans.o
                                                  obj/main/OPENDRONEBRH/fc/cli.o (symbol from plugin)
                                                  /tmp/ccjoD88l.ltrans0.ltrans.o
                                                  obj/main/OPENDRONEBRH/fc/fc_tasks.o (symbol from plugin)
                                                  obj/main/OPENDRONEBRH/fc/fc_core.o (symbol from plugin)
cliMotor.lto_priv.304                             /tmp/ccjoD88l.ltrans0.ltrans.o
                                                  /tmp/ccjoD88l.ltrans2.ltrans.o
cliMotorMix.lto_priv.303                          /tmp/ccjoD88l.ltrans0.ltrans.o
                                                  /tmp/ccjoD88l.ltrans2.ltrans.o
cliName.lto_priv.305                              /tmp/ccjoD88l.ltrans0.ltrans.o
                                                  /tmp/ccjoD88l.ltrans2.ltrans.o
cliPlaySound.lto_priv.306                         /tmp/ccjoD88l.ltrans0.ltrans.o
                                                  /tmp/ccjoD88l.ltrans2.ltrans.o
cliPort.lto_priv.379                              /tmp/ccjoD88l.ltrans2.ltrans.o
                                                  /tmp/ccjoD88l.ltrans0.ltrans.o
cliPrint.lto_priv.343                             /tmp/ccjoD88l.ltrans0.ltrans.o
                                                  /tmp/ccjoD88l.ltrans2.ltrans.o
cliPrintLine.lto_priv.342                         /tmp/ccjoD88l.ltrans0.ltrans.o
                                                  /tmp/ccjoD88l.ltrans2.ltrans.o
cliPrintLinefeed.lto_priv.345                     /tmp/ccjoD88l.ltrans0.ltrans.o
                                                  /tmp/ccjoD88l.ltrans2.ltrans.o
cliProcess                                        obj/main/OPENDRONEBRH/fc/cli.o (symbol from plugin)
                                                  obj/main/OPENDRONEBRH/fc/fc_tasks.o (symbol from plugin)
cliProfile.lto_priv.307                           /tmp/ccjoD88l.ltrans0.ltrans.o
                                                  /tmp/ccjoD88l.ltrans2.ltrans.o
cliPrompt.lto_priv.341                            /tmp/ccjoD88l.ltrans0.ltrans.o
                                                  /tmp/ccjoD88l.ltrans2.ltrans.o
cliResource.lto_priv.308                          /tmp/ccjoD88l.ltrans0.ltrans.o
                                                  /tmp/ccjoD88l.ltrans2.ltrans.o
cliRxRange.lto_priv.309                           /tmp/ccjoD88l.ltrans0.ltrans.o
                                                  /tmp/ccjoD88l.ltrans2.ltrans.o
cliSave.lto_priv.310                              /tmp/ccjoD88l.ltrans0.ltrans.o
                                                  /tmp/ccjoD88l.ltrans2.ltrans.o
cliSerial.lto_priv.311                            /tmp/ccjoD88l.ltrans0.ltrans.o
                                                  /tmp/ccjoD88l.ltrans2.ltrans.o
cliSerialPassthrough.lto_priv.312                 /tmp/ccjoD88l.ltrans0.ltrans.o
                                                  /tmp/ccjoD88l.ltrans2.ltrans.o
cliServo.lto_priv.313                             /tmp/ccjoD88l.ltrans0.ltrans.o
                                                  /tmp/ccjoD88l.ltrans2.ltrans.o
cliServoMix.lto_priv.315                          /tmp/ccjoD88l.ltrans0.ltrans.o
                                                  /tmp/ccjoD88l.ltrans2.ltrans.o
cliSet.lto_priv.314                               /tmp/ccjoD88l.ltrans0.ltrans.o
                                                  /tmp/ccjoD88l.ltrans2.ltrans.o
cliStatus.lto_priv.316                            /tmp/ccjoD88l.ltrans0.ltrans.o
                                                  /tmp/ccjoD88l.ltrans2.ltrans.o
cliTasks.lto_priv.317                             /tmp/ccjoD88l.ltrans0.ltrans.o
                                                  /tmp/ccjoD88l.ltrans2.ltrans.o
cliVersion.lto_priv.318                           /tmp/ccjoD88l.ltrans0.ltrans.o
                                                  /tmp/ccjoD88l.ltrans2.ltrans.o
cliWrite.lto_priv.344                             /tmp/ccjoD88l.ltrans0.ltrans.o
                                                  /tmp/ccjoD88l.ltrans2.ltrans.o
cliWriter.lto_priv.380                            /tmp/ccjoD88l.ltrans2.ltrans.o
                                                  /tmp/ccjoD88l.ltrans0.ltrans.o
closeSerialPort                                   /tmp/ccjoD88l.ltrans5.ltrans.o
                                                  obj/main/OPENDRONEBRH/io/serial.o (symbol from plugin)
                                                  /tmp/ccjoD88l.ltrans1.ltrans.o
                                                  /tmp/ccjoD88l.ltrans0.ltrans.o
                                                  obj/main/OPENDRONEBRH/msp/msp_serial.o (symbol from plugin)
                                                  obj/main/OPENDRONEBRH/io/rcdevice.o (symbol from plugin)
                                                  obj/main/OPENDRONEBRH/telemetry/smartport.o (symbol from plugin)
                                                  obj/main/OPENDRONEBRH/telemetry/mavlink.o (symbol from plugin)
                                                  obj/main/OPENDRONEBRH/telemetry/ibus.o (symbol from plugin)
                                                  obj/main/OPENDRONEBRH/telemetry/hott.o (symbol from plugin)
                                                  obj/main/OPENDRONEBRH/telemetry/frsky.o (symbol from plugin)
cmdTable                                          /tmp/ccjoD88l.ltrans2.ltrans.o
                                                  obj/main/OPENDRONEBRH/fc/cli.o (symbol from plugin)
                                                  /tmp/ccjoD88l.ltrans0.ltrans.o
compassConfig_Copy                                obj/main/OPENDRONEBRH/sensors/compass.o (symbol from plugin)
compassConfig_Registry                            /tmp/ccjoD88l.ltrans2.ltrans.o
                                                  obj/main/OPENDRONEBRH/sensors/compass.o (symbol from plugin)
compassConfig_System                              /tmp/ccjoD88l.ltrans2.ltrans.o
                                                  obj/main/OPENDRONEBRH/sensors/compass.o (symbol from plugin)
                                                  /tmp/ccjoD88l.ltrans1.ltrans.o
                                                  obj/main/OPENDRONEBRH/flight/imu.o (symbol from plugin)
                                                  obj/main/OPENDRONEBRH/fc/fc_msp.o (symbol from plugin)
configTimeBase                                    /tmp/ccjoD88l.ltrans0.ltrans.o
                                                  obj/main/OPENDRONEBRH/drivers/timer.o (symbol from plugin)
                                                  /tmp/ccjoD88l.ltrans1.ltrans.o
                                                  obj/main/OPENDRONEBRH/drivers/pwm_output.o (symbol from plugin)
config_streamer_finish                            obj/main/OPENDRONEBRH/config/config_streamer.o (symbol from plugin)
                                                  obj/main/OPENDRONEBRH/config/config_eeprom.o (symbol from plugin)
config_streamer_flush                             obj/main/OPENDRONEBRH/config/config_streamer.o (symbol from plugin)
                                                  obj/main/OPENDRONEBRH/config/config_eeprom.o (symbol from plugin)
config_streamer_init                              obj/main/OPENDRONEBRH/config/config_streamer.o (symbol from plugin)
                                                  obj/main/OPENDRONEBRH/config/config_eeprom.o (symbol from plugin)
config_streamer_start                             obj/main/OPENDRONEBRH/config/config_streamer.o (symbol from plugin)
                                                  obj/main/OPENDRONEBRH/config/config_eeprom.o (symbol from plugin)
config_streamer_status                            obj/main/OPENDRONEBRH/config/config_streamer.o (symbol from plugin)
config_streamer_write                             /tmp/ccjoD88l.ltrans1.ltrans.o
                                                  obj/main/OPENDRONEBRH/config/config_streamer.o (symbol from plugin)
                                                  /tmp/ccjoD88l.ltrans0.ltrans.o
                                                  obj/main/OPENDRONEBRH/config/config_eeprom.o (symbol from plugin)
configureFrSkyTelemetryPort                       obj/main/OPENDRONEBRH/telemetry/frsky.o (symbol from plugin)
configureHoTTTelemetryPort                        obj/main/OPENDRONEBRH/telemetry/hott.o (symbol from plugin)
configureIbusTelemetryPort                        obj/main/OPENDRONEBRH/telemetry/ibus.o (symbol from plugin)
configureMAVLinkTelemetryPort                     obj/main/OPENDRONEBRH/telemetry/mavlink.o (symbol from plugin)
configureModeActivationCondition                  obj/main/OPENDRONEBRH/fc/rc_modes.o (symbol from plugin)
constrain                                         obj/main/OPENDRONEBRH/common/maths.o (symbol from plugin)
                                                  obj/main/OPENDRONEBRH/sensors/battery.o (symbol from plugin)
                                                  obj/main/OPENDRONEBRH/rx/crsf.o (symbol from plugin)
                                                  obj/main/OPENDRONEBRH/rx/rx.o (symbol from plugin)
                                                  obj/main/OPENDRONEBRH/rx/fport.o (symbol from plugin)
                                                  obj/main/OPENDRONEBRH/flight/servos.o (symbol from plugin)
                                                  obj/main/OPENDRONEBRH/flight/pid.o (symbol from plugin)
                                                  obj/main/OPENDRONEBRH/flight/mixer.o (symbol from plugin)
                                                  obj/main/OPENDRONEBRH/fc/rc_modes.o (symbol from plugin)
                                                  obj/main/OPENDRONEBRH/fc/rc_adjustments.o (symbol from plugin)
                                                  obj/main/OPENDRONEBRH/fc/fc_msp.o (symbol from plugin)
                                                  obj/main/OPENDRONEBRH/fc/fc_core.o (symbol from plugin)
                                                  obj/main/OPENDRONEBRH/fc/config.o (symbol from plugin)
                                                  obj/main/OPENDRONEBRH/fc/cli.o (symbol from plugin)
                                                  obj/main/OPENDRONEBRH/telemetry/smartport.o (symbol from plugin)
                                                  obj/main/OPENDRONEBRH/telemetry/mavlink.o (symbol from plugin)
                                                  obj/main/OPENDRONEBRH/telemetry/ibus_shared.o (symbol from plugin)
                                                  obj/main/OPENDRONEBRH/telemetry/frsky.o (symbol from plugin)
                                                  obj/main/OPENDRONEBRH/navigation/navigation_multicopter.o (symbol from plugin)
                                                  obj/main/OPENDRONEBRH/navigation/navigation_fixedwing.o (symbol from plugin)
constrainf                                        obj/main/OPENDRONEBRH/common/maths.o (symbol from plugin)
                                                  obj/main/OPENDRONEBRH/flight/pid_autotune.o (symbol from plugin)
                                                  obj/main/OPENDRONEBRH/flight/pid.o (symbol from plugin)
                                                  obj/main/OPENDRONEBRH/fc/fc_msp.o (symbol from plugin)
                                                  obj/main/OPENDRONEBRH/fc/fc_core.o (symbol from plugin)
                                                  obj/main/OPENDRONEBRH/common/filter.o (symbol from plugin)
                                                  obj/main/OPENDRONEBRH/navigation/navigation_pos_estimator.o (symbol from plugin)
                                                  obj/main/OPENDRONEBRH/navigation/navigation_multicopter.o (symbol from plugin)
                                                  obj/main/OPENDRONEBRH/navigation/navigation_geo.o (symbol from plugin)
                                                  obj/main/OPENDRONEBRH/navigation/navigation_fw_launch.o (symbol from plugin)
                                                  obj/main/OPENDRONEBRH/navigation/navigation_fixedwing.o (symbol from plugin)
                                                  obj/main/OPENDRONEBRH/navigation/navigation.o (symbol from plugin)
controlRateProfiles_CopyArray                     obj/main/OPENDRONEBRH/fc/controlrate_profile.o (symbol from plugin)
controlRateProfiles_Registry                      /tmp/ccjoD88l.ltrans0.ltrans.o
                                                  obj/main/OPENDRONEBRH/fc/controlrate_profile.o (symbol from plugin)
controlRateProfiles_SystemArray                   obj/main/OPENDRONEBRH/fc/controlrate_profile.o (symbol from plugin)
cos_approx                                        /tmp/ccjoD88l.ltrans1.ltrans.o
                                                  obj/main/OPENDRONEBRH/common/maths.o (symbol from plugin)
                                                  /tmp/ccjoD88l.ltrans5.ltrans.o
                                                  /tmp/ccjoD88l.ltrans4.ltrans.o
                                                  /tmp/ccjoD88l.ltrans3.ltrans.o
                                                  /tmp/ccjoD88l.ltrans0.ltrans.o
                                                  obj/main/OPENDRONEBRH/sensors/boardalignment.o (symbol from plugin)
                                                  obj/main/OPENDRONEBRH/flight/pid.o (symbol from plugin)
                                                  obj/main/OPENDRONEBRH/flight/imu.o (symbol from plugin)
                                                  obj/main/OPENDRONEBRH/fc/fc_core.o (symbol from plugin)
                                                  obj/main/OPENDRONEBRH/common/filter.o (symbol from plugin)
                                                  obj/main/OPENDRONEBRH/navigation/navigation_pos_estimator.o (symbol from plugin)
                                                  obj/main/OPENDRONEBRH/navigation/navigation_multicopter.o (symbol from plugin)
                                                  obj/main/OPENDRONEBRH/navigation/navigation_geo.o (symbol from plugin)
                                                  obj/main/OPENDRONEBRH/navigation/navigation_fw_launch.o (symbol from plugin)
                                                  obj/main/OPENDRONEBRH/navigation/navigation_fixedwing.o (symbol from plugin)
                                                  obj/main/OPENDRONEBRH/navigation/navigation.o (symbol from plugin)
crc16_ccitt                                       obj/main/OPENDRONEBRH/common/crc.o (symbol from plugin)
                                                  obj/main/OPENDRONEBRH/drivers/rx_xn297.o (symbol from plugin)
                                                  obj/main/OPENDRONEBRH/config/config_eeprom.o (symbol from plugin)
crc16_ccitt_sbuf_append                           obj/main/OPENDRONEBRH/common/crc.o (symbol from plugin)
crc16_ccitt_update                                obj/main/OPENDRONEBRH/common/crc.o (symbol from plugin)
crc8_dvb_s2                                       /tmp/ccjoD88l.ltrans1.ltrans.o
                                                  obj/main/OPENDRONEBRH/common/crc.o (symbol from plugin)
                                                  /tmp/ccjoD88l.ltrans5.ltrans.o
                                                  /tmp/ccjoD88l.ltrans4.ltrans.o
                                                  /tmp/ccjoD88l.ltrans3.ltrans.o
                                                  /tmp/ccjoD88l.ltrans2.ltrans.o
                                                  obj/main/OPENDRONEBRH/rx/crsf.o (symbol from plugin)
                                                  obj/main/OPENDRONEBRH/msp/msp_serial.o (symbol from plugin)
                                                  obj/main/OPENDRONEBRH/io/rcdevice.o (symbol from plugin)
                                                  obj/main/OPENDRONEBRH/telemetry/crsf.o (symbol from plugin)
crc8_dvb_s2_sbuf_append                           obj/main/OPENDRONEBRH/common/crc.o (symbol from plugin)
                                                  obj/main/OPENDRONEBRH/io/rcdevice.o (symbol from plugin)
crc8_dvb_s2_update                                /tmp/ccjoD88l.ltrans1.ltrans.o
                                                  obj/main/OPENDRONEBRH/common/crc.o (symbol from plugin)
                                                  /tmp/ccjoD88l.ltrans4.ltrans.o
                                                  obj/main/OPENDRONEBRH/msp/msp_serial.o (symbol from plugin)
crc8_xor_sbuf_append                              obj/main/OPENDRONEBRH/common/crc.o (symbol from plugin)
crc8_xor_update                                   obj/main/OPENDRONEBRH/common/crc.o (symbol from plugin)
crc_accumulate.lto_priv.229                       /tmp/ccjoD88l.ltrans3.ltrans.o
                                                  /tmp/ccjoD88l.ltrans4.ltrans.o
                                                  /tmp/ccjoD88l.ltrans2.ltrans.o
crc_high_first.constprop.73                       /tmp/ccjoD88l.ltrans4.ltrans.o
                                                  /tmp/ccjoD88l.ltrans5.ltrans.o
                                                  /tmp/ccjoD88l.ltrans1.ltrans.o
createDefaultConfig                               obj/main/OPENDRONEBRH/fc/config.o (symbol from plugin)
createExBusMessage                                obj/main/OPENDRONEBRH/rx/jetiexbus.o (symbol from plugin)
createExTelemetrieTextMessage                     obj/main/OPENDRONEBRH/rx/jetiexbus.o (symbol from plugin)
createExTelemetrieValueMessage                    obj/main/OPENDRONEBRH/rx/jetiexbus.o (symbol from plugin)
crsfCrc.lto_priv.512                              /tmp/ccjoD88l.ltrans2.ltrans.o
                                                  /tmp/ccjoD88l.ltrans3.ltrans.o
crsfFinalize.lto_priv.325                         /tmp/ccjoD88l.ltrans3.ltrans.o
                                                  /tmp/ccjoD88l.ltrans2.ltrans.o
crsfFrame.lto_priv.513                            /tmp/ccjoD88l.ltrans2.ltrans.o
                                                  /tmp/ccjoD88l.ltrans3.ltrans.o
crsfFrameAttitude                                 obj/main/OPENDRONEBRH/telemetry/crsf.o (symbol from plugin)
crsfFrameBatterySensor                            obj/main/OPENDRONEBRH/telemetry/crsf.o (symbol from plugin)
crsfFrameFlightMode                               obj/main/OPENDRONEBRH/telemetry/crsf.o (symbol from plugin)
crsfFrameGps                                      obj/main/OPENDRONEBRH/telemetry/crsf.o (symbol from plugin)
crsfRxInit                                        obj/main/OPENDRONEBRH/rx/crsf.o (symbol from plugin)
                                                  obj/main/OPENDRONEBRH/rx/rx.o (symbol from plugin)
crsfRxIsActive                                    obj/main/OPENDRONEBRH/rx/crsf.o (symbol from plugin)
                                                  obj/main/OPENDRONEBRH/telemetry/crsf.o (symbol from plugin)
crsfRxSendTelemetryData                           obj/main/OPENDRONEBRH/rx/crsf.o (symbol from plugin)
                                                  obj/main/OPENDRONEBRH/telemetry/crsf.o (symbol from plugin)
crsfRxWriteTelemetryData                          obj/main/OPENDRONEBRH/rx/crsf.o (symbol from plugin)
                                                  obj/main/OPENDRONEBRH/telemetry/crsf.o (symbol from plugin)
crsfSchedule.lto_priv.489                         /tmp/ccjoD88l.ltrans2.ltrans.o
                                                  /tmp/ccjoD88l.ltrans1.ltrans.o
crsfScheduleCount.lto_priv.490                    /tmp/ccjoD88l.ltrans2.ltrans.o
                                                  /tmp/ccjoD88l.ltrans1.ltrans.o
crsfSerialize16.lto_priv.327                      /tmp/ccjoD88l.ltrans3.ltrans.o
                                                  /tmp/ccjoD88l.ltrans2.ltrans.o
crsfSerialize32.lto_priv.328                      /tmp/ccjoD88l.ltrans3.ltrans.o
                                                  /tmp/ccjoD88l.ltrans2.ltrans.o
crsfSerialize8.lto_priv.326                       /tmp/ccjoD88l.ltrans3.ltrans.o
                                                  /tmp/ccjoD88l.ltrans2.ltrans.o
crsfTelemetryEnabled.lto_priv.474                 /tmp/ccjoD88l.ltrans2.ltrans.o
                                                  /tmp/ccjoD88l.ltrans1.ltrans.o
currentControlRateProfile                         /tmp/ccjoD88l.ltrans5.ltrans.o
                                                  obj/main/OPENDRONEBRH/fc/controlrate_profile.o (symbol from plugin)
                                                  /tmp/ccjoD88l.ltrans3.ltrans.o
                                                  /tmp/ccjoD88l.ltrans2.ltrans.o
                                                  /tmp/ccjoD88l.ltrans0.ltrans.o
                                                  obj/main/OPENDRONEBRH/flight/pid_autotune.o (symbol from plugin)
                                                  obj/main/OPENDRONEBRH/flight/pid.o (symbol from plugin)
                                                  obj/main/OPENDRONEBRH/flight/failsafe.o (symbol from plugin)
                                                  obj/main/OPENDRONEBRH/fc/fc_msp.o (symbol from plugin)
                                                  obj/main/OPENDRONEBRH/fc/fc_core.o (symbol from plugin)
                                                  obj/main/OPENDRONEBRH/navigation/navigation_fixedwing.o (symbol from plugin)
currentMeterUpdate                                obj/main/OPENDRONEBRH/sensors/battery.o (symbol from plugin)
                                                  obj/main/OPENDRONEBRH/fc/fc_tasks.o (symbol from plugin)
currentMixer.lto_priv.470                         /tmp/ccjoD88l.ltrans0.ltrans.o
                                                  /tmp/ccjoD88l.ltrans1.ltrans.o
currentSensorToCentiamps                          obj/main/OPENDRONEBRH/sensors/battery.o (symbol from plugin)
currentServoMixer.lto_priv.358                    /tmp/ccjoD88l.ltrans5.ltrans.o
                                                  /tmp/ccjoD88l.ltrans1.ltrans.o
                                                  /tmp/ccjoD88l.ltrans0.ltrans.o
currentTask.lto_priv.283                          /tmp/ccjoD88l.ltrans4.ltrans.o
                                                  /tmp/ccjoD88l.ltrans2.ltrans.o
                                                  /tmp/ccjoD88l.ltrans1.ltrans.o
                                                  /tmp/ccjoD88l.ltrans0.ltrans.o
customMotorMixer_CopyArray                        /tmp/ccjoD88l.ltrans2.ltrans.o
                                                  obj/main/OPENDRONEBRH/flight/mixer.o (symbol from plugin)
                                                  /tmp/ccjoD88l.ltrans0.ltrans.o
                                                  obj/main/OPENDRONEBRH/fc/cli.o (symbol from plugin)
customMotorMixer_Registry                         /tmp/ccjoD88l.ltrans2.ltrans.o
                                                  obj/main/OPENDRONEBRH/flight/mixer.o (symbol from plugin)
customMotorMixer_SystemArray                      /tmp/ccjoD88l.ltrans2.ltrans.o
                                                  obj/main/OPENDRONEBRH/flight/mixer.o (symbol from plugin)
                                                  /tmp/ccjoD88l.ltrans1.ltrans.o
                                                  /tmp/ccjoD88l.ltrans0.ltrans.o
                                                  obj/main/OPENDRONEBRH/fc/fc_msp.o (symbol from plugin)
                                                  obj/main/OPENDRONEBRH/fc/cli.o (symbol from plugin)
customServoMixers_CopyArray                       /tmp/ccjoD88l.ltrans5.ltrans.o
                                                  obj/main/OPENDRONEBRH/flight/servos.o (symbol from plugin)
                                                  /tmp/ccjoD88l.ltrans0.ltrans.o
                                                  obj/main/OPENDRONEBRH/fc/cli.o (symbol from plugin)
customServoMixers_Registry                        /tmp/ccjoD88l.ltrans5.ltrans.o
                                                  obj/main/OPENDRONEBRH/flight/servos.o (symbol from plugin)
customServoMixers_SystemArray                     /tmp/ccjoD88l.ltrans5.ltrans.o
                                                  obj/main/OPENDRONEBRH/flight/servos.o (symbol from plugin)
                                                  /tmp/ccjoD88l.ltrans2.ltrans.o
                                                  /tmp/ccjoD88l.ltrans0.ltrans.o
                                                  obj/main/OPENDRONEBRH/fc/fc_msp.o (symbol from plugin)
                                                  obj/main/OPENDRONEBRH/fc/cli.o (symbol from plugin)
cycleCounterInit                                  obj/main/OPENDRONEBRH/drivers/system.o (symbol from plugin)
                                                  obj/main/OPENDRONEBRH/drivers/system_stm32f30x.o (symbol from plugin)
cycleTime                                         /tmp/ccjoD88l.ltrans2.ltrans.o
                                                  obj/main/OPENDRONEBRH/fc/fc_core.o (symbol from plugin)
                                                  /tmp/ccjoD88l.ltrans0.ltrans.o
                                                  obj/main/OPENDRONEBRH/fc/fc_msp.o (symbol from plugin)
                                                  obj/main/OPENDRONEBRH/fc/cli.o (symbol from plugin)
dT                                                /tmp/ccjoD88l.ltrans5.ltrans.o
                                                  obj/main/OPENDRONEBRH/fc/fc_core.o (symbol from plugin)
                                                  /tmp/ccjoD88l.ltrans0.ltrans.o
                                                  obj/main/OPENDRONEBRH/flight/pid.o (symbol from plugin)
dateTimeFormatLocal                               obj/main/OPENDRONEBRH/common/time.o (symbol from plugin)
                                                  obj/main/OPENDRONEBRH/fc/cli.o (symbol from plugin)
dateTimeFormatUTC                                 obj/main/OPENDRONEBRH/common/time.o (symbol from plugin)
dateTimeSplitFormatted                            obj/main/OPENDRONEBRH/common/time.o (symbol from plugin)
dateTimeToRtcTime.lto_priv.443                    /tmp/ccjoD88l.ltrans1.ltrans.o
                                                  /tmp/ccjoD88l.ltrans3.ltrans.o
                                                  /tmp/ccjoD88l.ltrans0.ltrans.o
dateTimeUTCToLocal                                obj/main/OPENDRONEBRH/common/time.o (symbol from plugin)
debug                                             /tmp/ccjoD88l.ltrans4.ltrans.o
                                                  obj/main/OPENDRONEBRH/build/debug.o (symbol from plugin)
                                                  /tmp/ccjoD88l.ltrans3.ltrans.o
                                                  /tmp/ccjoD88l.ltrans2.ltrans.o
                                                  /tmp/ccjoD88l.ltrans0.ltrans.o
                                                  obj/main/OPENDRONEBRH/sensors/gyro.o (symbol from plugin)
                                                  obj/main/OPENDRONEBRH/rx/sbus.o (symbol from plugin)
                                                  obj/main/OPENDRONEBRH/rx/fport.o (symbol from plugin)
                                                  obj/main/OPENDRONEBRH/fc/fc_msp.o (symbol from plugin)
                                                  obj/main/OPENDRONEBRH/sensors/pitotmeter.o (symbol from plugin)
                                                  obj/main/OPENDRONEBRH/navigation/navigation_multicopter.o (symbol from plugin)
                                                  obj/main/OPENDRONEBRH/navigation/navigation.o (symbol from plugin)
debugMode                                         /tmp/ccjoD88l.ltrans4.ltrans.o
                                                  obj/main/OPENDRONEBRH/build/debug.o (symbol from plugin)
                                                  /tmp/ccjoD88l.ltrans3.ltrans.o
                                                  /tmp/ccjoD88l.ltrans2.ltrans.o
                                                  /tmp/ccjoD88l.ltrans1.ltrans.o
                                                  /tmp/ccjoD88l.ltrans0.ltrans.o
                                                  obj/main/OPENDRONEBRH/sensors/gyro.o (symbol from plugin)
                                                  obj/main/OPENDRONEBRH/rx/sbus.o (symbol from plugin)
                                                  obj/main/OPENDRONEBRH/rx/fport.o (symbol from plugin)
                                                  obj/main/OPENDRONEBRH/fc/fc_init.o (symbol from plugin)
                                                  obj/main/OPENDRONEBRH/sensors/pitotmeter.o (symbol from plugin)
                                                  obj/main/OPENDRONEBRH/navigation/navigation_multicopter.o (symbol from plugin)
                                                  obj/main/OPENDRONEBRH/navigation/navigation.o (symbol from plugin)
debugTraceInit                                    obj/main/OPENDRONEBRH/build/debug.o (symbol from plugin)
                                                  obj/main/OPENDRONEBRH/fc/fc_init.o (symbol from plugin)
debugTracePrintBufferHex                          obj/main/OPENDRONEBRH/build/debug.o (symbol from plugin)
debugTracePrintf                                  /tmp/ccjoD88l.ltrans1.ltrans.o
                                                  obj/main/OPENDRONEBRH/build/debug.o (symbol from plugin)
                                                  /tmp/ccjoD88l.ltrans5.ltrans.o
                                                  /tmp/ccjoD88l.ltrans3.ltrans.o
                                                  /tmp/ccjoD88l.ltrans2.ltrans.o
                                                  /tmp/ccjoD88l.ltrans0.ltrans.o
                                                  obj/main/OPENDRONEBRH/sensors/gyro.o (symbol from plugin)
                                                  obj/main/OPENDRONEBRH/flight/imu.o (symbol from plugin)
                                                  obj/main/OPENDRONEBRH/drivers/pwm_output.o (symbol from plugin)
                                                  obj/main/OPENDRONEBRH/common/memory.o (symbol from plugin)
                                                  obj/main/OPENDRONEBRH/sensors/barometer.o (symbol from plugin)
                                                  obj/main/OPENDRONEBRH/drivers/accgyro/accgyro.o (symbol from plugin)
degreesToRadians                                  obj/main/OPENDRONEBRH/common/maths.o (symbol from plugin)
                                                  obj/main/OPENDRONEBRH/flight/imu.o (symbol from plugin)
                                                  obj/main/OPENDRONEBRH/fc/fc_core.o (symbol from plugin)
delay                                             /tmp/ccjoD88l.ltrans0.ltrans.o
                                                  obj/main/OPENDRONEBRH/drivers/system.o (symbol from plugin)
                                                  /tmp/ccjoD88l.ltrans5.ltrans.o
                                                  /tmp/ccjoD88l.ltrans4.ltrans.o
                                                  /tmp/ccjoD88l.ltrans3.ltrans.o
                                                  /tmp/ccjoD88l.ltrans2.ltrans.o
                                                  /tmp/ccjoD88l.ltrans1.ltrans.o
                                                  obj/main/OPENDRONEBRH/drivers/usb_io.o (symbol from plugin)
                                                  obj/main/OPENDRONEBRH/vcp/hw_config.o (symbol from plugin)
                                                  obj/main/OPENDRONEBRH/sensors/battery.o (symbol from plugin)
                                                  obj/main/OPENDRONEBRH/rx/spektrum.o (symbol from plugin)
                                                  obj/main/OPENDRONEBRH/io/serial.o (symbol from plugin)
                                                  obj/main/OPENDRONEBRH/flight/mixer.o (symbol from plugin)
                                                  obj/main/OPENDRONEBRH/fc/fc_msp.o (symbol from plugin)
                                                  obj/main/OPENDRONEBRH/fc/fc_init.o (symbol from plugin)
                                                  obj/main/OPENDRONEBRH/fc/cli.o (symbol from plugin)
                                                  obj/main/OPENDRONEBRH/drivers/io_pca9685.o (symbol from plugin)
                                                  obj/main/OPENDRONEBRH/drivers/barometer/barometer_ms56xx.o (symbol from plugin)
                                                  obj/main/OPENDRONEBRH/drivers/barometer/barometer_bmp280.o (symbol from plugin)
                                                  obj/main/OPENDRONEBRH/drivers/accgyro/accgyro_mpu6500.o (symbol from plugin)
                                                  obj/main/OPENDRONEBRH/drivers/adc_stm32f30x.o (symbol from plugin)
delayMicroseconds                                 /tmp/ccjoD88l.ltrans0.ltrans.o
                                                  obj/main/OPENDRONEBRH/drivers/system.o (symbol from plugin)
                                                  /tmp/ccjoD88l.ltrans1.ltrans.o
                                                  obj/main/OPENDRONEBRH/rx/spektrum.o (symbol from plugin)
                                                  obj/main/OPENDRONEBRH/drivers/bus_busdev_spi.o (symbol from plugin)
detectedSensors                                   /tmp/ccjoD88l.ltrans4.ltrans.o
                                                  obj/main/OPENDRONEBRH/sensors/initialisation.o (symbol from plugin)
                                                  /tmp/ccjoD88l.ltrans1.ltrans.o
                                                  /tmp/ccjoD88l.ltrans0.ltrans.o
                                                  obj/main/OPENDRONEBRH/sensors/gyro.o (symbol from plugin)
                                                  obj/main/OPENDRONEBRH/sensors/diagnostics.o (symbol from plugin)
                                                  obj/main/OPENDRONEBRH/sensors/acceleration.o (symbol from plugin)
                                                  obj/main/OPENDRONEBRH/fc/cli.o (symbol from plugin)
                                                  obj/main/OPENDRONEBRH/sensors/pitotmeter.o (symbol from plugin)
                                                  obj/main/OPENDRONEBRH/sensors/barometer.o (symbol from plugin)
determinePortSharing                              /tmp/ccjoD88l.ltrans5.ltrans.o
                                                  obj/main/OPENDRONEBRH/io/serial.o (symbol from plugin)
                                                  /tmp/ccjoD88l.ltrans1.ltrans.o
                                                  obj/main/OPENDRONEBRH/build/debug.o (symbol from plugin)
                                                  obj/main/OPENDRONEBRH/telemetry/smartport.o (symbol from plugin)
                                                  obj/main/OPENDRONEBRH/telemetry/mavlink.o (symbol from plugin)
                                                  obj/main/OPENDRONEBRH/telemetry/ibus.o (symbol from plugin)
                                                  obj/main/OPENDRONEBRH/telemetry/hott.o (symbol from plugin)
                                                  obj/main/OPENDRONEBRH/telemetry/frsky.o (symbol from plugin)
determineServoMiddleOrForwardFromChannel          /tmp/ccjoD88l.ltrans5.ltrans.o
                                                  obj/main/OPENDRONEBRH/flight/servos.o (symbol from plugin)
                                                  /tmp/ccjoD88l.ltrans0.ltrans.o
devClear                                          obj/main/OPENDRONEBRH/common/maths.o (symbol from plugin)
                                                  obj/main/OPENDRONEBRH/sensors/gyro.o (symbol from plugin)
devPush                                           obj/main/OPENDRONEBRH/common/maths.o (symbol from plugin)
                                                  obj/main/OPENDRONEBRH/sensors/gyro.o (symbol from plugin)
devStandardDeviation                              obj/main/OPENDRONEBRH/common/maths.o (symbol from plugin)
                                                  obj/main/OPENDRONEBRH/sensors/gyro.o (symbol from plugin)
devVariance                                       obj/main/OPENDRONEBRH/common/maths.o (symbol from plugin)
disableFlightMode                                 /tmp/ccjoD88l.ltrans5.ltrans.o
                                                  obj/main/OPENDRONEBRH/fc/runtime_config.o (symbol from plugin)
                                                  /tmp/ccjoD88l.ltrans0.ltrans.o
                                                  obj/main/OPENDRONEBRH/flight/pid_autotune.o (symbol from plugin)
                                                  obj/main/OPENDRONEBRH/flight/failsafe.o (symbol from plugin)
                                                  obj/main/OPENDRONEBRH/fc/fc_core.o (symbol from plugin)
                                                  obj/main/OPENDRONEBRH/navigation/navigation.o (symbol from plugin)
displayClearScreen                                obj/main/OPENDRONEBRH/drivers/display.o (symbol from plugin)
displayConfig_Copy                                obj/main/OPENDRONEBRH/drivers/display.o (symbol from plugin)
displayConfig_Registry                            /tmp/ccjoD88l.ltrans3.ltrans.o
                                                  obj/main/OPENDRONEBRH/drivers/display.o (symbol from plugin)
displayConfig_System                              obj/main/OPENDRONEBRH/drivers/display.o (symbol from plugin)
displayDrawScreen                                 obj/main/OPENDRONEBRH/drivers/display.o (symbol from plugin)
displayGrab                                       obj/main/OPENDRONEBRH/drivers/display.o (symbol from plugin)
displayHeartbeat                                  obj/main/OPENDRONEBRH/drivers/display.o (symbol from plugin)
displayInit                                       obj/main/OPENDRONEBRH/drivers/display.o (symbol from plugin)
displayIsGrabbed                                  obj/main/OPENDRONEBRH/drivers/display.o (symbol from plugin)
displayIsTransferInProgress                       obj/main/OPENDRONEBRH/drivers/display.o (symbol from plugin)
displayRelease                                    obj/main/OPENDRONEBRH/drivers/display.o (symbol from plugin)
displayReleaseAll                                 obj/main/OPENDRONEBRH/drivers/display.o (symbol from plugin)
displayResync                                     obj/main/OPENDRONEBRH/drivers/display.o (symbol from plugin)
displayScreenSize                                 obj/main/OPENDRONEBRH/drivers/display.o (symbol from plugin)
displaySetXY                                      obj/main/OPENDRONEBRH/drivers/display.o (symbol from plugin)
displayTxBytesFree                                obj/main/OPENDRONEBRH/drivers/display.o (symbol from plugin)
displayWrite                                      obj/main/OPENDRONEBRH/drivers/display.o (symbol from plugin)
displayWriteChar                                  obj/main/OPENDRONEBRH/drivers/display.o (symbol from plugin)
displayWriteCharWithAttr                          obj/main/OPENDRONEBRH/drivers/display.o (symbol from plugin)
displayWriteWithAttr                              obj/main/OPENDRONEBRH/drivers/display.o (symbol from plugin)
dmaDescriptors.lto_priv.532                       /tmp/ccjoD88l.ltrans1.ltrans.o
                                                  /tmp/ccjoD88l.ltrans3.ltrans.o
dmaEnableClock                                    obj/main/OPENDRONEBRH/drivers/dma.o (symbol from plugin)
dmaFindHandlerIdentifier                          obj/main/OPENDRONEBRH/drivers/dma.o (symbol from plugin)
dmaInit                                           obj/main/OPENDRONEBRH/drivers/dma.o (symbol from plugin)
dmaSetHandler                                     obj/main/OPENDRONEBRH/drivers/dma.o (symbol from plugin)
                                                  obj/main/OPENDRONEBRH/drivers/serial_uart_stm32f30x.o (symbol from plugin)
doesConfigurationUsePort                          obj/main/OPENDRONEBRH/io/serial.o (symbol from plugin)
                                                  obj/main/OPENDRONEBRH/fc/fc_init.o (symbol from plugin)
driverImplementationIndex.lto_priv.278            /tmp/ccjoD88l.ltrans4.ltrans.o
eepromConfigSize.lto_priv.451                     /tmp/ccjoD88l.ltrans0.ltrans.o
                                                  /tmp/ccjoD88l.ltrans1.ltrans.o
enableFixedWingLaunchController                   obj/main/OPENDRONEBRH/navigation/navigation_fw_launch.o (symbol from plugin)
                                                  obj/main/OPENDRONEBRH/navigation/navigation.o (symbol from plugin)
enableFlightMode                                  /tmp/ccjoD88l.ltrans5.ltrans.o
                                                  obj/main/OPENDRONEBRH/fc/runtime_config.o (symbol from plugin)
                                                  /tmp/ccjoD88l.ltrans0.ltrans.o
                                                  obj/main/OPENDRONEBRH/flight/pid_autotune.o (symbol from plugin)
                                                  obj/main/OPENDRONEBRH/flight/failsafe.o (symbol from plugin)
                                                  obj/main/OPENDRONEBRH/fc/fc_core.o (symbol from plugin)
                                                  obj/main/OPENDRONEBRH/navigation/navigation.o (symbol from plugin)
enableGPIOPowerUsageAndNoiseReductions            obj/main/OPENDRONEBRH/drivers/system_stm32f30x.o (symbol from plugin)
enabledSensors.lto_priv.245                       /tmp/ccjoD88l.ltrans4.ltrans.o
                                                  /tmp/ccjoD88l.ltrans5.ltrans.o
                                                  /tmp/ccjoD88l.ltrans3.ltrans.o
                                                  /tmp/ccjoD88l.ltrans2.ltrans.o
                                                  /tmp/ccjoD88l.ltrans1.ltrans.o
                                                  /tmp/ccjoD88l.ltrans0.ltrans.o
ensureEEPROMContainsValidData                     obj/main/OPENDRONEBRH/fc/config.o (symbol from plugin)
                                                  obj/main/OPENDRONEBRH/fc/fc_init.o (symbol from plugin)
esof_counter                                      obj/main/OPENDRONEBRH/vcp/usb_istr.o (symbol from plugin)
eventCount.lto_priv.449                           /tmp/ccjoD88l.ltrans0.ltrans.o
                                                  /tmp/ccjoD88l.ltrans1.ltrans.o
events.lto_priv.450                               /tmp/ccjoD88l.ltrans0.ltrans.o
                                                  /tmp/ccjoD88l.ltrans1.ltrans.o
exDataTypeLen                                     obj/main/OPENDRONEBRH/rx/jetiexbus.o (symbol from plugin)
extiChannelRecs                                   /tmp/ccjoD88l.ltrans1.ltrans.o
                                                  obj/main/OPENDRONEBRH/drivers/exti.o (symbol from plugin)
                                                  /tmp/ccjoD88l.ltrans3.ltrans.o
extiGroupPriority.lto_priv.527                    /tmp/ccjoD88l.ltrans1.ltrans.o
                                                  /tmp/ccjoD88l.ltrans3.ltrans.o
extiHandlerConfigs                                obj/main/OPENDRONEBRH/drivers/system.o (symbol from plugin)
                                                  obj/main/OPENDRONEBRH/drivers/system_stm32f30x.o (symbol from plugin)
extractAndStoreRxByte                             obj/main/OPENDRONEBRH/drivers/serial_softserial.o (symbol from plugin)
fSuspendEnabled                                   obj/main/OPENDRONEBRH/vcp/usb_pwr.o (symbol from plugin)
failsafeActivate.lto_priv.432                     /tmp/ccjoD88l.ltrans5.ltrans.o
                                                  /tmp/ccjoD88l.ltrans0.ltrans.o
failsafeApplyControlInput                         obj/main/OPENDRONEBRH/flight/failsafe.o (symbol from plugin)
                                                  obj/main/OPENDRONEBRH/fc/fc_core.o (symbol from plugin)
failsafeBypassNavigation                          obj/main/OPENDRONEBRH/flight/failsafe.o (symbol from plugin)
                                                  obj/main/OPENDRONEBRH/navigation/navigation.o (symbol from plugin)
failsafeConfig_Copy                               obj/main/OPENDRONEBRH/flight/failsafe.o (symbol from plugin)
failsafeConfig_Registry                           /tmp/ccjoD88l.ltrans5.ltrans.o
                                                  obj/main/OPENDRONEBRH/flight/failsafe.o (symbol from plugin)
failsafeConfig_System                             /tmp/ccjoD88l.ltrans5.ltrans.o
                                                  obj/main/OPENDRONEBRH/flight/failsafe.o (symbol from plugin)
                                                  /tmp/ccjoD88l.ltrans3.ltrans.o
                                                  /tmp/ccjoD88l.ltrans2.ltrans.o
                                                  /tmp/ccjoD88l.ltrans0.ltrans.o
                                                  obj/main/OPENDRONEBRH/fc/fc_msp.o (symbol from plugin)
                                                  obj/main/OPENDRONEBRH/navigation/navigation_multicopter.o (symbol from plugin)
                                                  obj/main/OPENDRONEBRH/navigation/navigation_fixedwing.o (symbol from plugin)
failsafeInit                                      obj/main/OPENDRONEBRH/flight/failsafe.o (symbol from plugin)
                                                  obj/main/OPENDRONEBRH/fc/fc_init.o (symbol from plugin)
failsafeIsActive                                  obj/main/OPENDRONEBRH/flight/failsafe.o (symbol from plugin)
                                                  obj/main/OPENDRONEBRH/flight/mixer.o (symbol from plugin)
                                                  obj/main/OPENDRONEBRH/fc/rc_controls.o (symbol from plugin)
                                                  obj/main/OPENDRONEBRH/fc/fc_core.o (symbol from plugin)
                                                  obj/main/OPENDRONEBRH/telemetry/mavlink.o (symbol from plugin)
failsafeIsMonitoring                              obj/main/OPENDRONEBRH/flight/failsafe.o (symbol from plugin)
                                                  obj/main/OPENDRONEBRH/fc/fc_core.o (symbol from plugin)
failsafeIsReceivingRxData                         obj/main/OPENDRONEBRH/flight/failsafe.o (symbol from plugin)
                                                  obj/main/OPENDRONEBRH/fc/fc_core.o (symbol from plugin)
failsafeIsSuspended                               obj/main/OPENDRONEBRH/flight/failsafe.o (symbol from plugin)
failsafeMayRequireNavigationMode                  obj/main/OPENDRONEBRH/flight/failsafe.o (symbol from plugin)
                                                  obj/main/OPENDRONEBRH/navigation/navigation.o (symbol from plugin)
failsafeOnRxResume                                obj/main/OPENDRONEBRH/flight/failsafe.o (symbol from plugin)
                                                  obj/main/OPENDRONEBRH/rx/rx.o (symbol from plugin)
failsafeOnRxSuspend                               obj/main/OPENDRONEBRH/flight/failsafe.o (symbol from plugin)
                                                  obj/main/OPENDRONEBRH/rx/rx.o (symbol from plugin)
failsafeOnValidDataFailed                         obj/main/OPENDRONEBRH/flight/failsafe.o (symbol from plugin)
                                                  obj/main/OPENDRONEBRH/rx/rx.o (symbol from plugin)
failsafeOnValidDataReceived                       obj/main/OPENDRONEBRH/flight/failsafe.o (symbol from plugin)
                                                  obj/main/OPENDRONEBRH/rx/rx.o (symbol from plugin)
failsafePhase                                     obj/main/OPENDRONEBRH/flight/failsafe.o (symbol from plugin)
failsafeProcedureLogic.lto_priv.364               /tmp/ccjoD88l.ltrans5.ltrans.o
                                                  /tmp/ccjoD88l.ltrans3.ltrans.o
                                                  /tmp/ccjoD88l.ltrans0.ltrans.o
failsafeRequiresAngleMode                         /tmp/ccjoD88l.ltrans5.ltrans.o
                                                  obj/main/OPENDRONEBRH/flight/failsafe.o (symbol from plugin)
                                                  /tmp/ccjoD88l.ltrans0.ltrans.o
                                                  obj/main/OPENDRONEBRH/fc/fc_core.o (symbol from plugin)
failsafeRequiresMotorStop                         obj/main/OPENDRONEBRH/flight/failsafe.o (symbol from plugin)
                                                  obj/main/OPENDRONEBRH/flight/mixer.o (symbol from plugin)
failsafeReset                                     obj/main/OPENDRONEBRH/flight/failsafe.o (symbol from plugin)
                                                  obj/main/OPENDRONEBRH/fc/config.o (symbol from plugin)
failsafeShouldApplyControlInput                   obj/main/OPENDRONEBRH/flight/failsafe.o (symbol from plugin)
                                                  obj/main/OPENDRONEBRH/fc/fc_core.o (symbol from plugin)
failsafeStartMonitoring                           obj/main/OPENDRONEBRH/flight/failsafe.o (symbol from plugin)
                                                  obj/main/OPENDRONEBRH/fc/fc_core.o (symbol from plugin)
failsafeState.lto_priv.252                        /tmp/ccjoD88l.ltrans4.ltrans.o
                                                  /tmp/ccjoD88l.ltrans5.ltrans.o
                                                  /tmp/ccjoD88l.ltrans3.ltrans.o
                                                  /tmp/ccjoD88l.ltrans2.ltrans.o
                                                  /tmp/ccjoD88l.ltrans1.ltrans.o
                                                  /tmp/ccjoD88l.ltrans0.ltrans.o
failsafeUpdateRcCommandValues                     obj/main/OPENDRONEBRH/flight/failsafe.o (symbol from plugin)
                                                  obj/main/OPENDRONEBRH/fc/fc_core.o (symbol from plugin)
failsafeUpdateState                               obj/main/OPENDRONEBRH/flight/failsafe.o (symbol from plugin)
                                                  obj/main/OPENDRONEBRH/fc/fc_core.o (symbol from plugin)
failureMode                                       /tmp/ccjoD88l.ltrans0.ltrans.o
                                                  obj/main/OPENDRONEBRH/drivers/system.o (symbol from plugin)
                                                  /tmp/ccjoD88l.ltrans1.ltrans.o
                                                  obj/main/OPENDRONEBRH/fc/fc_init.o (symbol from plugin)
                                                  obj/main/OPENDRONEBRH/fc/config.o (symbol from plugin)
                                                  obj/main/OPENDRONEBRH/config/config_eeprom.o (symbol from plugin)
fastA2F                                           /tmp/ccjoD88l.ltrans1.ltrans.o
                                                  obj/main/OPENDRONEBRH/common/typeconversion.o (symbol from plugin)
                                                  /tmp/ccjoD88l.ltrans0.ltrans.o
                                                  obj/main/OPENDRONEBRH/fc/cli.o (symbol from plugin)
fastA2I                                           /tmp/ccjoD88l.ltrans1.ltrans.o
                                                  obj/main/OPENDRONEBRH/common/typeconversion.o (symbol from plugin)
                                                  /tmp/ccjoD88l.ltrans0.ltrans.o
                                                  obj/main/OPENDRONEBRH/fc/cli.o (symbol from plugin)
fastA2UL                                          obj/main/OPENDRONEBRH/common/typeconversion.o (symbol from plugin)
                                                  obj/main/OPENDRONEBRH/fc/cli.o (symbol from plugin)
fat16_isEndOfChainMarker                          obj/main/OPENDRONEBRH/io/asyncfatfs/fat_standard.o (symbol from plugin)
                                                  obj/main/OPENDRONEBRH/io/asyncfatfs/asyncfatfs.o (symbol from plugin)
fat32_decodeClusterNumber                         obj/main/OPENDRONEBRH/io/asyncfatfs/fat_standard.o (symbol from plugin)
                                                  obj/main/OPENDRONEBRH/io/asyncfatfs/asyncfatfs.o (symbol from plugin)
fat32_isEndOfChainMarker                          obj/main/OPENDRONEBRH/io/asyncfatfs/fat_standard.o (symbol from plugin)
                                                  obj/main/OPENDRONEBRH/io/asyncfatfs/asyncfatfs.o (symbol from plugin)
fat_convertFilenameToFATStyle                     obj/main/OPENDRONEBRH/io/asyncfatfs/fat_standard.o (symbol from plugin)
                                                  obj/main/OPENDRONEBRH/io/asyncfatfs/asyncfatfs.o (symbol from plugin)
fat_isDirectoryEntryEmpty                         obj/main/OPENDRONEBRH/io/asyncfatfs/fat_standard.o (symbol from plugin)
                                                  obj/main/OPENDRONEBRH/io/asyncfatfs/asyncfatfs.o (symbol from plugin)
fat_isDirectoryEntryTerminator                    obj/main/OPENDRONEBRH/io/asyncfatfs/fat_standard.o (symbol from plugin)
                                                  obj/main/OPENDRONEBRH/io/asyncfatfs/asyncfatfs.o (symbol from plugin)
fat_isFreeSpace                                   obj/main/OPENDRONEBRH/io/asyncfatfs/fat_standard.o (symbol from plugin)
                                                  obj/main/OPENDRONEBRH/io/asyncfatfs/asyncfatfs.o (symbol from plugin)
fcTasksInit                                       obj/main/OPENDRONEBRH/fc/fc_tasks.o (symbol from plugin)
                                                  obj/main/OPENDRONEBRH/fc/fc_init.o (symbol from plugin)
feature                                           obj/main/OPENDRONEBRH/config/feature.o (symbol from plugin)
                                                  obj/main/OPENDRONEBRH/sensors/diagnostics.o (symbol from plugin)
                                                  obj/main/OPENDRONEBRH/sensors/battery.o (symbol from plugin)
                                                  obj/main/OPENDRONEBRH/rx/rx.o (symbol from plugin)
                                                  obj/main/OPENDRONEBRH/io/beeper.o (symbol from plugin)
                                                  obj/main/OPENDRONEBRH/flight/servos.o (symbol from plugin)
                                                  obj/main/OPENDRONEBRH/flight/mixer.o (symbol from plugin)
                                                  obj/main/OPENDRONEBRH/flight/failsafe.o (symbol from plugin)
                                                  obj/main/OPENDRONEBRH/fc/stats.o (symbol from plugin)
                                                  obj/main/OPENDRONEBRH/fc/rc_modes.o (symbol from plugin)
                                                  obj/main/OPENDRONEBRH/fc/rc_controls.o (symbol from plugin)
                                                  obj/main/OPENDRONEBRH/fc/fc_msp_box.o (symbol from plugin)
                                                  obj/main/OPENDRONEBRH/fc/fc_tasks.o (symbol from plugin)
                                                  obj/main/OPENDRONEBRH/fc/fc_init.o (symbol from plugin)
                                                  obj/main/OPENDRONEBRH/fc/fc_core.o (symbol from plugin)
                                                  obj/main/OPENDRONEBRH/drivers/pwm_output.o (symbol from plugin)
                                                  obj/main/OPENDRONEBRH/build/debug.o (symbol from plugin)
                                                  obj/main/OPENDRONEBRH/telemetry/smartport.o (symbol from plugin)
                                                  obj/main/OPENDRONEBRH/telemetry/mavlink.o (symbol from plugin)
                                                  obj/main/OPENDRONEBRH/telemetry/ibus_shared.o (symbol from plugin)
                                                  obj/main/OPENDRONEBRH/telemetry/frsky.o (symbol from plugin)
                                                  obj/main/OPENDRONEBRH/telemetry/crsf.o (symbol from plugin)
                                                  obj/main/OPENDRONEBRH/navigation/navigation.o (symbol from plugin)
                                                  obj/main/OPENDRONEBRH/io/gps.o (symbol from plugin)
featureClear                                      obj/main/OPENDRONEBRH/config/feature.o (symbol from plugin)
                                                  obj/main/OPENDRONEBRH/fc/fc_init.o (symbol from plugin)
                                                  obj/main/OPENDRONEBRH/fc/config.o (symbol from plugin)
                                                  obj/main/OPENDRONEBRH/fc/cli.o (symbol from plugin)
                                                  obj/main/OPENDRONEBRH/io/gps.o (symbol from plugin)
featureClearAll                                   obj/main/OPENDRONEBRH/config/feature.o (symbol from plugin)
                                                  obj/main/OPENDRONEBRH/fc/fc_msp.o (symbol from plugin)
featureConfig_Copy                                /tmp/ccjoD88l.ltrans2.ltrans.o
                                                  obj/main/OPENDRONEBRH/fc/config.o (symbol from plugin)
                                                  /tmp/ccjoD88l.ltrans0.ltrans.o
                                                  obj/main/OPENDRONEBRH/fc/cli.o (symbol from plugin)
featureConfig_Registry                            /tmp/ccjoD88l.ltrans2.ltrans.o
                                                  obj/main/OPENDRONEBRH/fc/config.o (symbol from plugin)
featureConfig_System                              /tmp/ccjoD88l.ltrans2.ltrans.o
                                                  obj/main/OPENDRONEBRH/fc/config.o (symbol from plugin)
                                                  /tmp/ccjoD88l.ltrans1.ltrans.o
                                                  /tmp/ccjoD88l.ltrans0.ltrans.o
                                                  obj/main/OPENDRONEBRH/fc/cli.o (symbol from plugin)
                                                  obj/main/OPENDRONEBRH/config/feature.o (symbol from plugin)
featureConfigured                                 obj/main/OPENDRONEBRH/config/feature.o (symbol from plugin)
featureMask                                       obj/main/OPENDRONEBRH/config/feature.o (symbol from plugin)
                                                  obj/main/OPENDRONEBRH/fc/fc_msp.o (symbol from plugin)
                                                  obj/main/OPENDRONEBRH/fc/cli.o (symbol from plugin)
featureSet                                        obj/main/OPENDRONEBRH/config/feature.o (symbol from plugin)
                                                  obj/main/OPENDRONEBRH/fc/fc_msp.o (symbol from plugin)
                                                  obj/main/OPENDRONEBRH/fc/cli.o (symbol from plugin)
filterGetNotchQ                                   obj/main/OPENDRONEBRH/common/filter.o (symbol from plugin)
filterRc                                          obj/main/OPENDRONEBRH/fc/fc_core.o (symbol from plugin)
findBoxByActiveBoxId                              /tmp/ccjoD88l.ltrans5.ltrans.o
                                                  obj/main/OPENDRONEBRH/fc/fc_msp_box.o (symbol from plugin)
                                                  /tmp/ccjoD88l.ltrans2.ltrans.o
                                                  obj/main/OPENDRONEBRH/fc/fc_msp.o (symbol from plugin)
findBoxByPermanentId                              obj/main/OPENDRONEBRH/fc/fc_msp_box.o (symbol from plugin)
                                                  obj/main/OPENDRONEBRH/fc/fc_msp.o (symbol from plugin)
findMixer                                         /tmp/ccjoD88l.ltrans5.ltrans.o
                                                  obj/main/OPENDRONEBRH/flight/mixer.o (symbol from plugin)
                                                  /tmp/ccjoD88l.ltrans1.ltrans.o
                                                  /tmp/ccjoD88l.ltrans0.ltrans.o
                                                  obj/main/OPENDRONEBRH/flight/servos.o (symbol from plugin)
findNextSerialPortConfig                          obj/main/OPENDRONEBRH/io/serial.o (symbol from plugin)
                                                  obj/main/OPENDRONEBRH/msp/msp_serial.o (symbol from plugin)
findNextSharedSerialPort                          obj/main/OPENDRONEBRH/io/serial.o (symbol from plugin)
                                                  obj/main/OPENDRONEBRH/fc/fc_core.o (symbol from plugin)
findNextSharedSerialPort.constprop.43             /tmp/ccjoD88l.ltrans4.ltrans.o
                                                  /tmp/ccjoD88l.ltrans1.ltrans.o
                                                  /tmp/ccjoD88l.ltrans0.ltrans.o
findSerialPortConfig                              /tmp/ccjoD88l.ltrans5.ltrans.o
                                                  obj/main/OPENDRONEBRH/io/serial.o (symbol from plugin)
                                                  /tmp/ccjoD88l.ltrans4.ltrans.o
                                                  /tmp/ccjoD88l.ltrans1.ltrans.o
                                                  obj/main/OPENDRONEBRH/rx/xbus.o (symbol from plugin)
                                                  obj/main/OPENDRONEBRH/rx/sumh.o (symbol from plugin)
                                                  obj/main/OPENDRONEBRH/rx/sumd.o (symbol from plugin)
                                                  obj/main/OPENDRONEBRH/rx/spektrum.o (symbol from plugin)
                                                  obj/main/OPENDRONEBRH/rx/sbus.o (symbol from plugin)
                                                  obj/main/OPENDRONEBRH/rx/crsf.o (symbol from plugin)
                                                  obj/main/OPENDRONEBRH/rx/jetiexbus.o (symbol from plugin)
                                                  obj/main/OPENDRONEBRH/rx/ibus.o (symbol from plugin)
                                                  obj/main/OPENDRONEBRH/rx/fport.o (symbol from plugin)
                                                  obj/main/OPENDRONEBRH/msp/msp_serial.o (symbol from plugin)
                                                  obj/main/OPENDRONEBRH/io/rcdevice.o (symbol from plugin)
                                                  obj/main/OPENDRONEBRH/build/debug.o (symbol from plugin)
                                                  obj/main/OPENDRONEBRH/telemetry/smartport.o (symbol from plugin)
                                                  obj/main/OPENDRONEBRH/telemetry/mavlink.o (symbol from plugin)
                                                  obj/main/OPENDRONEBRH/telemetry/ibus.o (symbol from plugin)
                                                  obj/main/OPENDRONEBRH/telemetry/hott.o (symbol from plugin)
                                                  obj/main/OPENDRONEBRH/telemetry/frsky.o (symbol from plugin)
                                                  obj/main/OPENDRONEBRH/io/gps.o (symbol from plugin)
findSerialPortConfigState.lto_priv.235            /tmp/ccjoD88l.ltrans4.ltrans.o
                                                  /tmp/ccjoD88l.ltrans5.ltrans.o
findSerialPortIndexByIdentifier                   obj/main/OPENDRONEBRH/io/serial.o (symbol from plugin)
findSerialPortUsageByIdentifier                   obj/main/OPENDRONEBRH/io/serial.o (symbol from plugin)
                                                  obj/main/OPENDRONEBRH/fc/cli.o (symbol from plugin)
findSerialPortUsageByPort                         obj/main/OPENDRONEBRH/io/serial.o (symbol from plugin)
findSharedSerialPort                              obj/main/OPENDRONEBRH/io/serial.o (symbol from plugin)
                                                  obj/main/OPENDRONEBRH/fc/fc_core.o (symbol from plugin)
                                                  obj/main/OPENDRONEBRH/build/debug.o (symbol from plugin)
findSharedSerialPortState.lto_priv.346            /tmp/ccjoD88l.ltrans4.ltrans.o
                                                  /tmp/ccjoD88l.ltrans1.ltrans.o
                                                  /tmp/ccjoD88l.ltrans0.ltrans.o
firFilterApply                                    obj/main/OPENDRONEBRH/common/filter.o (symbol from plugin)
                                                  obj/main/OPENDRONEBRH/flight/pid.o (symbol from plugin)
firFilterInit                                     obj/main/OPENDRONEBRH/common/filter.o (symbol from plugin)
                                                  obj/main/OPENDRONEBRH/flight/pid.o (symbol from plugin)
firFilterInit2                                    obj/main/OPENDRONEBRH/common/filter.o (symbol from plugin)
firFilterUpdate                                   obj/main/OPENDRONEBRH/common/filter.o (symbol from plugin)
                                                  obj/main/OPENDRONEBRH/flight/pid.o (symbol from plugin)
fixedWingTpaFilter.lto_priv.362                   /tmp/ccjoD88l.ltrans5.ltrans.o
                                                  /tmp/ccjoD88l.ltrans0.ltrans.o
flashLedsAndBeep                                  obj/main/OPENDRONEBRH/fc/fc_init.o (symbol from plugin)
flight3DConfig_Copy                               obj/main/OPENDRONEBRH/flight/mixer.o (symbol from plugin)
flight3DConfig_Registry                           /tmp/ccjoD88l.ltrans5.ltrans.o
                                                  obj/main/OPENDRONEBRH/flight/mixer.o (symbol from plugin)
flight3DConfig_System                             /tmp/ccjoD88l.ltrans5.ltrans.o
                                                  obj/main/OPENDRONEBRH/flight/mixer.o (symbol from plugin)
                                                  /tmp/ccjoD88l.ltrans2.ltrans.o
                                                  /tmp/ccjoD88l.ltrans1.ltrans.o
                                                  /tmp/ccjoD88l.ltrans0.ltrans.o
                                                  obj/main/OPENDRONEBRH/fc/fc_msp.o (symbol from plugin)
                                                  obj/main/OPENDRONEBRH/fc/fc_init.o (symbol from plugin)
flightModeFlags                                   /tmp/ccjoD88l.ltrans5.ltrans.o
                                                  obj/main/OPENDRONEBRH/fc/runtime_config.o (symbol from plugin)
                                                  /tmp/ccjoD88l.ltrans3.ltrans.o
                                                  /tmp/ccjoD88l.ltrans2.ltrans.o
                                                  /tmp/ccjoD88l.ltrans1.ltrans.o
                                                  /tmp/ccjoD88l.ltrans0.ltrans.o
                                                  obj/main/OPENDRONEBRH/flight/servos.o (symbol from plugin)
                                                  obj/main/OPENDRONEBRH/flight/pid_autotune.o (symbol from plugin)
                                                  obj/main/OPENDRONEBRH/flight/pid.o (symbol from plugin)
                                                  obj/main/OPENDRONEBRH/flight/mixer.o (symbol from plugin)
                                                  obj/main/OPENDRONEBRH/fc/fc_msp_box.o (symbol from plugin)
                                                  obj/main/OPENDRONEBRH/fc/fc_core.o (symbol from plugin)
                                                  obj/main/OPENDRONEBRH/telemetry/smartport.o (symbol from plugin)
                                                  obj/main/OPENDRONEBRH/telemetry/crsf.o (symbol from plugin)
                                                  obj/main/OPENDRONEBRH/navigation/navigation.o (symbol from plugin)
flushHottRxBuffer.lto_priv.332                    /tmp/ccjoD88l.ltrans3.ltrans.o
                                                  /tmp/ccjoD88l.ltrans2.ltrans.o
fportRxInit                                       obj/main/OPENDRONEBRH/rx/fport.o (symbol from plugin)
                                                  obj/main/OPENDRONEBRH/rx/rx.o (symbol from plugin)
frSkyDataIdTable                                  obj/main/OPENDRONEBRH/telemetry/smartport.o (symbol from plugin)
freeFrSkyTelemetryPort                            obj/main/OPENDRONEBRH/telemetry/frsky.o (symbol from plugin)
freeHoTTTelemetryPort                             obj/main/OPENDRONEBRH/telemetry/hott.o (symbol from plugin)
freeIbusTelemetryPort                             obj/main/OPENDRONEBRH/telemetry/ibus.o (symbol from plugin)
freeMAVLinkTelemetryPort                          obj/main/OPENDRONEBRH/telemetry/mavlink.o (symbol from plugin)
frskyPort.lto_priv.511                            /tmp/ccjoD88l.ltrans1.ltrans.o
                                                  /tmp/ccjoD88l.ltrans3.ltrans.o
frskyTelemetryEnabled.lto_priv.488                /tmp/ccjoD88l.ltrans2.ltrans.o
                                                  /tmp/ccjoD88l.ltrans1.ltrans.o
ftoa                                              /tmp/ccjoD88l.ltrans1.ltrans.o
                                                  obj/main/OPENDRONEBRH/common/typeconversion.o (symbol from plugin)
                                                  /tmp/ccjoD88l.ltrans0.ltrans.o
                                                  obj/main/OPENDRONEBRH/fc/cli.o (symbol from plugin)
                                                  obj/main/OPENDRONEBRH/common/printf.o (symbol from plugin)
g_pfnVectors                                      obj/main/OPENDRONEBRH/startup_stm32f30x_md_gcc.o
gcd                                               obj/main/OPENDRONEBRH/common/maths.o (symbol from plugin)
generateThrottleCurve                             /tmp/ccjoD88l.ltrans5.ltrans.o
                                                  obj/main/OPENDRONEBRH/fc/rc_curves.o (symbol from plugin)
                                                  /tmp/ccjoD88l.ltrans0.ltrans.o
                                                  obj/main/OPENDRONEBRH/fc/rc_adjustments.o (symbol from plugin)
                                                  obj/main/OPENDRONEBRH/fc/controlrate_profile.o (symbol from plugin)
geoCalculateMagDeclination                        obj/main/OPENDRONEBRH/navigation/navigation_geo.o (symbol from plugin)
                                                  obj/main/OPENDRONEBRH/navigation/navigation_pos_estimator.o (symbol from plugin)
geoConvertGeodeticToLocal                         obj/main/OPENDRONEBRH/navigation/navigation_geo.o (symbol from plugin)
                                                  obj/main/OPENDRONEBRH/navigation/navigation_pos_estimator.o (symbol from plugin)
                                                  obj/main/OPENDRONEBRH/navigation/navigation.o (symbol from plugin)
geoConvertGeodeticToLocal.constprop.149           /tmp/ccjoD88l.ltrans4.ltrans.o
                                                  /tmp/ccjoD88l.ltrans3.ltrans.o
                                                  /tmp/ccjoD88l.ltrans0.ltrans.o
geoConvertLocalToGeodetic                         obj/main/OPENDRONEBRH/navigation/navigation_geo.o (symbol from plugin)
                                                  obj/main/OPENDRONEBRH/navigation/navigation.o (symbol from plugin)
geoConvertLocalToGeodetic.constprop.139           /tmp/ccjoD88l.ltrans4.ltrans.o
                                                  /tmp/ccjoD88l.ltrans3.ltrans.o
geoSetOrigin                                      obj/main/OPENDRONEBRH/navigation/navigation_geo.o (symbol from plugin)
                                                  obj/main/OPENDRONEBRH/navigation/navigation_pos_estimator.o (symbol from plugin)
getAccUpdateRate                                  obj/main/OPENDRONEBRH/fc/config.o (symbol from plugin)
                                                  obj/main/OPENDRONEBRH/sensors/initialisation.o (symbol from plugin)
                                                  obj/main/OPENDRONEBRH/fc/fc_tasks.o (symbol from plugin)
getActiveWaypointSpeed                            obj/main/OPENDRONEBRH/navigation/navigation.o (symbol from plugin)
                                                  obj/main/OPENDRONEBRH/navigation/navigation_multicopter.o (symbol from plugin)
getAmperage                                       obj/main/OPENDRONEBRH/sensors/battery.o (symbol from plugin)
                                                  obj/main/OPENDRONEBRH/rx/jetiexbus.o (symbol from plugin)
                                                  obj/main/OPENDRONEBRH/fc/fc_msp.o (symbol from plugin)
                                                  obj/main/OPENDRONEBRH/telemetry/smartport.o (symbol from plugin)
                                                  obj/main/OPENDRONEBRH/telemetry/mavlink.o (symbol from plugin)
                                                  obj/main/OPENDRONEBRH/telemetry/ibus_shared.o (symbol from plugin)
                                                  obj/main/OPENDRONEBRH/telemetry/hott.o (symbol from plugin)
                                                  obj/main/OPENDRONEBRH/telemetry/frsky.o (symbol from plugin)
                                                  obj/main/OPENDRONEBRH/telemetry/crsf.o (symbol from plugin)
getAmperageLatestADC                              obj/main/OPENDRONEBRH/sensors/battery.o (symbol from plugin)
getArmingBeepTimeMicros                           obj/main/OPENDRONEBRH/io/beeper.o (symbol from plugin)
getAsyncMode                                      obj/main/OPENDRONEBRH/fc/config.o (symbol from plugin)
                                                  obj/main/OPENDRONEBRH/fc/fc_tasks.o (symbol from plugin)
                                                  obj/main/OPENDRONEBRH/fc/fc_core.o (symbol from plugin)
getAttitudeUpdateRate                             obj/main/OPENDRONEBRH/fc/config.o (symbol from plugin)
                                                  obj/main/OPENDRONEBRH/fc/fc_tasks.o (symbol from plugin)
getAxisRcCommand                                  obj/main/OPENDRONEBRH/fc/fc_core.o (symbol from plugin)
getBatteryAverageCellVoltage                      /tmp/ccjoD88l.ltrans4.ltrans.o
                                                  obj/main/OPENDRONEBRH/sensors/battery.o (symbol from plugin)
                                                  /tmp/ccjoD88l.ltrans3.ltrans.o
                                                  /tmp/ccjoD88l.ltrans1.ltrans.o
                                                  obj/main/OPENDRONEBRH/telemetry/smartport.o (symbol from plugin)
                                                  obj/main/OPENDRONEBRH/telemetry/ibus_shared.o (symbol from plugin)
getBatteryCellCount                               obj/main/OPENDRONEBRH/sensors/battery.o (symbol from plugin)
                                                  obj/main/OPENDRONEBRH/io/beeper.o (symbol from plugin)
                                                  obj/main/OPENDRONEBRH/fc/fc_msp.o (symbol from plugin)
                                                  obj/main/OPENDRONEBRH/fc/cli.o (symbol from plugin)
                                                  obj/main/OPENDRONEBRH/telemetry/frsky.o (symbol from plugin)
getBatteryRemainingCapacity                       obj/main/OPENDRONEBRH/sensors/battery.o (symbol from plugin)
                                                  obj/main/OPENDRONEBRH/fc/fc_msp.o (symbol from plugin)
getBatteryState                                   obj/main/OPENDRONEBRH/sensors/battery.o (symbol from plugin)
                                                  obj/main/OPENDRONEBRH/fc/fc_msp.o (symbol from plugin)
                                                  obj/main/OPENDRONEBRH/fc/cli.o (symbol from plugin)
                                                  obj/main/OPENDRONEBRH/telemetry/hott.o (symbol from plugin)
getBatteryVoltage                                 obj/main/OPENDRONEBRH/sensors/battery.o (symbol from plugin)
                                                  obj/main/OPENDRONEBRH/rx/jetiexbus.o (symbol from plugin)
                                                  obj/main/OPENDRONEBRH/fc/fc_msp.o (symbol from plugin)
                                                  obj/main/OPENDRONEBRH/fc/cli.o (symbol from plugin)
                                                  obj/main/OPENDRONEBRH/telemetry/smartport.o (symbol from plugin)
                                                  obj/main/OPENDRONEBRH/telemetry/mavlink.o (symbol from plugin)
                                                  obj/main/OPENDRONEBRH/telemetry/ibus_shared.o (symbol from plugin)
                                                  obj/main/OPENDRONEBRH/telemetry/hott.o (symbol from plugin)
                                                  obj/main/OPENDRONEBRH/telemetry/frsky.o (symbol from plugin)
                                                  obj/main/OPENDRONEBRH/telemetry/crsf.o (symbol from plugin)
getBatteryVoltageLatestADC                        obj/main/OPENDRONEBRH/sensors/battery.o (symbol from plugin)
getBatteryWarningVoltage                          obj/main/OPENDRONEBRH/sensors/battery.o (symbol from plugin)
getBeeperOffMask                                  obj/main/OPENDRONEBRH/fc/config.o (symbol from plugin)
                                                  obj/main/OPENDRONEBRH/io/beeper.o (symbol from plugin)
                                                  obj/main/OPENDRONEBRH/fc/cli.o (symbol from plugin)
getBootlogEvent                                   obj/main/OPENDRONEBRH/drivers/logging.o (symbol from plugin)
                                                  obj/main/OPENDRONEBRH/fc/cli.o (symbol from plugin)
getBootlogEventCount                              obj/main/OPENDRONEBRH/drivers/logging.o (symbol from plugin)
                                                  obj/main/OPENDRONEBRH/fc/cli.o (symbol from plugin)
getBootlogEventDescription                        obj/main/OPENDRONEBRH/drivers/logging.o (symbol from plugin)
                                                  obj/main/OPENDRONEBRH/fc/cli.o (symbol from plugin)
getCheckFuncInfo                                  obj/main/OPENDRONEBRH/scheduler/scheduler.o (symbol from plugin)
                                                  obj/main/OPENDRONEBRH/fc/cli.o (symbol from plugin)
getConfigProfile                                  obj/main/OPENDRONEBRH/fc/config.o (symbol from plugin)
                                                  obj/main/OPENDRONEBRH/fc/settings.o (symbol from plugin)
                                                  obj/main/OPENDRONEBRH/fc/fc_msp.o (symbol from plugin)
                                                  obj/main/OPENDRONEBRH/fc/cli.o (symbol from plugin)
getCrsfFrame                                      obj/main/OPENDRONEBRH/telemetry/crsf.o (symbol from plugin)
getDisarmReason                                   obj/main/OPENDRONEBRH/fc/fc_core.o (symbol from plugin)
getEEPROMConfigSize                               obj/main/OPENDRONEBRH/config/config_eeprom.o (symbol from plugin)
                                                  obj/main/OPENDRONEBRH/fc/cli.o (symbol from plugin)
getEstimatedActualPosition                        obj/main/OPENDRONEBRH/navigation/navigation.o (symbol from plugin)
                                                  obj/main/OPENDRONEBRH/fc/fc_msp.o (symbol from plugin)
                                                  obj/main/OPENDRONEBRH/telemetry/smartport.o (symbol from plugin)
                                                  obj/main/OPENDRONEBRH/telemetry/mavlink.o (symbol from plugin)
                                                  obj/main/OPENDRONEBRH/telemetry/hott.o (symbol from plugin)
                                                  obj/main/OPENDRONEBRH/telemetry/frsky.o (symbol from plugin)
                                                  obj/main/OPENDRONEBRH/telemetry/crsf.o (symbol from plugin)
                                                  obj/main/OPENDRONEBRH/navigation/navigation_fw_launch.o (symbol from plugin)
getEstimatedActualVelocity                        obj/main/OPENDRONEBRH/navigation/navigation.o (symbol from plugin)
                                                  obj/main/OPENDRONEBRH/fc/fc_msp.o (symbol from plugin)
                                                  obj/main/OPENDRONEBRH/telemetry/smartport.o (symbol from plugin)
                                                  obj/main/OPENDRONEBRH/telemetry/mavlink.o (symbol from plugin)
                                                  obj/main/OPENDRONEBRH/telemetry/ibus_shared.o (symbol from plugin)
                                                  obj/main/OPENDRONEBRH/telemetry/hott.o (symbol from plugin)
                                                  obj/main/OPENDRONEBRH/telemetry/frsky.o (symbol from plugin)
getFlaperonDirection                              obj/main/OPENDRONEBRH/flight/servos.o (symbol from plugin)
getFlightModeForTelemetry                         /tmp/ccjoD88l.ltrans5.ltrans.o
                                                  obj/main/OPENDRONEBRH/fc/runtime_config.o (symbol from plugin)
                                                  /tmp/ccjoD88l.ltrans3.ltrans.o
                                                  /tmp/ccjoD88l.ltrans2.ltrans.o
                                                  obj/main/OPENDRONEBRH/telemetry/mavlink.o (symbol from plugin)
                                                  obj/main/OPENDRONEBRH/telemetry/ibus_shared.o (symbol from plugin)
getFlyingPlatformType                             obj/main/OPENDRONEBRH/flight/mixer.o (symbol from plugin)
                                                  obj/main/OPENDRONEBRH/fc/fc_init.o (symbol from plugin)
getGyroUpdateRate                                 obj/main/OPENDRONEBRH/fc/config.o (symbol from plugin)
                                                  obj/main/OPENDRONEBRH/sensors/gyro.o (symbol from plugin)
                                                  obj/main/OPENDRONEBRH/fc/fc_tasks.o (symbol from plugin)
                                                  obj/main/OPENDRONEBRH/fc/fc_core.o (symbol from plugin)
getHeadingHoldTarget                              obj/main/OPENDRONEBRH/flight/pid.o (symbol from plugin)
                                                  obj/main/OPENDRONEBRH/fc/fc_msp.o (symbol from plugin)
getHwAccelerometerStatus                          /tmp/ccjoD88l.ltrans4.ltrans.o
                                                  obj/main/OPENDRONEBRH/sensors/diagnostics.o (symbol from plugin)
                                                  /tmp/ccjoD88l.ltrans2.ltrans.o
                                                  /tmp/ccjoD88l.ltrans0.ltrans.o
                                                  obj/main/OPENDRONEBRH/fc/fc_msp.o (symbol from plugin)
                                                  obj/main/OPENDRONEBRH/fc/cli.o (symbol from plugin)
getHwBarometerStatus                              /tmp/ccjoD88l.ltrans4.ltrans.o
                                                  obj/main/OPENDRONEBRH/sensors/diagnostics.o (symbol from plugin)
                                                  /tmp/ccjoD88l.ltrans2.ltrans.o
                                                  /tmp/ccjoD88l.ltrans0.ltrans.o
                                                  obj/main/OPENDRONEBRH/fc/fc_msp.o (symbol from plugin)
                                                  obj/main/OPENDRONEBRH/fc/cli.o (symbol from plugin)
getHwCompassStatus                                obj/main/OPENDRONEBRH/sensors/diagnostics.o (symbol from plugin)
                                                  obj/main/OPENDRONEBRH/fc/fc_msp.o (symbol from plugin)
                                                  obj/main/OPENDRONEBRH/fc/cli.o (symbol from plugin)
getHwGPSStatus                                    /tmp/ccjoD88l.ltrans4.ltrans.o
                                                  obj/main/OPENDRONEBRH/sensors/diagnostics.o (symbol from plugin)
                                                  /tmp/ccjoD88l.ltrans2.ltrans.o
                                                  /tmp/ccjoD88l.ltrans0.ltrans.o
                                                  obj/main/OPENDRONEBRH/fc/fc_msp.o (symbol from plugin)
                                                  obj/main/OPENDRONEBRH/fc/cli.o (symbol from plugin)
getHwGyroStatus                                   obj/main/OPENDRONEBRH/sensors/diagnostics.o (symbol from plugin)
                                                  obj/main/OPENDRONEBRH/fc/fc_msp.o (symbol from plugin)
                                                  obj/main/OPENDRONEBRH/fc/cli.o (symbol from plugin)
getHwOpticalFlowStatus                            obj/main/OPENDRONEBRH/sensors/diagnostics.o (symbol from plugin)
                                                  obj/main/OPENDRONEBRH/fc/fc_msp.o (symbol from plugin)
                                                  obj/main/OPENDRONEBRH/fc/cli.o (symbol from plugin)
getHwPitotmeterStatus                             /tmp/ccjoD88l.ltrans4.ltrans.o
                                                  obj/main/OPENDRONEBRH/sensors/diagnostics.o (symbol from plugin)
                                                  /tmp/ccjoD88l.ltrans2.ltrans.o
                                                  obj/main/OPENDRONEBRH/fc/fc_msp.o (symbol from plugin)
getHwRangefinderStatus                            obj/main/OPENDRONEBRH/sensors/diagnostics.o (symbol from plugin)
                                                  obj/main/OPENDRONEBRH/fc/fc_msp.o (symbol from plugin)
                                                  obj/main/OPENDRONEBRH/fc/cli.o (symbol from plugin)
getMAhDrawn                                       obj/main/OPENDRONEBRH/sensors/battery.o (symbol from plugin)
                                                  obj/main/OPENDRONEBRH/rx/jetiexbus.o (symbol from plugin)
                                                  obj/main/OPENDRONEBRH/fc/fc_msp.o (symbol from plugin)
                                                  obj/main/OPENDRONEBRH/telemetry/smartport.o (symbol from plugin)
                                                  obj/main/OPENDRONEBRH/telemetry/ibus_shared.o (symbol from plugin)
                                                  obj/main/OPENDRONEBRH/telemetry/hott.o (symbol from plugin)
                                                  obj/main/OPENDRONEBRH/telemetry/crsf.o (symbol from plugin)
getMWhDrawn                                       obj/main/OPENDRONEBRH/sensors/battery.o (symbol from plugin)
                                                  obj/main/OPENDRONEBRH/fc/stats.o (symbol from plugin)
                                                  obj/main/OPENDRONEBRH/fc/fc_msp.o (symbol from plugin)
                                                  obj/main/OPENDRONEBRH/telemetry/smartport.o (symbol from plugin)
getMotorCount                                     obj/main/OPENDRONEBRH/flight/mixer.o (symbol from plugin)
                                                  obj/main/OPENDRONEBRH/flight/pid.o (symbol from plugin)
getPidUpdateRate                                  /tmp/ccjoD88l.ltrans0.ltrans.o
                                                  obj/main/OPENDRONEBRH/fc/config.o (symbol from plugin)
                                                  /tmp/ccjoD88l.ltrans5.ltrans.o
                                                  /tmp/ccjoD88l.ltrans4.ltrans.o
                                                  /tmp/ccjoD88l.ltrans1.ltrans.o
                                                  obj/main/OPENDRONEBRH/flight/pid.o (symbol from plugin)
                                                  obj/main/OPENDRONEBRH/fc/fc_tasks.o (symbol from plugin)
                                                  obj/main/OPENDRONEBRH/fc/fc_core.o (symbol from plugin)
getPower                                          obj/main/OPENDRONEBRH/sensors/battery.o (symbol from plugin)
                                                  obj/main/OPENDRONEBRH/fc/fc_msp.o (symbol from plugin)
getPreferredBeeperOffMask                         obj/main/OPENDRONEBRH/fc/config.o (symbol from plugin)
                                                  obj/main/OPENDRONEBRH/fc/fc_init.o (symbol from plugin)
                                                  obj/main/OPENDRONEBRH/fc/cli.o (symbol from plugin)
getRSSI                                           obj/main/OPENDRONEBRH/rx/rx.o (symbol from plugin)
                                                  obj/main/OPENDRONEBRH/fc/fc_msp.o (symbol from plugin)
                                                  obj/main/OPENDRONEBRH/telemetry/mavlink.o (symbol from plugin)
getRSSISource                                     obj/main/OPENDRONEBRH/rx/rx.o (symbol from plugin)
                                                  obj/main/OPENDRONEBRH/fc/fc_msp.o (symbol from plugin)
getRcStickDeflection                              obj/main/OPENDRONEBRH/fc/rc_controls.o (symbol from plugin)
                                                  obj/main/OPENDRONEBRH/flight/pid.o (symbol from plugin)
getRcStickPositions                               obj/main/OPENDRONEBRH/fc/rc_controls.o (symbol from plugin)
getStateOfForcedRTH                               obj/main/OPENDRONEBRH/navigation/navigation.o (symbol from plugin)
                                                  obj/main/OPENDRONEBRH/flight/failsafe.o (symbol from plugin)
getTaskDeltaTime                                  obj/main/OPENDRONEBRH/scheduler/scheduler.o (symbol from plugin)
                                                  obj/main/OPENDRONEBRH/fc/fc_core.o (symbol from plugin)
                                                  obj/main/OPENDRONEBRH/fc/cli.o (symbol from plugin)
getTaskInfo                                       obj/main/OPENDRONEBRH/scheduler/scheduler.o (symbol from plugin)
                                                  obj/main/OPENDRONEBRH/fc/cli.o (symbol from plugin)
getTemperature                                    obj/main/OPENDRONEBRH/sensors/temperature.o (symbol from plugin)
getTotalTravelDistance                            obj/main/OPENDRONEBRH/navigation/navigation.o (symbol from plugin)
                                                  obj/main/OPENDRONEBRH/fc/stats.o (symbol from plugin)
getValueOffset.lto_priv.444                       /tmp/ccjoD88l.ltrans5.ltrans.o
                                                  /tmp/ccjoD88l.ltrans0.ltrans.o
getWaypoint                                       /tmp/ccjoD88l.ltrans3.ltrans.o
                                                  obj/main/OPENDRONEBRH/navigation/navigation.o (symbol from plugin)
                                                  /tmp/ccjoD88l.ltrans2.ltrans.o
                                                  obj/main/OPENDRONEBRH/fc/fc_msp.o (symbol from plugin)
                                                  obj/main/OPENDRONEBRH/telemetry/mavlink.o (symbol from plugin)
getWaypointCount                                  obj/main/OPENDRONEBRH/navigation/navigation.o (symbol from plugin)
                                                  obj/main/OPENDRONEBRH/fc/fc_msp.o (symbol from plugin)
                                                  obj/main/OPENDRONEBRH/telemetry/mavlink.o (symbol from plugin)
gimbalConfig_Copy                                 obj/main/OPENDRONEBRH/flight/servos.o (symbol from plugin)
gimbalConfig_Registry                             /tmp/ccjoD88l.ltrans0.ltrans.o
                                                  obj/main/OPENDRONEBRH/flight/servos.o (symbol from plugin)
gimbalConfig_System                               obj/main/OPENDRONEBRH/flight/servos.o (symbol from plugin)
gpioExtiLineConfig                                obj/main/OPENDRONEBRH/drivers/gpio_stm32f30x.o (symbol from plugin)
gpioInit                                          /tmp/ccjoD88l.ltrans3.ltrans.o
                                                  obj/main/OPENDRONEBRH/drivers/gpio_stm32f30x.o (symbol from plugin)
                                                  /tmp/ccjoD88l.ltrans1.ltrans.o
                                                  obj/main/OPENDRONEBRH/drivers/system_stm32f30x.o (symbol from plugin)
gpsConfig_Copy                                    obj/main/OPENDRONEBRH/io/gps.o (symbol from plugin)
gpsConfig_Registry                                /tmp/ccjoD88l.ltrans2.ltrans.o
                                                  obj/main/OPENDRONEBRH/io/gps.o (symbol from plugin)
gpsConfig_System                                  /tmp/ccjoD88l.ltrans2.ltrans.o
                                                  obj/main/OPENDRONEBRH/io/gps.o (symbol from plugin)
                                                  /tmp/ccjoD88l.ltrans3.ltrans.o
                                                  /tmp/ccjoD88l.ltrans1.ltrans.o
                                                  obj/main/OPENDRONEBRH/fc/fc_msp.o (symbol from plugin)
gpsConstrainEPE                                   obj/main/OPENDRONEBRH/io/gps.o (symbol from plugin)
gpsConstrainHDOP                                  obj/main/OPENDRONEBRH/io/gps.o (symbol from plugin)
gpsEnablePassthrough                              obj/main/OPENDRONEBRH/io/gps.o (symbol from plugin)
                                                  obj/main/OPENDRONEBRH/fc/cli.o (symbol from plugin)
gpsFinalizeChangeBaud                             obj/main/OPENDRONEBRH/io/gps.o (symbol from plugin)
gpsHandleProtocol.lto_priv.338                    /tmp/ccjoD88l.ltrans3.ltrans.o
                                                  /tmp/ccjoD88l.ltrans2.ltrans.o
gpsHeadingInitialized.lto_priv.462                /tmp/ccjoD88l.ltrans5.ltrans.o
                                                  /tmp/ccjoD88l.ltrans1.ltrans.o
gpsInit                                           obj/main/OPENDRONEBRH/io/gps.o (symbol from plugin)
                                                  obj/main/OPENDRONEBRH/fc/fc_init.o (symbol from plugin)
gpsMagDetect                                      obj/main/OPENDRONEBRH/io/gps.o (symbol from plugin)
gpsMagInit                                        obj/main/OPENDRONEBRH/io/gps.o (symbol from plugin)
gpsMagRead                                        obj/main/OPENDRONEBRH/io/gps.o (symbol from plugin)
gpsPreInit                                        obj/main/OPENDRONEBRH/io/gps.o (symbol from plugin)
                                                  obj/main/OPENDRONEBRH/fc/fc_init.o (symbol from plugin)
gpsProviders.lto_priv.459                         /tmp/ccjoD88l.ltrans2.ltrans.o
                                                  /tmp/ccjoD88l.ltrans3.ltrans.o
                                                  /tmp/ccjoD88l.ltrans1.ltrans.o
gpsResetSolution.lto_priv.339                     /tmp/ccjoD88l.ltrans3.ltrans.o
                                                  /tmp/ccjoD88l.ltrans2.ltrans.o
                                                  /tmp/ccjoD88l.ltrans1.ltrans.o
gpsSetState                                       /tmp/ccjoD88l.ltrans3.ltrans.o
                                                  obj/main/OPENDRONEBRH/io/gps.o (symbol from plugin)
                                                  /tmp/ccjoD88l.ltrans2.ltrans.o
                                                  /tmp/ccjoD88l.ltrans1.ltrans.o
gpsSol                                            /tmp/ccjoD88l.ltrans5.ltrans.o
                                                  obj/main/OPENDRONEBRH/io/gps.o (symbol from plugin)
                                                  /tmp/ccjoD88l.ltrans3.ltrans.o
                                                  /tmp/ccjoD88l.ltrans2.ltrans.o
                                                  /tmp/ccjoD88l.ltrans1.ltrans.o
                                                  obj/main/OPENDRONEBRH/io/beeper.o (symbol from plugin)
                                                  obj/main/OPENDRONEBRH/flight/imu.o (symbol from plugin)
                                                  obj/main/OPENDRONEBRH/fc/fc_msp.o (symbol from plugin)
                                                  obj/main/OPENDRONEBRH/telemetry/smartport.o (symbol from plugin)
                                                  obj/main/OPENDRONEBRH/telemetry/mavlink.o (symbol from plugin)
                                                  obj/main/OPENDRONEBRH/telemetry/ibus_shared.o (symbol from plugin)
                                                  obj/main/OPENDRONEBRH/telemetry/hott.o (symbol from plugin)
                                                  obj/main/OPENDRONEBRH/telemetry/frsky.o (symbol from plugin)
                                                  obj/main/OPENDRONEBRH/telemetry/crsf.o (symbol from plugin)
                                                  obj/main/OPENDRONEBRH/navigation/navigation_pos_estimator.o (symbol from plugin)
gpsState                                          /tmp/ccjoD88l.ltrans2.ltrans.o
                                                  obj/main/OPENDRONEBRH/io/gps.o (symbol from plugin)
                                                  /tmp/ccjoD88l.ltrans3.ltrans.o
                                                  /tmp/ccjoD88l.ltrans1.ltrans.o
                                                  /tmp/ccjoD88l.ltrans0.ltrans.o
gpsStats                                          /tmp/ccjoD88l.ltrans4.ltrans.o
                                                  obj/main/OPENDRONEBRH/io/gps.o (symbol from plugin)
                                                  /tmp/ccjoD88l.ltrans3.ltrans.o
                                                  /tmp/ccjoD88l.ltrans2.ltrans.o
                                                  /tmp/ccjoD88l.ltrans1.ltrans.o
                                                  obj/main/OPENDRONEBRH/sensors/diagnostics.o (symbol from plugin)
                                                  obj/main/OPENDRONEBRH/fc/fc_msp.o (symbol from plugin)
gpsThread                                         obj/main/OPENDRONEBRH/io/gps.o (symbol from plugin)
                                                  obj/main/OPENDRONEBRH/fc/fc_tasks.o (symbol from plugin)
gpsToSerialBaudRate                               obj/main/OPENDRONEBRH/io/gps.o (symbol from plugin)
gyro                                              /tmp/ccjoD88l.ltrans2.ltrans.o
                                                  obj/main/OPENDRONEBRH/sensors/gyro.o (symbol from plugin)
                                                  /tmp/ccjoD88l.ltrans1.ltrans.o
                                                  /tmp/ccjoD88l.ltrans0.ltrans.o
                                                  obj/main/OPENDRONEBRH/flight/servos.o (symbol from plugin)
                                                  obj/main/OPENDRONEBRH/flight/pid.o (symbol from plugin)
                                                  obj/main/OPENDRONEBRH/fc/config.o (symbol from plugin)
gyroCalibration.lto_priv.350                      /tmp/ccjoD88l.ltrans5.ltrans.o
                                                  /tmp/ccjoD88l.ltrans1.ltrans.o
                                                  /tmp/ccjoD88l.ltrans0.ltrans.o
gyroCheckDataReady                                /tmp/ccjoD88l.ltrans3.ltrans.o
                                                  obj/main/OPENDRONEBRH/drivers/accgyro/accgyro.o (symbol from plugin)
                                                  /tmp/ccjoD88l.ltrans1.ltrans.o
                                                  obj/main/OPENDRONEBRH/drivers/accgyro/accgyro_mpu6500.o (symbol from plugin)
gyroConfig_Copy                                   obj/main/OPENDRONEBRH/sensors/gyro.o (symbol from plugin)
gyroConfig_Registry                               /tmp/ccjoD88l.ltrans2.ltrans.o
                                                  obj/main/OPENDRONEBRH/sensors/gyro.o (symbol from plugin)
gyroConfig_System                                 /tmp/ccjoD88l.ltrans2.ltrans.o
                                                  obj/main/OPENDRONEBRH/sensors/gyro.o (symbol from plugin)
                                                  /tmp/ccjoD88l.ltrans1.ltrans.o
                                                  /tmp/ccjoD88l.ltrans0.ltrans.o
                                                  obj/main/OPENDRONEBRH/fc/fc_msp.o (symbol from plugin)
                                                  obj/main/OPENDRONEBRH/fc/fc_core.o (symbol from plugin)
                                                  obj/main/OPENDRONEBRH/fc/config.o (symbol from plugin)
gyroDev0.lto_priv.365                             /tmp/ccjoD88l.ltrans2.ltrans.o
                                                  /tmp/ccjoD88l.ltrans1.ltrans.o
                                                  /tmp/ccjoD88l.ltrans0.ltrans.o
gyroGetMeasuredRotationRate                       obj/main/OPENDRONEBRH/sensors/gyro.o (symbol from plugin)
                                                  obj/main/OPENDRONEBRH/flight/imu.o (symbol from plugin)
gyroGetTemperature                                obj/main/OPENDRONEBRH/sensors/gyro.o (symbol from plugin)
                                                  obj/main/OPENDRONEBRH/sensors/temperature.o (symbol from plugin)
gyroInit                                          obj/main/OPENDRONEBRH/sensors/gyro.o (symbol from plugin)
                                                  obj/main/OPENDRONEBRH/sensors/initialisation.o (symbol from plugin)
gyroInitFilters                                   obj/main/OPENDRONEBRH/sensors/gyro.o (symbol from plugin)
gyroIntExtiInit                                   obj/main/OPENDRONEBRH/drivers/accgyro/accgyro.o (symbol from plugin)
                                                  obj/main/OPENDRONEBRH/drivers/accgyro/accgyro_mpu6500.o (symbol from plugin)
gyroIsCalibrationComplete                         obj/main/OPENDRONEBRH/sensors/gyro.o (symbol from plugin)
                                                  obj/main/OPENDRONEBRH/flight/imu.o (symbol from plugin)
                                                  obj/main/OPENDRONEBRH/fc/fc_core.o (symbol from plugin)
gyroRateDps                                       obj/main/OPENDRONEBRH/sensors/gyro.o (symbol from plugin)
                                                  obj/main/OPENDRONEBRH/fc/fc_msp.o (symbol from plugin)
gyroReadTemperature                               obj/main/OPENDRONEBRH/sensors/gyro.o (symbol from plugin)
                                                  obj/main/OPENDRONEBRH/sensors/temperature.o (symbol from plugin)
gyroSetCalibrationCycles                          obj/main/OPENDRONEBRH/sensors/gyro.o (symbol from plugin)
                                                  obj/main/OPENDRONEBRH/fc/rc_controls.o (symbol from plugin)
                                                  obj/main/OPENDRONEBRH/fc/fc_init.o (symbol from plugin)
gyroSyncCheckUpdate                               obj/main/OPENDRONEBRH/sensors/gyro.o (symbol from plugin)
                                                  obj/main/OPENDRONEBRH/fc/fc_core.o (symbol from plugin)
gyroUpdate                                        obj/main/OPENDRONEBRH/sensors/gyro.o (symbol from plugin)
                                                  obj/main/OPENDRONEBRH/fc/fc_core.o (symbol from plugin)
handleCrsfTelemetry                               obj/main/OPENDRONEBRH/telemetry/crsf.o (symbol from plugin)
                                                  obj/main/OPENDRONEBRH/telemetry/telemetry.o (symbol from plugin)
handleFrSkyTelemetry                              obj/main/OPENDRONEBRH/telemetry/frsky.o (symbol from plugin)
                                                  obj/main/OPENDRONEBRH/telemetry/telemetry.o (symbol from plugin)
handleHoTTTelemetry                               obj/main/OPENDRONEBRH/telemetry/hott.o (symbol from plugin)
                                                  obj/main/OPENDRONEBRH/telemetry/telemetry.o (symbol from plugin)
handleIbusTelemetry                               obj/main/OPENDRONEBRH/telemetry/ibus.o (symbol from plugin)
                                                  obj/main/OPENDRONEBRH/telemetry/telemetry.o (symbol from plugin)
handleJetiExBusTelemetry                          obj/main/OPENDRONEBRH/rx/jetiexbus.o (symbol from plugin)
handleMAVLinkTelemetry                            obj/main/OPENDRONEBRH/telemetry/mavlink.o (symbol from plugin)
                                                  obj/main/OPENDRONEBRH/telemetry/telemetry.o (symbol from plugin)
handleMspFrame                                    obj/main/OPENDRONEBRH/telemetry/msp_shared.o (symbol from plugin)
                                                  obj/main/OPENDRONEBRH/telemetry/smartport.o (symbol from plugin)
handleSmartPortTelemetry                          obj/main/OPENDRONEBRH/telemetry/smartport.o (symbol from plugin)
                                                  obj/main/OPENDRONEBRH/telemetry/telemetry.o (symbol from plugin)
handleUsartTxDma.lto_priv.446                     /tmp/ccjoD88l.ltrans3.ltrans.o
                                                  /tmp/ccjoD88l.ltrans1.ltrans.o
hasEnoughTimeLapsedSinceLastTelemetryTransmission obj/main/OPENDRONEBRH/telemetry/frsky.o (symbol from plugin)
headFreeModeHold                                  obj/main/OPENDRONEBRH/fc/fc_core.o (symbol from plugin)
headingHoldCosZLimit                              obj/main/OPENDRONEBRH/flight/pid.o (symbol from plugin)
headingHoldRateFilter.lto_priv.347                /tmp/ccjoD88l.ltrans5.ltrans.o
                                                  /tmp/ccjoD88l.ltrans0.ltrans.o
headingHoldTarget                                 /tmp/ccjoD88l.ltrans5.ltrans.o
                                                  obj/main/OPENDRONEBRH/flight/pid.o (symbol from plugin)
                                                  /tmp/ccjoD88l.ltrans3.ltrans.o
                                                  /tmp/ccjoD88l.ltrans2.ltrans.o
                                                  /tmp/ccjoD88l.ltrans0.ltrans.o
hottEAMMessage.lto_priv.492                       /tmp/ccjoD88l.ltrans2.ltrans.o
                                                  /tmp/ccjoD88l.ltrans1.ltrans.o
hottGPSMessage.lto_priv.493                       /tmp/ccjoD88l.ltrans2.ltrans.o
                                                  /tmp/ccjoD88l.ltrans1.ltrans.o
hottPort.lto_priv.487                             /tmp/ccjoD88l.ltrans2.ltrans.o
                                                  /tmp/ccjoD88l.ltrans3.ltrans.o
                                                  /tmp/ccjoD88l.ltrans1.ltrans.o
hottPrepareEAMResponse                            obj/main/OPENDRONEBRH/telemetry/hott.o (symbol from plugin)
hottPrepareGPSResponse                            obj/main/OPENDRONEBRH/telemetry/hott.o (symbol from plugin)
hottState.lto_priv.509                            /tmp/ccjoD88l.ltrans2.ltrans.o
                                                  /tmp/ccjoD88l.ltrans3.ltrans.o
hottStateChangeUs.lto_priv.510                    /tmp/ccjoD88l.ltrans2.ltrans.o
                                                  /tmp/ccjoD88l.ltrans3.ltrans.o
hottSwitchState.lto_priv.331                      /tmp/ccjoD88l.ltrans3.ltrans.o
                                                  /tmp/ccjoD88l.ltrans2.ltrans.o
hottTelemetryEnabled.lto_priv.486                 /tmp/ccjoD88l.ltrans2.ltrans.o
                                                  /tmp/ccjoD88l.ltrans1.ltrans.o
hse_value                                         obj/main/OPENDRONEBRH/target/system_stm32f30x.o (symbol from plugin)
hsvToRgb24                                        obj/main/OPENDRONEBRH/common/colorconversion.o (symbol from plugin)
i2a                                               obj/main/OPENDRONEBRH/common/typeconversion.o (symbol from plugin)
                                                  obj/main/OPENDRONEBRH/common/printf.o (symbol from plugin)
i2cBusReadBuffer                                  obj/main/OPENDRONEBRH/drivers/bus_busdev_i2c.o (symbol from plugin)
                                                  obj/main/OPENDRONEBRH/drivers/bus.o (symbol from plugin)
i2cBusReadRegister                                obj/main/OPENDRONEBRH/drivers/bus_busdev_i2c.o (symbol from plugin)
                                                  obj/main/OPENDRONEBRH/drivers/bus.o (symbol from plugin)
i2cBusWriteBuffer                                 obj/main/OPENDRONEBRH/drivers/bus_busdev_i2c.o (symbol from plugin)
                                                  obj/main/OPENDRONEBRH/drivers/bus.o (symbol from plugin)
i2cBusWriteRegister                               obj/main/OPENDRONEBRH/drivers/bus_busdev_i2c.o (symbol from plugin)
                                                  obj/main/OPENDRONEBRH/drivers/bus.o (symbol from plugin)
i2cErrorCount.lto_priv.378                        /tmp/ccjoD88l.ltrans2.ltrans.o
                                                  /tmp/ccjoD88l.ltrans3.ltrans.o
                                                  /tmp/ccjoD88l.ltrans0.ltrans.o
i2cGetErrorCounter                                obj/main/OPENDRONEBRH/drivers/bus_i2c_stm32f30x.o (symbol from plugin)
                                                  obj/main/OPENDRONEBRH/fc/fc_msp.o (symbol from plugin)
                                                  obj/main/OPENDRONEBRH/fc/cli.o (symbol from plugin)
i2cHardwareMap.lto_priv.534                       /tmp/ccjoD88l.ltrans1.ltrans.o
                                                  /tmp/ccjoD88l.ltrans3.ltrans.o
i2cInit                                           obj/main/OPENDRONEBRH/drivers/bus_i2c_stm32f30x.o (symbol from plugin)
                                                  obj/main/OPENDRONEBRH/fc/fc_init.o (symbol from plugin)
i2cRead                                           obj/main/OPENDRONEBRH/drivers/bus_i2c_stm32f30x.o (symbol from plugin)
                                                  obj/main/OPENDRONEBRH/drivers/gps_i2cnav.o (symbol from plugin)
                                                  obj/main/OPENDRONEBRH/drivers/bus_busdev_i2c.o (symbol from plugin)
i2cSetSpeed                                       obj/main/OPENDRONEBRH/drivers/bus_i2c_stm32f30x.o (symbol from plugin)
                                                  obj/main/OPENDRONEBRH/fc/fc_init.o (symbol from plugin)
i2cTimeoutUserCallback                            obj/main/OPENDRONEBRH/drivers/bus_i2c_stm32f30x.o (symbol from plugin)
i2cWaitForCompletion.lto_priv.500                 /tmp/ccjoD88l.ltrans3.ltrans.o
                                                  /tmp/ccjoD88l.ltrans1.ltrans.o
i2cWrite                                          obj/main/OPENDRONEBRH/drivers/bus_i2c_stm32f30x.o (symbol from plugin)
                                                  obj/main/OPENDRONEBRH/drivers/bus_busdev_i2c.o (symbol from plugin)
i2cWriteBuffer                                    obj/main/OPENDRONEBRH/drivers/bus_i2c_stm32f30x.o (symbol from plugin)
                                                  obj/main/OPENDRONEBRH/drivers/bus_busdev_i2c.o (symbol from plugin)
i2cnavGPSModuleDetect                             obj/main/OPENDRONEBRH/drivers/gps_i2cnav.o (symbol from plugin)
i2cnavGPSModuleRead                               obj/main/OPENDRONEBRH/drivers/gps_i2cnav.o (symbol from plugin)
ibusCalculateChecksum                             obj/main/OPENDRONEBRH/rx/ibus.o (symbol from plugin)
                                                  obj/main/OPENDRONEBRH/telemetry/ibus_shared.o (symbol from plugin)
ibusInit                                          obj/main/OPENDRONEBRH/rx/ibus.o (symbol from plugin)
                                                  obj/main/OPENDRONEBRH/rx/rx.o (symbol from plugin)
ibusIsChecksumOkIa6b                              /tmp/ccjoD88l.ltrans4.ltrans.o
                                                  obj/main/OPENDRONEBRH/rx/ibus.o (symbol from plugin)
                                                  /tmp/ccjoD88l.ltrans2.ltrans.o
                                                  obj/main/OPENDRONEBRH/telemetry/ibus.o (symbol from plugin)
ibusSerialPort.lto_priv.476                       /tmp/ccjoD88l.ltrans4.ltrans.o
                                                  /tmp/ccjoD88l.ltrans3.ltrans.o
                                                  /tmp/ccjoD88l.ltrans1.ltrans.o
ibusSerialPort.lto_priv.477                       /tmp/ccjoD88l.ltrans2.ltrans.o
                                                  /tmp/ccjoD88l.ltrans1.ltrans.o
ibusTelemetryEnabled.lto_priv.475                 /tmp/ccjoD88l.ltrans2.ltrans.o
                                                  /tmp/ccjoD88l.ltrans1.ltrans.o
imuComputeRotationMatrix.lto_priv.505             /tmp/ccjoD88l.ltrans5.ltrans.o
                                                  /tmp/ccjoD88l.ltrans1.ltrans.o
imuConfig_Copy                                    obj/main/OPENDRONEBRH/flight/imu.o (symbol from plugin)
imuConfig_Registry                                /tmp/ccjoD88l.ltrans0.ltrans.o
                                                  obj/main/OPENDRONEBRH/flight/imu.o (symbol from plugin)
imuConfig_System                                  obj/main/OPENDRONEBRH/flight/imu.o (symbol from plugin)
imuConfigure                                      obj/main/OPENDRONEBRH/flight/imu.o (symbol from plugin)
                                                  obj/main/OPENDRONEBRH/fc/config.o (symbol from plugin)
imuInit                                           obj/main/OPENDRONEBRH/flight/imu.o (symbol from plugin)
                                                  obj/main/OPENDRONEBRH/fc/fc_init.o (symbol from plugin)
imuMeasuredAccelBF                                /tmp/ccjoD88l.ltrans5.ltrans.o
                                                  obj/main/OPENDRONEBRH/flight/imu.o (symbol from plugin)
                                                  /tmp/ccjoD88l.ltrans3.ltrans.o
                                                  /tmp/ccjoD88l.ltrans1.ltrans.o
                                                  obj/main/OPENDRONEBRH/navigation/navigation_pos_estimator.o (symbol from plugin)
                                                  obj/main/OPENDRONEBRH/navigation/navigation_fw_launch.o (symbol from plugin)
imuMeasuredRotationBF                             /tmp/ccjoD88l.ltrans5.ltrans.o
                                                  obj/main/OPENDRONEBRH/flight/imu.o (symbol from plugin)
                                                  /tmp/ccjoD88l.ltrans3.ltrans.o
                                                  obj/main/OPENDRONEBRH/navigation/navigation_fw_launch.o (symbol from plugin)
imuRuntimeConfig.lto_priv.374                     /tmp/ccjoD88l.ltrans5.ltrans.o
                                                  /tmp/ccjoD88l.ltrans1.ltrans.o
                                                  /tmp/ccjoD88l.ltrans0.ltrans.o
imuSetMagneticDeclination                         /tmp/ccjoD88l.ltrans5.ltrans.o
                                                  obj/main/OPENDRONEBRH/flight/imu.o (symbol from plugin)
                                                  /tmp/ccjoD88l.ltrans3.ltrans.o
                                                  /tmp/ccjoD88l.ltrans1.ltrans.o
                                                  obj/main/OPENDRONEBRH/navigation/navigation_pos_estimator.o (symbol from plugin)
imuTransformVectorBodyToEarth                     obj/main/OPENDRONEBRH/flight/imu.o (symbol from plugin)
                                                  obj/main/OPENDRONEBRH/navigation/navigation_pos_estimator.o (symbol from plugin)
imuTransformVectorEarthToBody                     obj/main/OPENDRONEBRH/flight/imu.o (symbol from plugin)
                                                  obj/main/OPENDRONEBRH/flight/pid.o (symbol from plugin)
                                                  obj/main/OPENDRONEBRH/navigation/navigation_pos_estimator.o (symbol from plugin)
imuUpdateAccelerometer                            /tmp/ccjoD88l.ltrans5.ltrans.o
                                                  obj/main/OPENDRONEBRH/flight/imu.o (symbol from plugin)
                                                  /tmp/ccjoD88l.ltrans2.ltrans.o
                                                  /tmp/ccjoD88l.ltrans0.ltrans.o
                                                  obj/main/OPENDRONEBRH/fc/fc_tasks.o (symbol from plugin)
                                                  obj/main/OPENDRONEBRH/fc/fc_core.o (symbol from plugin)
imuUpdateAttitude                                 /tmp/ccjoD88l.ltrans5.ltrans.o
                                                  obj/main/OPENDRONEBRH/flight/imu.o (symbol from plugin)
                                                  /tmp/ccjoD88l.ltrans2.ltrans.o
                                                  /tmp/ccjoD88l.ltrans0.ltrans.o
                                                  obj/main/OPENDRONEBRH/fc/fc_tasks.o (symbol from plugin)
                                                  obj/main/OPENDRONEBRH/fc/fc_core.o (symbol from plugin)
init                                              obj/main/OPENDRONEBRH/fc/fc_init.o (symbol from plugin)
                                                  obj/main/OPENDRONEBRH/main.o (symbol from plugin)
initActiveBoxIds                                  obj/main/OPENDRONEBRH/fc/fc_msp_box.o (symbol from plugin)
                                                  obj/main/OPENDRONEBRH/fc/fc_msp.o (symbol from plugin)
initBoardAlignment                                /tmp/ccjoD88l.ltrans4.ltrans.o
                                                  obj/main/OPENDRONEBRH/sensors/boardalignment.o (symbol from plugin)
                                                  /tmp/ccjoD88l.ltrans1.ltrans.o
                                                  obj/main/OPENDRONEBRH/fc/fc_init.o (symbol from plugin)
initBootlog                                       obj/main/OPENDRONEBRH/drivers/logging.o (symbol from plugin)
                                                  obj/main/OPENDRONEBRH/fc/fc_init.o (symbol from plugin)
initCrsfTelemetry                                 obj/main/OPENDRONEBRH/telemetry/crsf.o (symbol from plugin)
                                                  obj/main/OPENDRONEBRH/telemetry/telemetry.o (symbol from plugin)
initEEPROM                                        obj/main/OPENDRONEBRH/config/config_eeprom.o (symbol from plugin)
                                                  obj/main/OPENDRONEBRH/fc/fc_init.o (symbol from plugin)
initFrSkyTelemetry                                obj/main/OPENDRONEBRH/telemetry/frsky.o (symbol from plugin)
                                                  obj/main/OPENDRONEBRH/telemetry/telemetry.o (symbol from plugin)
initHoTTTelemetry                                 obj/main/OPENDRONEBRH/telemetry/hott.o (symbol from plugin)
                                                  obj/main/OPENDRONEBRH/telemetry/telemetry.o (symbol from plugin)
initIbusTelemetry                                 obj/main/OPENDRONEBRH/telemetry/ibus.o (symbol from plugin)
                                                  obj/main/OPENDRONEBRH/telemetry/telemetry.o (symbol from plugin)
initJetiExBusTelemetry                            obj/main/OPENDRONEBRH/rx/jetiexbus.o (symbol from plugin)
initMAVLinkTelemetry                              obj/main/OPENDRONEBRH/telemetry/mavlink.o (symbol from plugin)
                                                  obj/main/OPENDRONEBRH/telemetry/telemetry.o (symbol from plugin)
initSharedIbusTelemetry                           obj/main/OPENDRONEBRH/telemetry/ibus_shared.o (symbol from plugin)
                                                  obj/main/OPENDRONEBRH/rx/ibus.o (symbol from plugin)
                                                  obj/main/OPENDRONEBRH/telemetry/ibus.o (symbol from plugin)
initSharedMsp                                     obj/main/OPENDRONEBRH/telemetry/msp_shared.o (symbol from plugin)
initSmartPortTelemetry                            obj/main/OPENDRONEBRH/telemetry/smartport.o (symbol from plugin)
                                                  obj/main/OPENDRONEBRH/telemetry/telemetry.o (symbol from plugin)
initSmartPortTelemetryExternal                    obj/main/OPENDRONEBRH/telemetry/smartport.o (symbol from plugin)
                                                  obj/main/OPENDRONEBRH/rx/fport.o (symbol from plugin)
init_printf                                       obj/main/OPENDRONEBRH/common/printf.o (symbol from plugin)
initializePositionEstimator                       obj/main/OPENDRONEBRH/navigation/navigation_pos_estimator.o (symbol from plugin)
initializeRTHSanityChecker                        obj/main/OPENDRONEBRH/navigation/navigation.o (symbol from plugin)
inputSource_e                                     obj/main/OPENDRONEBRH/rx/eleres.o (symbol from plugin)
                                                  obj/main/OPENDRONEBRH/flight/servos.o (symbol from plugin)
                                                  obj/main/OPENDRONEBRH/flight/mixer.o (symbol from plugin)
                                                  obj/main/OPENDRONEBRH/fc/settings.o (symbol from plugin)
                                                  obj/main/OPENDRONEBRH/fc/fc_msp.o (symbol from plugin)
                                                  obj/main/OPENDRONEBRH/fc/fc_init.o (symbol from plugin)
                                                  obj/main/OPENDRONEBRH/fc/fc_core.o (symbol from plugin)
                                                  obj/main/OPENDRONEBRH/fc/config.o (symbol from plugin)
                                                  obj/main/OPENDRONEBRH/fc/cli.o (symbol from plugin)
                                                  obj/main/OPENDRONEBRH/build/build_config.o (symbol from plugin)
                                                  obj/main/OPENDRONEBRH/telemetry/mavlink.o (symbol from plugin)
ioPortDefs                                        obj/main/OPENDRONEBRH/drivers/io.o (symbol from plugin)
ioRecs                                            /tmp/ccjoD88l.ltrans4.ltrans.o
                                                  obj/main/OPENDRONEBRH/drivers/io.o (symbol from plugin)
                                                  /tmp/ccjoD88l.ltrans1.ltrans.o
                                                  /tmp/ccjoD88l.ltrans0.ltrans.o
                                                  obj/main/OPENDRONEBRH/fc/cli.o (symbol from plugin)
                                                  obj/main/OPENDRONEBRH/drivers/light_led.o (symbol from plugin)
isAccelUpdatedAtLeastOnce.lto_priv.461            /tmp/ccjoD88l.ltrans5.ltrans.o
                                                  /tmp/ccjoD88l.ltrans1.ltrans.o
isAirmodeActive                                   obj/main/OPENDRONEBRH/fc/rc_modes.o (symbol from plugin)
                                                  obj/main/OPENDRONEBRH/fc/fc_core.o (symbol from plugin)
isAmperageConfigured                              obj/main/OPENDRONEBRH/sensors/battery.o (symbol from plugin)
                                                  obj/main/OPENDRONEBRH/telemetry/smartport.o (symbol from plugin)
isApproachingLastWaypoint                         obj/main/OPENDRONEBRH/navigation/navigation.o (symbol from plugin)
                                                  obj/main/OPENDRONEBRH/navigation/navigation_fixedwing.o (symbol from plugin)
isArmingDisabledReason                            obj/main/OPENDRONEBRH/fc/runtime_config.o (symbol from plugin)
isBatteryVoltageConfigured                        obj/main/OPENDRONEBRH/sensors/battery.o (symbol from plugin)
                                                  obj/main/OPENDRONEBRH/telemetry/smartport.o (symbol from plugin)
isCalibrating                                     /tmp/ccjoD88l.ltrans0.ltrans.o
                                                  obj/main/OPENDRONEBRH/fc/fc_core.o (symbol from plugin)
                                                  /tmp/ccjoD88l.ltrans2.ltrans.o
                                                  obj/main/OPENDRONEBRH/telemetry/mavlink.o (symbol from plugin)
isEEPROMContentValid                              obj/main/OPENDRONEBRH/config/config_eeprom.o (symbol from plugin)
                                                  obj/main/OPENDRONEBRH/fc/config.o (symbol from plugin)
isEEPROMContentValid.part.4                       /tmp/ccjoD88l.ltrans1.ltrans.o
                                                  /tmp/ccjoD88l.ltrans0.ltrans.o
isFeatureSupported.lto_priv.503                   /tmp/ccjoD88l.ltrans4.ltrans.o
                                                  /tmp/ccjoD88l.ltrans1.ltrans.o
isFixedWingLandingDetected                        obj/main/OPENDRONEBRH/navigation/navigation_fixedwing.o (symbol from plugin)
                                                  obj/main/OPENDRONEBRH/navigation/navigation.o (symbol from plugin)
isFixedWingLaunchDetected                         obj/main/OPENDRONEBRH/navigation/navigation_fw_launch.o (symbol from plugin)
                                                  obj/main/OPENDRONEBRH/navigation/navigation.o (symbol from plugin)
isFixedWingLaunchFinishedOrAborted                obj/main/OPENDRONEBRH/navigation/navigation_fw_launch.o (symbol from plugin)
                                                  obj/main/OPENDRONEBRH/navigation/navigation.o (symbol from plugin)
isGPSGlitchDetected                               obj/main/OPENDRONEBRH/navigation/navigation_pos_estimator.o (symbol from plugin)
isGPSHealthy                                      obj/main/OPENDRONEBRH/io/gps.o (symbol from plugin)
                                                  obj/main/OPENDRONEBRH/sensors/diagnostics.o (symbol from plugin)
isHardwareHealthy                                 /tmp/ccjoD88l.ltrans4.ltrans.o
                                                  obj/main/OPENDRONEBRH/sensors/diagnostics.o (symbol from plugin)
                                                  /tmp/ccjoD88l.ltrans5.ltrans.o
                                                  /tmp/ccjoD88l.ltrans2.ltrans.o
                                                  /tmp/ccjoD88l.ltrans0.ltrans.o
                                                  obj/main/OPENDRONEBRH/io/beeper.o (symbol from plugin)
                                                  obj/main/OPENDRONEBRH/fc/fc_msp_box.o (symbol from plugin)
                                                  obj/main/OPENDRONEBRH/fc/fc_msp.o (symbol from plugin)
                                                  obj/main/OPENDRONEBRH/fc/fc_core.o (symbol from plugin)
isImuHeadingValid                                 /tmp/ccjoD88l.ltrans5.ltrans.o
                                                  obj/main/OPENDRONEBRH/flight/imu.o (symbol from plugin)
                                                  /tmp/ccjoD88l.ltrans3.ltrans.o
                                                  obj/main/OPENDRONEBRH/navigation/navigation_pos_estimator.o (symbol from plugin)
isImuReady                                        /tmp/ccjoD88l.ltrans5.ltrans.o
                                                  obj/main/OPENDRONEBRH/flight/imu.o (symbol from plugin)
                                                  /tmp/ccjoD88l.ltrans3.ltrans.o
                                                  obj/main/OPENDRONEBRH/navigation/navigation_pos_estimator.o (symbol from plugin)
isLandingDetected                                 obj/main/OPENDRONEBRH/navigation/navigation.o (symbol from plugin)
isMPUSoftReset                                    /tmp/ccjoD88l.ltrans3.ltrans.o
                                                  obj/main/OPENDRONEBRH/drivers/system_stm32f30x.o (symbol from plugin)
                                                  /tmp/ccjoD88l.ltrans2.ltrans.o
                                                  /tmp/ccjoD88l.ltrans1.ltrans.o
                                                  obj/main/OPENDRONEBRH/rx/spektrum.o (symbol from plugin)
                                                  obj/main/OPENDRONEBRH/fc/fc_init.o (symbol from plugin)
                                                  obj/main/OPENDRONEBRH/io/gps.o (symbol from plugin)
isMixerEnabled                                    obj/main/OPENDRONEBRH/flight/mixer.o (symbol from plugin)
                                                  obj/main/OPENDRONEBRH/fc/config.o (symbol from plugin)
isMixerUsingServos                                obj/main/OPENDRONEBRH/flight/servos.o (symbol from plugin)
                                                  obj/main/OPENDRONEBRH/fc/fc_init.o (symbol from plugin)
                                                  obj/main/OPENDRONEBRH/fc/fc_core.o (symbol from plugin)
isModeActivationConditionPresent                  obj/main/OPENDRONEBRH/fc/rc_modes.o (symbol from plugin)
isMotorBrushed                                    obj/main/OPENDRONEBRH/drivers/pwm_output.o (symbol from plugin)
isMulticopterLandingDetected                      obj/main/OPENDRONEBRH/navigation/navigation_multicopter.o (symbol from plugin)
                                                  obj/main/OPENDRONEBRH/navigation/navigation.o (symbol from plugin)
isNavLaunchEnabled                                /tmp/ccjoD88l.ltrans3.ltrans.o
                                                  obj/main/OPENDRONEBRH/navigation/navigation.o (symbol from plugin)
                                                  /tmp/ccjoD88l.ltrans0.ltrans.o
                                                  obj/main/OPENDRONEBRH/fc/fc_core.o (symbol from plugin)
isPPMDataBeingReceived                            obj/main/OPENDRONEBRH/drivers/rx_pwm.o (symbol from plugin)
                                                  obj/main/OPENDRONEBRH/rx/pwm.o (symbol from plugin)
isPWMDataBeingReceived                            obj/main/OPENDRONEBRH/drivers/rx_pwm.o (symbol from plugin)
                                                  obj/main/OPENDRONEBRH/rx/pwm.o (symbol from plugin)
isPwmDriverEnabled                                obj/main/OPENDRONEBRH/io/pwmdriver_i2c.o (symbol from plugin)
isRangeActive                                     obj/main/OPENDRONEBRH/fc/rc_modes.o (symbol from plugin)
                                                  obj/main/OPENDRONEBRH/fc/rc_adjustments.o (symbol from plugin)
isRangeActive.part.0                              /tmp/ccjoD88l.ltrans5.ltrans.o
                                                  /tmp/ccjoD88l.ltrans0.ltrans.o
isSerialConfigValid                               obj/main/OPENDRONEBRH/io/serial.o (symbol from plugin)
                                                  obj/main/OPENDRONEBRH/fc/config.o (symbol from plugin)
isSerialPortShared                                obj/main/OPENDRONEBRH/io/serial.o (symbol from plugin)
                                                  obj/main/OPENDRONEBRH/rx/ibus.o (symbol from plugin)
                                                  obj/main/OPENDRONEBRH/telemetry/ibus.o (symbol from plugin)
isSerialTransmitBufferEmpty                       /tmp/ccjoD88l.ltrans1.ltrans.o
                                                  obj/main/OPENDRONEBRH/drivers/serial.o (symbol from plugin)
                                                  /tmp/ccjoD88l.ltrans5.ltrans.o
                                                  /tmp/ccjoD88l.ltrans4.ltrans.o
                                                  obj/main/OPENDRONEBRH/rx/jetiexbus.o (symbol from plugin)
                                                  obj/main/OPENDRONEBRH/msp/msp_serial.o (symbol from plugin)
                                                  obj/main/OPENDRONEBRH/io/serial.o (symbol from plugin)
                                                  obj/main/OPENDRONEBRH/common/printf.o (symbol from plugin)
                                                  obj/main/OPENDRONEBRH/io/gps.o (symbol from plugin)
isServoOutputEnabled                              obj/main/OPENDRONEBRH/flight/servos.o (symbol from plugin)
                                                  obj/main/OPENDRONEBRH/fc/fc_core.o (symbol from plugin)
isSoftSerialTransmitBufferEmpty                   obj/main/OPENDRONEBRH/drivers/serial_softserial.o (symbol from plugin)
isTemperatureSensorValid                          obj/main/OPENDRONEBRH/sensors/temperature.o (symbol from plugin)
isThrustFacingDownwards                           obj/main/OPENDRONEBRH/navigation/navigation.o (symbol from plugin)
isUartTransmitBufferEmpty                         obj/main/OPENDRONEBRH/drivers/serial_uart.o (symbol from plugin)
isUsbVcpTransmitBufferEmpty.lto_priv.258          /tmp/ccjoD88l.ltrans3.ltrans.o
                                                  /tmp/ccjoD88l.ltrans5.ltrans.o
isUsingNAVModes.lto_priv.369                      /tmp/ccjoD88l.ltrans5.ltrans.o
                                                  /tmp/ccjoD88l.ltrans0.ltrans.o
isUsingNavigationModes                            obj/main/OPENDRONEBRH/fc/rc_modes.o (symbol from plugin)
                                                  obj/main/OPENDRONEBRH/navigation/navigation.o (symbol from plugin)
isUsingSticksForArming                            obj/main/OPENDRONEBRH/fc/rc_modes.o (symbol from plugin)
                                                  obj/main/OPENDRONEBRH/flight/failsafe.o (symbol from plugin)
                                                  obj/main/OPENDRONEBRH/fc/rc_controls.o (symbol from plugin)
                                                  obj/main/OPENDRONEBRH/fc/fc_core.o (symbol from plugin)
isUsingSticksToArm.lto_priv.349                   /tmp/ccjoD88l.ltrans5.ltrans.o
                                                  /tmp/ccjoD88l.ltrans0.ltrans.o
isWaypointListValid                               obj/main/OPENDRONEBRH/navigation/navigation.o (symbol from plugin)
                                                  obj/main/OPENDRONEBRH/fc/fc_msp.o (symbol from plugin)
                                                  obj/main/OPENDRONEBRH/telemetry/mavlink.o (symbol from plugin)
isWaypointMissed                                  obj/main/OPENDRONEBRH/navigation/navigation.o (symbol from plugin)
isWaypointReached                                 obj/main/OPENDRONEBRH/navigation/navigation.o (symbol from plugin)
itoa                                              obj/main/OPENDRONEBRH/common/typeconversion.o (symbol from plugin)
jetiExBusDecodeChannelFrame                       obj/main/OPENDRONEBRH/rx/jetiexbus.o (symbol from plugin)
jetiExBusFrameReset                               obj/main/OPENDRONEBRH/rx/jetiexbus.o (symbol from plugin)
jetiExBusInit                                     obj/main/OPENDRONEBRH/rx/jetiexbus.o (symbol from plugin)
                                                  obj/main/OPENDRONEBRH/rx/rx.o (symbol from plugin)
jetiExSensors                                     obj/main/OPENDRONEBRH/rx/jetiexbus.o (symbol from plugin)
lastAccelTargetX.lto_priv.520                     /tmp/ccjoD88l.ltrans0.ltrans.o
                                                  /tmp/ccjoD88l.ltrans3.ltrans.o
lastAccelTargetY.lto_priv.521                     /tmp/ccjoD88l.ltrans0.ltrans.o
                                                  /tmp/ccjoD88l.ltrans3.ltrans.o
lastMspRssiUpdateUs.lto_priv.351                  /tmp/ccjoD88l.ltrans2.ltrans.o
                                                  /tmp/ccjoD88l.ltrans0.ltrans.o
latchActiveFeatures                               obj/main/OPENDRONEBRH/config/feature.o (symbol from plugin)
                                                  obj/main/OPENDRONEBRH/fc/fc_init.o (symbol from plugin)
ledInit                                           obj/main/OPENDRONEBRH/drivers/light_led.o (symbol from plugin)
                                                  obj/main/OPENDRONEBRH/fc/fc_init.o (symbol from plugin)
ledOffset.lto_priv.321                            /tmp/ccjoD88l.ltrans4.ltrans.o
ledPolarity                                       obj/main/OPENDRONEBRH/drivers/light_led.o (symbol from plugin)
ledSet                                            obj/main/OPENDRONEBRH/drivers/light_led.o (symbol from plugin)
                                                  obj/main/OPENDRONEBRH/rx/spektrum.o (symbol from plugin)
                                                  obj/main/OPENDRONEBRH/io/statusindicator.o (symbol from plugin)
                                                  obj/main/OPENDRONEBRH/io/serial.o (symbol from plugin)
                                                  obj/main/OPENDRONEBRH/fc/fc_hardfaults.o (symbol from plugin)
                                                  obj/main/OPENDRONEBRH/fc/fc_init.o (symbol from plugin)
                                                  obj/main/OPENDRONEBRH/fc/fc_core.o (symbol from plugin)
                                                  obj/main/OPENDRONEBRH/drivers/system.o (symbol from plugin)
                                                  obj/main/OPENDRONEBRH/io/gps.o (symbol from plugin)
ledSet.constprop.143                              /tmp/ccjoD88l.ltrans4.ltrans.o
                                                  /tmp/ccjoD88l.ltrans5.ltrans.o
                                                  /tmp/ccjoD88l.ltrans2.ltrans.o
                                                  /tmp/ccjoD88l.ltrans1.ltrans.o
                                                  /tmp/ccjoD88l.ltrans0.ltrans.o
ledToggle                                         obj/main/OPENDRONEBRH/drivers/light_led.o (symbol from plugin)
                                                  obj/main/OPENDRONEBRH/io/statusindicator.o (symbol from plugin)
                                                  obj/main/OPENDRONEBRH/fc/fc_init.o (symbol from plugin)
                                                  obj/main/OPENDRONEBRH/drivers/system.o (symbol from plugin)
ledToggle.constprop.142                           /tmp/ccjoD88l.ltrans4.ltrans.o
                                                  /tmp/ccjoD88l.ltrans5.ltrans.o
                                                  /tmp/ccjoD88l.ltrans1.ltrans.o
                                                  /tmp/ccjoD88l.ltrans0.ltrans.o
leds.lto_priv.473                                 /tmp/ccjoD88l.ltrans4.ltrans.o
                                                  /tmp/ccjoD88l.ltrans1.ltrans.o
li2a                                              obj/main/OPENDRONEBRH/common/typeconversion.o (symbol from plugin)
                                                  obj/main/OPENDRONEBRH/common/printf.o (symbol from plugin)
linecoding                                        obj/main/OPENDRONEBRH/vcp/usb_prop.o (symbol from plugin)
loadCustomServoMixer                              obj/main/OPENDRONEBRH/flight/servos.o (symbol from plugin)
                                                  obj/main/OPENDRONEBRH/fc/fc_msp.o (symbol from plugin)
loadCustomServoMixer.part.0                       /tmp/ccjoD88l.ltrans5.ltrans.o
                                                  /tmp/ccjoD88l.ltrans2.ltrans.o
                                                  /tmp/ccjoD88l.ltrans1.ltrans.o
loadEEPROM                                        obj/main/OPENDRONEBRH/config/config_eeprom.o (symbol from plugin)
                                                  obj/main/OPENDRONEBRH/fc/config.o (symbol from plugin)
loadNonVolatileWaypointList                       /tmp/ccjoD88l.ltrans3.ltrans.o
                                                  obj/main/OPENDRONEBRH/navigation/navigation.o (symbol from plugin)
                                                  /tmp/ccjoD88l.ltrans2.ltrans.o
                                                  /tmp/ccjoD88l.ltrans0.ltrans.o
                                                  obj/main/OPENDRONEBRH/fc/rc_controls.o (symbol from plugin)
                                                  obj/main/OPENDRONEBRH/fc/fc_msp.o (symbol from plugin)
log2f                                             /home/ethan/developer/opendrone/tools/gcc-arm-none-eabi-7-2017-q4-major/bin/../lib/gcc/arm-none-eabi/7.2.1/../../../../arm-none-eabi/lib/thumb/v7e-m/fpv4-sp/hard/libm.a(lib_a-sf_log2.o)
                                                  /tmp/ccjoD88l.ltrans1.ltrans.o
lookupBaudRateIndex                               obj/main/OPENDRONEBRH/io/serial.o (symbol from plugin)
                                                  obj/main/OPENDRONEBRH/fc/cli.o (symbol from plugin)
lookupThrottleRC.lto_priv.363                     /tmp/ccjoD88l.ltrans5.ltrans.o
                                                  /tmp/ccjoD88l.ltrans0.ltrans.o
lookupThrottleRCMid                               /tmp/ccjoD88l.ltrans5.ltrans.o
                                                  obj/main/OPENDRONEBRH/fc/rc_curves.o (symbol from plugin)
                                                  /tmp/ccjoD88l.ltrans3.ltrans.o
lrintf                                            /home/ethan/developer/opendrone/tools/gcc-arm-none-eabi-7-2017-q4-major/bin/../lib/gcc/arm-none-eabi/7.2.1/../../../../arm-none-eabi/lib/thumb/v7e-m/fpv4-sp/hard/libm.a(lib_a-sf_lrint.o)
                                                  /tmp/ccjoD88l.ltrans5.ltrans.o
                                                  /tmp/ccjoD88l.ltrans4.ltrans.o
                                                  /tmp/ccjoD88l.ltrans2.ltrans.o
                                                  /tmp/ccjoD88l.ltrans1.ltrans.o
                                                  /tmp/ccjoD88l.ltrans0.ltrans.o
mAhDrawn.lto_priv.494                             /tmp/ccjoD88l.ltrans2.ltrans.o
                                                  /tmp/ccjoD88l.ltrans3.ltrans.o
                                                  /tmp/ccjoD88l.ltrans1.ltrans.o
mWhDrawn.lto_priv.368                             /tmp/ccjoD88l.ltrans2.ltrans.o
                                                  /tmp/ccjoD88l.ltrans1.ltrans.o
                                                  /tmp/ccjoD88l.ltrans0.ltrans.o
m_mavlink_status.12816.lto_priv.281               /tmp/ccjoD88l.ltrans4.ltrans.o
                                                  /tmp/ccjoD88l.ltrans2.ltrans.o
mag                                               obj/main/OPENDRONEBRH/sensors/compass.o (symbol from plugin)
                                                  obj/main/OPENDRONEBRH/fc/fc_msp.o (symbol from plugin)
main                                              /tmp/ccjoD88l.ltrans1.ltrans.o
                                                  obj/main/OPENDRONEBRH/main.o (symbol from plugin)
                                                  obj/main/OPENDRONEBRH/startup_stm32f30x_md_gcc.o
matherr                                           /home/ethan/developer/opendrone/tools/gcc-arm-none-eabi-7-2017-q4-major/bin/../lib/gcc/arm-none-eabi/7.2.1/../../../../arm-none-eabi/lib/thumb/v7e-m/fpv4-sp/hard/libm.a(lib_a-s_matherr.o)
                                                  /home/ethan/developer/opendrone/tools/gcc-arm-none-eabi-7-2017-q4-major/bin/../lib/gcc/arm-none-eabi/7.2.1/../../../../arm-none-eabi/lib/thumb/v7e-m/fpv4-sp/hard/libm.a(lib_a-wf_sqrt.o)
mavRecvMsg.lto_priv.280                           /tmp/ccjoD88l.ltrans4.ltrans.o
                                                  /tmp/ccjoD88l.ltrans2.ltrans.o
mavSendMsg.lto_priv.279                           /tmp/ccjoD88l.ltrans4.ltrans.o
                                                  /tmp/ccjoD88l.ltrans3.ltrans.o
                                                  /tmp/ccjoD88l.ltrans2.ltrans.o
mavlinkPort.lto_priv.480                          /tmp/ccjoD88l.ltrans2.ltrans.o
                                                  /tmp/ccjoD88l.ltrans3.ltrans.o
                                                  /tmp/ccjoD88l.ltrans1.ltrans.o
mavlinkSendAttitude                               obj/main/OPENDRONEBRH/telemetry/mavlink.o (symbol from plugin)
mavlinkSendHUDAndHeartbeat                        obj/main/OPENDRONEBRH/telemetry/mavlink.o (symbol from plugin)
mavlinkSendMessage.lto_priv.330                   /tmp/ccjoD88l.ltrans3.ltrans.o
                                                  /tmp/ccjoD88l.ltrans2.ltrans.o
mavlinkSendPosition                               obj/main/OPENDRONEBRH/telemetry/mavlink.o (symbol from plugin)
mavlinkSendRCChannelsAndRSSI                      obj/main/OPENDRONEBRH/telemetry/mavlink.o (symbol from plugin)
mavlinkSendSystemStatus                           obj/main/OPENDRONEBRH/telemetry/mavlink.o (symbol from plugin)
mavlinkStreamTrigger.lto_priv.329                 /tmp/ccjoD88l.ltrans3.ltrans.o
                                                  /tmp/ccjoD88l.ltrans2.ltrans.o
mavlinkTelemetryEnabled.lto_priv.479              /tmp/ccjoD88l.ltrans2.ltrans.o
                                                  /tmp/ccjoD88l.ltrans1.ltrans.o
mavlink_finalize_message.isra.1.constprop.98      /tmp/ccjoD88l.ltrans4.ltrans.o
                                                  /tmp/ccjoD88l.ltrans2.ltrans.o
mavlink_msg_mission_ack_pack.constprop.87         /tmp/ccjoD88l.ltrans4.ltrans.o
                                                  /tmp/ccjoD88l.ltrans2.ltrans.o
mavlink_msg_mission_clear_all_decode.constprop.102 /tmp/ccjoD88l.ltrans4.ltrans.o
                                                  /tmp/ccjoD88l.ltrans2.ltrans.o
mavlink_msg_mission_count_decode.constprop.101    /tmp/ccjoD88l.ltrans4.ltrans.o
                                                  /tmp/ccjoD88l.ltrans2.ltrans.o
maxServoIndex.lto_priv.357                        /tmp/ccjoD88l.ltrans5.ltrans.o
                                                  /tmp/ccjoD88l.ltrans1.ltrans.o
                                                  /tmp/ccjoD88l.ltrans0.ltrans.o
mcPosControllerAccFilterStateX.lto_priv.518       /tmp/ccjoD88l.ltrans0.ltrans.o
                                                  /tmp/ccjoD88l.ltrans3.ltrans.o
mcPosControllerAccFilterStateY.lto_priv.519       /tmp/ccjoD88l.ltrans0.ltrans.o
                                                  /tmp/ccjoD88l.ltrans3.ltrans.o
memAllocate                                       obj/main/OPENDRONEBRH/common/memory.o (symbol from plugin)
memGetAvailableBytes                              obj/main/OPENDRONEBRH/common/memory.o (symbol from plugin)
                                                  obj/main/OPENDRONEBRH/fc/cli.o (symbol from plugin)
memcpy                                            /home/ethan/developer/opendrone/tools/gcc-arm-none-eabi-7-2017-q4-major/bin/../lib/gcc/arm-none-eabi/7.2.1/../../../../arm-none-eabi/lib/thumb/v7e-m/fpv4-sp/hard/libc_nano.a(lib_a-memcpy-stub.o)
                                                  /tmp/ccjoD88l.ltrans4.ltrans.o
                                                  /tmp/ccjoD88l.ltrans3.ltrans.o
                                                  /tmp/ccjoD88l.ltrans2.ltrans.o
                                                  /tmp/ccjoD88l.ltrans1.ltrans.o
                                                  /tmp/ccjoD88l.ltrans0.ltrans.o
memmove                                           /home/ethan/developer/opendrone/tools/gcc-arm-none-eabi-7-2017-q4-major/bin/../lib/gcc/arm-none-eabi/7.2.1/../../../../arm-none-eabi/lib/thumb/v7e-m/fpv4-sp/hard/libc_nano.a(lib_a-memmove.o)
                                                  /tmp/ccjoD88l.ltrans4.ltrans.o
                                                  /tmp/ccjoD88l.ltrans0.ltrans.o
memset                                            /home/ethan/developer/opendrone/tools/gcc-arm-none-eabi-7-2017-q4-major/bin/../lib/gcc/arm-none-eabi/7.2.1/../../../../arm-none-eabi/lib/thumb/v7e-m/fpv4-sp/hard/libc_nano.a(lib_a-memset.o)
                                                  /tmp/ccjoD88l.ltrans5.ltrans.o
                                                  /tmp/ccjoD88l.ltrans4.ltrans.o
                                                  /tmp/ccjoD88l.ltrans2.ltrans.o
                                                  /tmp/ccjoD88l.ltrans1.ltrans.o
                                                  /tmp/ccjoD88l.ltrans0.ltrans.o
micros                                            /tmp/ccjoD88l.ltrans0.ltrans.o
                                                  obj/main/OPENDRONEBRH/drivers/system.o (symbol from plugin)
                                                  /tmp/ccjoD88l.ltrans5.ltrans.o
                                                  /tmp/ccjoD88l.ltrans4.ltrans.o
                                                  /tmp/ccjoD88l.ltrans3.ltrans.o
                                                  /tmp/ccjoD88l.ltrans2.ltrans.o
                                                  /tmp/ccjoD88l.ltrans1.ltrans.o
                                                  obj/main/OPENDRONEBRH/scheduler/scheduler.o (symbol from plugin)
                                                  obj/main/OPENDRONEBRH/rx/xbus.o (symbol from plugin)
                                                  obj/main/OPENDRONEBRH/rx/sumh.o (symbol from plugin)
                                                  obj/main/OPENDRONEBRH/rx/sumd.o (symbol from plugin)
                                                  obj/main/OPENDRONEBRH/rx/spektrum.o (symbol from plugin)
                                                  obj/main/OPENDRONEBRH/rx/sbus.o (symbol from plugin)
                                                  obj/main/OPENDRONEBRH/rx/crsf.o (symbol from plugin)
                                                  obj/main/OPENDRONEBRH/rx/rx.o (symbol from plugin)
                                                  obj/main/OPENDRONEBRH/rx/pwm.o (symbol from plugin)
                                                  obj/main/OPENDRONEBRH/rx/jetiexbus.o (symbol from plugin)
                                                  obj/main/OPENDRONEBRH/rx/ibus.o (symbol from plugin)
                                                  obj/main/OPENDRONEBRH/rx/fport.o (symbol from plugin)
                                                  obj/main/OPENDRONEBRH/io/statusindicator.o (symbol from plugin)
                                                  obj/main/OPENDRONEBRH/fc/fc_core.o (symbol from plugin)
                                                  obj/main/OPENDRONEBRH/telemetry/smartport.o (symbol from plugin)
                                                  obj/main/OPENDRONEBRH/navigation/navigation_pos_estimator.o (symbol from plugin)
                                                  obj/main/OPENDRONEBRH/navigation/navigation_multicopter.o (symbol from plugin)
                                                  obj/main/OPENDRONEBRH/navigation/navigation_fixedwing.o (symbol from plugin)
                                                  obj/main/OPENDRONEBRH/navigation/navigation.o (symbol from plugin)
microsISR                                         obj/main/OPENDRONEBRH/drivers/system.o (symbol from plugin)
millis                                            obj/main/OPENDRONEBRH/drivers/system.o (symbol from plugin)
                                                  obj/main/OPENDRONEBRH/rx/spektrum.o (symbol from plugin)
                                                  obj/main/OPENDRONEBRH/rx/rx.o (symbol from plugin)
                                                  obj/main/OPENDRONEBRH/rx/fport.o (symbol from plugin)
                                                  obj/main/OPENDRONEBRH/msp/msp_serial.o (symbol from plugin)
                                                  obj/main/OPENDRONEBRH/io/rcdevice.o (symbol from plugin)
                                                  obj/main/OPENDRONEBRH/io/statusindicator.o (symbol from plugin)
                                                  obj/main/OPENDRONEBRH/io/beeper.o (symbol from plugin)
                                                  obj/main/OPENDRONEBRH/flight/servos.o (symbol from plugin)
                                                  obj/main/OPENDRONEBRH/flight/pid_autotune.o (symbol from plugin)
                                                  obj/main/OPENDRONEBRH/flight/imu.o (symbol from plugin)
                                                  obj/main/OPENDRONEBRH/flight/failsafe.o (symbol from plugin)
                                                  obj/main/OPENDRONEBRH/fc/stats.o (symbol from plugin)
                                                  obj/main/OPENDRONEBRH/fc/rc_controls.o (symbol from plugin)
                                                  obj/main/OPENDRONEBRH/fc/rc_adjustments.o (symbol from plugin)
                                                  obj/main/OPENDRONEBRH/fc/fc_core.o (symbol from plugin)
                                                  obj/main/OPENDRONEBRH/fc/cli.o (symbol from plugin)
                                                  obj/main/OPENDRONEBRH/drivers/logging.o (symbol from plugin)
                                                  obj/main/OPENDRONEBRH/drivers/display.o (symbol from plugin)
                                                  obj/main/OPENDRONEBRH/common/time.o (symbol from plugin)
                                                  obj/main/OPENDRONEBRH/build/debug.o (symbol from plugin)
                                                  obj/main/OPENDRONEBRH/telemetry/smartport.o (symbol from plugin)
                                                  obj/main/OPENDRONEBRH/telemetry/mavlink.o (symbol from plugin)
                                                  obj/main/OPENDRONEBRH/telemetry/hott.o (symbol from plugin)
                                                  obj/main/OPENDRONEBRH/telemetry/frsky.o (symbol from plugin)
                                                  obj/main/OPENDRONEBRH/sensors/pitotmeter.o (symbol from plugin)
                                                  obj/main/OPENDRONEBRH/sensors/barometer.o (symbol from plugin)
                                                  obj/main/OPENDRONEBRH/navigation/navigation_pos_estimator.o (symbol from plugin)
                                                  obj/main/OPENDRONEBRH/navigation/navigation.o (symbol from plugin)
                                                  obj/main/OPENDRONEBRH/io/gps.o (symbol from plugin)
                                                  obj/main/OPENDRONEBRH/drivers/serial_usb_vcp.o (symbol from plugin)
minServoIndex.lto_priv.356                        /tmp/ccjoD88l.ltrans5.ltrans.o
                                                  /tmp/ccjoD88l.ltrans1.ltrans.o
                                                  /tmp/ccjoD88l.ltrans0.ltrans.o
mixTable                                          obj/main/OPENDRONEBRH/flight/mixer.o (symbol from plugin)
                                                  obj/main/OPENDRONEBRH/fc/fc_core.o (symbol from plugin)
mixerConfig_Copy                                  /tmp/ccjoD88l.ltrans5.ltrans.o
                                                  obj/main/OPENDRONEBRH/flight/mixer.o (symbol from plugin)
                                                  /tmp/ccjoD88l.ltrans0.ltrans.o
                                                  obj/main/OPENDRONEBRH/fc/cli.o (symbol from plugin)
mixerConfig_Registry                              /tmp/ccjoD88l.ltrans5.ltrans.o
                                                  obj/main/OPENDRONEBRH/flight/mixer.o (symbol from plugin)
mixerConfig_System                                /tmp/ccjoD88l.ltrans5.ltrans.o
                                                  obj/main/OPENDRONEBRH/flight/mixer.o (symbol from plugin)
                                                  /tmp/ccjoD88l.ltrans2.ltrans.o
                                                  /tmp/ccjoD88l.ltrans1.ltrans.o
                                                  /tmp/ccjoD88l.ltrans0.ltrans.o
                                                  obj/main/OPENDRONEBRH/flight/servos.o (symbol from plugin)
                                                  obj/main/OPENDRONEBRH/fc/fc_msp.o (symbol from plugin)
                                                  obj/main/OPENDRONEBRH/fc/fc_core.o (symbol from plugin)
                                                  obj/main/OPENDRONEBRH/fc/config.o (symbol from plugin)
                                                  obj/main/OPENDRONEBRH/fc/cli.o (symbol from plugin)
                                                  obj/main/OPENDRONEBRH/telemetry/mavlink.o (symbol from plugin)
mixerIsOutputSaturated                            obj/main/OPENDRONEBRH/flight/mixer.o (symbol from plugin)
                                                  obj/main/OPENDRONEBRH/flight/pid.o (symbol from plugin)
mixerLoadMix                                      obj/main/OPENDRONEBRH/flight/mixer.o (symbol from plugin)
                                                  obj/main/OPENDRONEBRH/fc/cli.o (symbol from plugin)
mixerResetDisarmedMotors                          /tmp/ccjoD88l.ltrans5.ltrans.o
                                                  obj/main/OPENDRONEBRH/flight/mixer.o (symbol from plugin)
                                                  /tmp/ccjoD88l.ltrans1.ltrans.o
                                                  /tmp/ccjoD88l.ltrans0.ltrans.o
                                                  obj/main/OPENDRONEBRH/fc/cli.o (symbol from plugin)
mixerUpdateStateFlags                             /tmp/ccjoD88l.ltrans5.ltrans.o
                                                  obj/main/OPENDRONEBRH/flight/mixer.o (symbol from plugin)
                                                  /tmp/ccjoD88l.ltrans2.ltrans.o
                                                  /tmp/ccjoD88l.ltrans1.ltrans.o
                                                  obj/main/OPENDRONEBRH/fc/fc_msp.o (symbol from plugin)
                                                  obj/main/OPENDRONEBRH/fc/fc_init.o (symbol from plugin)
mixerUsePWMIOConfiguration                        obj/main/OPENDRONEBRH/flight/mixer.o (symbol from plugin)
                                                  obj/main/OPENDRONEBRH/fc/fc_init.o (symbol from plugin)
mixerUsesServos.lto_priv.471                      /tmp/ccjoD88l.ltrans0.ltrans.o
                                                  /tmp/ccjoD88l.ltrans1.ltrans.o
modeActivationConditions_CopyArray                /tmp/ccjoD88l.ltrans4.ltrans.o
                                                  obj/main/OPENDRONEBRH/fc/rc_modes.o (symbol from plugin)
                                                  /tmp/ccjoD88l.ltrans0.ltrans.o
                                                  obj/main/OPENDRONEBRH/fc/cli.o (symbol from plugin)
modeActivationConditions_Registry                 /tmp/ccjoD88l.ltrans4.ltrans.o
                                                  obj/main/OPENDRONEBRH/fc/rc_modes.o (symbol from plugin)
modeActivationConditions_SystemArray              /tmp/ccjoD88l.ltrans4.ltrans.o
                                                  obj/main/OPENDRONEBRH/fc/rc_modes.o (symbol from plugin)
                                                  /tmp/ccjoD88l.ltrans5.ltrans.o
                                                  /tmp/ccjoD88l.ltrans2.ltrans.o
                                                  /tmp/ccjoD88l.ltrans0.ltrans.o
                                                  obj/main/OPENDRONEBRH/rx/rx.o (symbol from plugin)
                                                  obj/main/OPENDRONEBRH/fc/fc_msp.o (symbol from plugin)
                                                  obj/main/OPENDRONEBRH/fc/cli.o (symbol from plugin)
modeActivationOperatorConfig_Copy                 obj/main/OPENDRONEBRH/fc/rc_modes.o (symbol from plugin)
modeActivationOperatorConfig_Registry             /tmp/ccjoD88l.ltrans0.ltrans.o
                                                  obj/main/OPENDRONEBRH/fc/rc_modes.o (symbol from plugin)
modeActivationOperatorConfig_System               obj/main/OPENDRONEBRH/fc/rc_modes.o (symbol from plugin)
motor                                             /tmp/ccjoD88l.ltrans5.ltrans.o
                                                  obj/main/OPENDRONEBRH/flight/mixer.o (symbol from plugin)
                                                  /tmp/ccjoD88l.ltrans2.ltrans.o
                                                  /tmp/ccjoD88l.ltrans0.ltrans.o
                                                  obj/main/OPENDRONEBRH/flight/servos.o (symbol from plugin)
                                                  obj/main/OPENDRONEBRH/fc/fc_msp.o (symbol from plugin)
motorConfig_Copy                                  obj/main/OPENDRONEBRH/flight/mixer.o (symbol from plugin)
motorConfig_Registry                              /tmp/ccjoD88l.ltrans5.ltrans.o
                                                  obj/main/OPENDRONEBRH/flight/mixer.o (symbol from plugin)
motorConfig_System                                /tmp/ccjoD88l.ltrans5.ltrans.o
                                                  obj/main/OPENDRONEBRH/flight/mixer.o (symbol from plugin)
                                                  /tmp/ccjoD88l.ltrans3.ltrans.o
                                                  /tmp/ccjoD88l.ltrans2.ltrans.o
                                                  /tmp/ccjoD88l.ltrans1.ltrans.o
                                                  /tmp/ccjoD88l.ltrans0.ltrans.o
                                                  obj/main/OPENDRONEBRH/flight/pid.o (symbol from plugin)
                                                  obj/main/OPENDRONEBRH/flight/failsafe.o (symbol from plugin)
                                                  obj/main/OPENDRONEBRH/fc/rc_curves.o (symbol from plugin)
                                                  obj/main/OPENDRONEBRH/fc/fc_msp.o (symbol from plugin)
                                                  obj/main/OPENDRONEBRH/fc/fc_init.o (symbol from plugin)
                                                  obj/main/OPENDRONEBRH/fc/fc_core.o (symbol from plugin)
                                                  obj/main/OPENDRONEBRH/fc/config.o (symbol from plugin)
                                                  obj/main/OPENDRONEBRH/navigation/navigation_multicopter.o (symbol from plugin)
                                                  obj/main/OPENDRONEBRH/navigation/navigation_fw_launch.o (symbol from plugin)
                                                  obj/main/OPENDRONEBRH/navigation/navigation_fixedwing.o (symbol from plugin)
motorControlEnable                                /tmp/ccjoD88l.ltrans0.ltrans.o
                                                  obj/main/OPENDRONEBRH/fc/fc_core.o (symbol from plugin)
                                                  /tmp/ccjoD88l.ltrans1.ltrans.o
                                                  obj/main/OPENDRONEBRH/fc/fc_init.o (symbol from plugin)
motorCount.lto_priv.276                           /tmp/ccjoD88l.ltrans5.ltrans.o
                                                  /tmp/ccjoD88l.ltrans2.ltrans.o
                                                  /tmp/ccjoD88l.ltrans1.ltrans.o
                                                  /tmp/ccjoD88l.ltrans0.ltrans.o
motor_disarmed                                    /tmp/ccjoD88l.ltrans5.ltrans.o
                                                  obj/main/OPENDRONEBRH/flight/mixer.o (symbol from plugin)
                                                  /tmp/ccjoD88l.ltrans2.ltrans.o
                                                  /tmp/ccjoD88l.ltrans0.ltrans.o
                                                  obj/main/OPENDRONEBRH/fc/fc_msp.o (symbol from plugin)
                                                  obj/main/OPENDRONEBRH/fc/cli.o (symbol from plugin)
motors.lto_priv.277                               /tmp/ccjoD88l.ltrans5.ltrans.o
                                                  /tmp/ccjoD88l.ltrans2.ltrans.o
                                                  /tmp/ccjoD88l.ltrans1.ltrans.o
                                                  /tmp/ccjoD88l.ltrans0.ltrans.o
mpu6500AccAndGyroInit.lto_priv.469                /tmp/ccjoD88l.ltrans3.ltrans.o
                                                  /tmp/ccjoD88l.ltrans1.ltrans.o
mpu6500AccDetect                                  obj/main/OPENDRONEBRH/drivers/accgyro/accgyro_mpu6500.o (symbol from plugin)
                                                  obj/main/OPENDRONEBRH/sensors/acceleration.o (symbol from plugin)
mpu6500AccInit.lto_priv.210                       /tmp/ccjoD88l.ltrans3.ltrans.o
                                                  /tmp/ccjoD88l.ltrans4.ltrans.o
mpu6500GyroDetect                                 obj/main/OPENDRONEBRH/drivers/accgyro/accgyro_mpu6500.o (symbol from plugin)
                                                  obj/main/OPENDRONEBRH/sensors/gyro.o (symbol from plugin)
mpuAccReadScratchpad                              /tmp/ccjoD88l.ltrans3.ltrans.o
                                                  obj/main/OPENDRONEBRH/drivers/accgyro/accgyro_mpu.o (symbol from plugin)
                                                  /tmp/ccjoD88l.ltrans4.ltrans.o
                                                  obj/main/OPENDRONEBRH/drivers/accgyro/accgyro_mpu6500.o (symbol from plugin)
mpuChooseGyroConfig                               obj/main/OPENDRONEBRH/drivers/accgyro/accgyro_mpu.o (symbol from plugin)
                                                  obj/main/OPENDRONEBRH/drivers/accgyro/accgyro_mpu6500.o (symbol from plugin)
mpuGyroRead                                       obj/main/OPENDRONEBRH/drivers/accgyro/accgyro_mpu.o (symbol from plugin)
mpuGyroReadScratchpad                             /tmp/ccjoD88l.ltrans3.ltrans.o
                                                  obj/main/OPENDRONEBRH/drivers/accgyro/accgyro_mpu.o (symbol from plugin)
                                                  /tmp/ccjoD88l.ltrans1.ltrans.o
                                                  obj/main/OPENDRONEBRH/drivers/accgyro/accgyro_mpu6500.o (symbol from plugin)
mpuTemperatureReadScratchpad                      /tmp/ccjoD88l.ltrans3.ltrans.o
                                                  obj/main/OPENDRONEBRH/drivers/accgyro/accgyro_mpu.o (symbol from plugin)
                                                  /tmp/ccjoD88l.ltrans1.ltrans.o
                                                  obj/main/OPENDRONEBRH/drivers/accgyro/accgyro_mpu6500.o (symbol from plugin)
ms5611Detect                                      obj/main/OPENDRONEBRH/drivers/barometer/barometer_ms56xx.o (symbol from plugin)
                                                  obj/main/OPENDRONEBRH/sensors/barometer.o (symbol from plugin)
ms5611_calculate.lto_priv.213                     /tmp/ccjoD88l.ltrans3.ltrans.o
                                                  /tmp/ccjoD88l.ltrans4.ltrans.o
ms56xx_c.lto_priv.525                             /tmp/ccjoD88l.ltrans4.ltrans.o
                                                  /tmp/ccjoD88l.ltrans3.ltrans.o
ms56xx_get_up.lto_priv.217                        /tmp/ccjoD88l.ltrans3.ltrans.o
                                                  /tmp/ccjoD88l.ltrans4.ltrans.o
ms56xx_get_ut.lto_priv.215                        /tmp/ccjoD88l.ltrans3.ltrans.o
                                                  /tmp/ccjoD88l.ltrans4.ltrans.o
ms56xx_start_up.lto_priv.216                      /tmp/ccjoD88l.ltrans3.ltrans.o
                                                  /tmp/ccjoD88l.ltrans4.ltrans.o
ms56xx_start_ut.lto_priv.214                      /tmp/ccjoD88l.ltrans3.ltrans.o
                                                  /tmp/ccjoD88l.ltrans4.ltrans.o
mspFcInit                                         obj/main/OPENDRONEBRH/fc/fc_msp.o (symbol from plugin)
                                                  obj/main/OPENDRONEBRH/fc/fc_init.o (symbol from plugin)
mspFcProcessCommand                               /tmp/ccjoD88l.ltrans2.ltrans.o
                                                  obj/main/OPENDRONEBRH/fc/fc_msp.o (symbol from plugin)
                                                  /tmp/ccjoD88l.ltrans4.ltrans.o
                                                  /tmp/ccjoD88l.ltrans1.ltrans.o
                                                  obj/main/OPENDRONEBRH/fc/fc_tasks.o (symbol from plugin)
                                                  obj/main/OPENDRONEBRH/telemetry/msp_shared.o (symbol from plugin)
mspFrame.lto_priv.270                             /tmp/ccjoD88l.ltrans4.ltrans.o
                                                  /tmp/ccjoD88l.ltrans2.ltrans.o
mspPackage.lto_priv.507                           /tmp/ccjoD88l.ltrans1.ltrans.o
                                                  /tmp/ccjoD88l.ltrans3.ltrans.o
mspPorts.lto_priv.287                             /tmp/ccjoD88l.ltrans4.ltrans.o
                                                  /tmp/ccjoD88l.ltrans2.ltrans.o
                                                  /tmp/ccjoD88l.ltrans1.ltrans.o
                                                  /tmp/ccjoD88l.ltrans0.ltrans.o
mspSerialAllocatePorts                            /tmp/ccjoD88l.ltrans4.ltrans.o
                                                  obj/main/OPENDRONEBRH/msp/msp_serial.o (symbol from plugin)
                                                  /tmp/ccjoD88l.ltrans1.ltrans.o
                                                  /tmp/ccjoD88l.ltrans0.ltrans.o
                                                  obj/main/OPENDRONEBRH/fc/fc_core.o (symbol from plugin)
mspSerialEncode.lto_priv.501                      /tmp/ccjoD88l.ltrans4.ltrans.o
                                                  /tmp/ccjoD88l.ltrans1.ltrans.o
mspSerialInit                                     obj/main/OPENDRONEBRH/msp/msp_serial.o (symbol from plugin)
                                                  obj/main/OPENDRONEBRH/fc/fc_init.o (symbol from plugin)
mspSerialPortFind                                 obj/main/OPENDRONEBRH/msp/msp_serial.o (symbol from plugin)
                                                  obj/main/OPENDRONEBRH/build/debug.o (symbol from plugin)
mspSerialProcess                                  obj/main/OPENDRONEBRH/msp/msp_serial.o (symbol from plugin)
                                                  obj/main/OPENDRONEBRH/fc/fc_tasks.o (symbol from plugin)
mspSerialProcessReceivedCommand.constprop.14      /tmp/ccjoD88l.ltrans4.ltrans.o
                                                  /tmp/ccjoD88l.ltrans2.ltrans.o
mspSerialPush                                     obj/main/OPENDRONEBRH/msp/msp_serial.o (symbol from plugin)
mspSerialPushPort                                 obj/main/OPENDRONEBRH/msp/msp_serial.o (symbol from plugin)
                                                  obj/main/OPENDRONEBRH/build/debug.o (symbol from plugin)
mspSerialReleasePortIfAllocated                   obj/main/OPENDRONEBRH/msp/msp_serial.o (symbol from plugin)
                                                  obj/main/OPENDRONEBRH/fc/fc_core.o (symbol from plugin)
mspSerialTxBytesFree                              obj/main/OPENDRONEBRH/msp/msp_serial.o (symbol from plugin)
mwArm                                             obj/main/OPENDRONEBRH/fc/fc_core.o (symbol from plugin)
                                                  obj/main/OPENDRONEBRH/fc/rc_controls.o (symbol from plugin)
mwDisarm                                          /tmp/ccjoD88l.ltrans0.ltrans.o
                                                  obj/main/OPENDRONEBRH/fc/fc_core.o (symbol from plugin)
                                                  /tmp/ccjoD88l.ltrans3.ltrans.o
                                                  obj/main/OPENDRONEBRH/flight/failsafe.o (symbol from plugin)
                                                  obj/main/OPENDRONEBRH/fc/rc_controls.o (symbol from plugin)
                                                  obj/main/OPENDRONEBRH/navigation/navigation.o (symbol from plugin)
navConfig_Copy                                    obj/main/OPENDRONEBRH/navigation/navigation.o (symbol from plugin)
navConfig_Registry                                /tmp/ccjoD88l.ltrans2.ltrans.o
                                                  obj/main/OPENDRONEBRH/navigation/navigation.o (symbol from plugin)
navConfig_System                                  /tmp/ccjoD88l.ltrans2.ltrans.o
                                                  obj/main/OPENDRONEBRH/navigation/navigation.o (symbol from plugin)
                                                  /tmp/ccjoD88l.ltrans3.ltrans.o
                                                  /tmp/ccjoD88l.ltrans0.ltrans.o
                                                  obj/main/OPENDRONEBRH/fc/rc_adjustments.o (symbol from plugin)
                                                  obj/main/OPENDRONEBRH/fc/fc_msp.o (symbol from plugin)
                                                  obj/main/OPENDRONEBRH/fc/config.o (symbol from plugin)
                                                  obj/main/OPENDRONEBRH/navigation/navigation_multicopter.o (symbol from plugin)
                                                  obj/main/OPENDRONEBRH/navigation/navigation_fw_launch.o (symbol from plugin)
                                                  obj/main/OPENDRONEBRH/navigation/navigation_fixedwing.o (symbol from plugin)
navFSM.lto_priv.522                               /tmp/ccjoD88l.ltrans0.ltrans.o
                                                  /tmp/ccjoD88l.ltrans3.ltrans.o
navGetCurrentStateFlags                           obj/main/OPENDRONEBRH/navigation/navigation.o (symbol from plugin)
                                                  obj/main/OPENDRONEBRH/navigation/navigation_multicopter.o (symbol from plugin)
navIsCalibrationComplete                          obj/main/OPENDRONEBRH/navigation/navigation_pos_estimator.o (symbol from plugin)
                                                  obj/main/OPENDRONEBRH/fc/fc_core.o (symbol from plugin)
navOnEnteringState_NAV_STATE_ALTHOLD_INITIALIZE.lto_priv.384 /tmp/ccjoD88l.ltrans3.ltrans.o
                                                  /tmp/ccjoD88l.ltrans0.ltrans.o
navOnEnteringState_NAV_STATE_ALTHOLD_IN_PROGRESS.lto_priv.385 /tmp/ccjoD88l.ltrans3.ltrans.o
                                                  /tmp/ccjoD88l.ltrans0.ltrans.o
navOnEnteringState_NAV_STATE_EMERGENCY_LANDING_FINISHED.lto_priv.406 /tmp/ccjoD88l.ltrans3.ltrans.o
                                                  /tmp/ccjoD88l.ltrans0.ltrans.o
navOnEnteringState_NAV_STATE_EMERGENCY_LANDING_INITIALIZE.lto_priv.404 /tmp/ccjoD88l.ltrans3.ltrans.o
                                                  /tmp/ccjoD88l.ltrans0.ltrans.o
navOnEnteringState_NAV_STATE_EMERGENCY_LANDING_IN_PROGRESS.lto_priv.405 /tmp/ccjoD88l.ltrans3.ltrans.o
                                                  /tmp/ccjoD88l.ltrans0.ltrans.o
navOnEnteringState_NAV_STATE_IDLE.lto_priv.383    /tmp/ccjoD88l.ltrans3.ltrans.o
                                                  /tmp/ccjoD88l.ltrans0.ltrans.o
navOnEnteringState_NAV_STATE_LAUNCH_INITIALIZE.lto_priv.407 /tmp/ccjoD88l.ltrans3.ltrans.o
                                                  /tmp/ccjoD88l.ltrans0.ltrans.o
navOnEnteringState_NAV_STATE_LAUNCH_IN_PROGRESS.lto_priv.409 /tmp/ccjoD88l.ltrans3.ltrans.o
                                                  /tmp/ccjoD88l.ltrans0.ltrans.o
navOnEnteringState_NAV_STATE_LAUNCH_WAIT.lto_priv.408 /tmp/ccjoD88l.ltrans3.ltrans.o
                                                  /tmp/ccjoD88l.ltrans0.ltrans.o
navOnEnteringState_NAV_STATE_POSHOLD_2D_INITIALIZE.lto_priv.386 /tmp/ccjoD88l.ltrans3.ltrans.o
                                                  /tmp/ccjoD88l.ltrans0.ltrans.o
navOnEnteringState_NAV_STATE_POSHOLD_2D_IN_PROGRESS.lto_priv.387 /tmp/ccjoD88l.ltrans3.ltrans.o
                                                  /tmp/ccjoD88l.ltrans0.ltrans.o
navOnEnteringState_NAV_STATE_POSHOLD_3D_INITIALIZE.lto_priv.388 /tmp/ccjoD88l.ltrans3.ltrans.o
                                                  /tmp/ccjoD88l.ltrans0.ltrans.o
navOnEnteringState_NAV_STATE_POSHOLD_3D_IN_PROGRESS.lto_priv.389 /tmp/ccjoD88l.ltrans3.ltrans.o
                                                  /tmp/ccjoD88l.ltrans0.ltrans.o
navOnEnteringState_NAV_STATE_RTH_CLIMB_TO_SAFE_ALT.lto_priv.391 /tmp/ccjoD88l.ltrans3.ltrans.o
                                                  /tmp/ccjoD88l.ltrans0.ltrans.o
navOnEnteringState_NAV_STATE_RTH_FINISHED.lto_priv.396 /tmp/ccjoD88l.ltrans3.ltrans.o
                                                  /tmp/ccjoD88l.ltrans0.ltrans.o
navOnEnteringState_NAV_STATE_RTH_FINISHING.lto_priv.395 /tmp/ccjoD88l.ltrans3.ltrans.o
                                                  /tmp/ccjoD88l.ltrans0.ltrans.o
navOnEnteringState_NAV_STATE_RTH_HEAD_HOME.lto_priv.392 /tmp/ccjoD88l.ltrans3.ltrans.o
                                                  /tmp/ccjoD88l.ltrans0.ltrans.o
navOnEnteringState_NAV_STATE_RTH_HOVER_PRIOR_TO_LANDING.lto_priv.393 /tmp/ccjoD88l.ltrans3.ltrans.o
                                                  /tmp/ccjoD88l.ltrans0.ltrans.o
navOnEnteringState_NAV_STATE_RTH_INITIALIZE.lto_priv.390 /tmp/ccjoD88l.ltrans3.ltrans.o
                                                  /tmp/ccjoD88l.ltrans0.ltrans.o
navOnEnteringState_NAV_STATE_RTH_LANDING.lto_priv.394 /tmp/ccjoD88l.ltrans3.ltrans.o
                                                  /tmp/ccjoD88l.ltrans0.ltrans.o
navOnEnteringState_NAV_STATE_WAYPOINT_FINISHED.lto_priv.402 /tmp/ccjoD88l.ltrans3.ltrans.o
                                                  /tmp/ccjoD88l.ltrans0.ltrans.o
navOnEnteringState_NAV_STATE_WAYPOINT_INITIALIZE.lto_priv.397 /tmp/ccjoD88l.ltrans3.ltrans.o
                                                  /tmp/ccjoD88l.ltrans0.ltrans.o
navOnEnteringState_NAV_STATE_WAYPOINT_IN_PROGRESS.lto_priv.399 /tmp/ccjoD88l.ltrans3.ltrans.o
                                                  /tmp/ccjoD88l.ltrans0.ltrans.o
navOnEnteringState_NAV_STATE_WAYPOINT_NEXT.lto_priv.401 /tmp/ccjoD88l.ltrans3.ltrans.o
                                                  /tmp/ccjoD88l.ltrans0.ltrans.o
navOnEnteringState_NAV_STATE_WAYPOINT_PRE_ACTION.lto_priv.398 /tmp/ccjoD88l.ltrans3.ltrans.o
                                                  /tmp/ccjoD88l.ltrans0.ltrans.o
navOnEnteringState_NAV_STATE_WAYPOINT_REACHED.lto_priv.400 /tmp/ccjoD88l.ltrans3.ltrans.o
                                                  /tmp/ccjoD88l.ltrans0.ltrans.o
navOnEnteringState_NAV_STATE_WAYPOINT_RTH_LAND.lto_priv.403 /tmp/ccjoD88l.ltrans3.ltrans.o
                                                  /tmp/ccjoD88l.ltrans0.ltrans.o
navPInit                                          obj/main/OPENDRONEBRH/navigation/navigation.o (symbol from plugin)
navPidApply2                                      obj/main/OPENDRONEBRH/navigation/navigation.o (symbol from plugin)
                                                  obj/main/OPENDRONEBRH/navigation/navigation_multicopter.o (symbol from plugin)
                                                  obj/main/OPENDRONEBRH/navigation/navigation_fixedwing.o (symbol from plugin)
navPidApply3                                      obj/main/OPENDRONEBRH/navigation/navigation.o (symbol from plugin)
                                                  obj/main/OPENDRONEBRH/navigation/navigation_fixedwing.o (symbol from plugin)
navPidApply3.constprop.138                        /tmp/ccjoD88l.ltrans4.ltrans.o
                                                  /tmp/ccjoD88l.ltrans3.ltrans.o
                                                  /tmp/ccjoD88l.ltrans0.ltrans.o
navPidInit                                        obj/main/OPENDRONEBRH/navigation/navigation.o (symbol from plugin)
navPidReset                                       obj/main/OPENDRONEBRH/navigation/navigation.o (symbol from plugin)
                                                  obj/main/OPENDRONEBRH/navigation/navigation_multicopter.o (symbol from plugin)
                                                  obj/main/OPENDRONEBRH/navigation/navigation_fixedwing.o (symbol from plugin)
navProcessFSMEvents.lto_priv.433                  /tmp/ccjoD88l.ltrans3.ltrans.o
                                                  /tmp/ccjoD88l.ltrans0.ltrans.o
navigationBlockArming                             obj/main/OPENDRONEBRH/navigation/navigation.o (symbol from plugin)
                                                  obj/main/OPENDRONEBRH/fc/fc_core.o (symbol from plugin)
navigationGetHeadingControlState                  obj/main/OPENDRONEBRH/navigation/navigation.o (symbol from plugin)
                                                  obj/main/OPENDRONEBRH/flight/pid.o (symbol from plugin)
navigationInit                                    obj/main/OPENDRONEBRH/navigation/navigation.o (symbol from plugin)
                                                  obj/main/OPENDRONEBRH/fc/fc_init.o (symbol from plugin)
navigationIsControllingThrottle                   obj/main/OPENDRONEBRH/navigation/navigation.o (symbol from plugin)
navigationIsFlyingAutonomousMode                  obj/main/OPENDRONEBRH/navigation/navigation.o (symbol from plugin)
                                                  obj/main/OPENDRONEBRH/flight/mixer.o (symbol from plugin)
navigationPositionEstimateIsHealthy               obj/main/OPENDRONEBRH/navigation/navigation.o (symbol from plugin)
                                                  obj/main/OPENDRONEBRH/fc/fc_core.o (symbol from plugin)
navigationRTHAllowsLanding                        obj/main/OPENDRONEBRH/navigation/navigation.o (symbol from plugin)
navigationRequiresAngleMode                       /tmp/ccjoD88l.ltrans3.ltrans.o
                                                  obj/main/OPENDRONEBRH/navigation/navigation.o (symbol from plugin)
                                                  /tmp/ccjoD88l.ltrans0.ltrans.o
                                                  obj/main/OPENDRONEBRH/fc/fc_core.o (symbol from plugin)
navigationRequiresThrottleTiltCompensation        obj/main/OPENDRONEBRH/navigation/navigation.o (symbol from plugin)
                                                  obj/main/OPENDRONEBRH/fc/fc_core.o (symbol from plugin)
navigationRequiresTurnAssistance                  obj/main/OPENDRONEBRH/navigation/navigation.o (symbol from plugin)
                                                  obj/main/OPENDRONEBRH/flight/pid.o (symbol from plugin)
navigationUsePIDs                                 /tmp/ccjoD88l.ltrans3.ltrans.o
                                                  obj/main/OPENDRONEBRH/navigation/navigation.o (symbol from plugin)
                                                  /tmp/ccjoD88l.ltrans2.ltrans.o
                                                  /tmp/ccjoD88l.ltrans1.ltrans.o
                                                  /tmp/ccjoD88l.ltrans0.ltrans.o
                                                  obj/main/OPENDRONEBRH/fc/fc_msp.o (symbol from plugin)
                                                  obj/main/OPENDRONEBRH/fc/config.o (symbol from plugin)
needRelease                                       obj/main/OPENDRONEBRH/io/rcdevice_cam.o (symbol from plugin)
nonVolatileWaypointList_CopyArray                 obj/main/OPENDRONEBRH/navigation/navigation.o (symbol from plugin)
nonVolatileWaypointList_Registry                  /tmp/ccjoD88l.ltrans3.ltrans.o
                                                  obj/main/OPENDRONEBRH/navigation/navigation.o (symbol from plugin)
nonVolatileWaypointList_SystemArray               obj/main/OPENDRONEBRH/navigation/navigation.o (symbol from plugin)
nopConsumer.lto_priv.209                          /tmp/ccjoD88l.ltrans5.ltrans.o
notchFilter1.lto_priv.467                         /tmp/ccjoD88l.ltrans0.ltrans.o
                                                  /tmp/ccjoD88l.ltrans1.ltrans.o
notchFilter1ApplyFn.lto_priv.464                  /tmp/ccjoD88l.ltrans0.ltrans.o
                                                  /tmp/ccjoD88l.ltrans1.ltrans.o
notchFilter2.lto_priv.468                         /tmp/ccjoD88l.ltrans0.ltrans.o
                                                  /tmp/ccjoD88l.ltrans1.ltrans.o
notchFilter2ApplyFn.lto_priv.465                  /tmp/ccjoD88l.ltrans0.ltrans.o
                                                  /tmp/ccjoD88l.ltrans1.ltrans.o
notchFilterApplyFn.lto_priv.361                   /tmp/ccjoD88l.ltrans5.ltrans.o
                                                  /tmp/ccjoD88l.ltrans0.ltrans.o
nullFilterApply                                   /tmp/ccjoD88l.ltrans1.ltrans.o
                                                  obj/main/OPENDRONEBRH/common/filter.o (symbol from plugin)
                                                  /tmp/ccjoD88l.ltrans5.ltrans.o
                                                  /tmp/ccjoD88l.ltrans4.ltrans.o
                                                  obj/main/OPENDRONEBRH/sensors/gyro.o (symbol from plugin)
                                                  obj/main/OPENDRONEBRH/sensors/acceleration.o (symbol from plugin)
                                                  obj/main/OPENDRONEBRH/flight/pid.o (symbol from plugin)
onNewGPSData                                      /tmp/ccjoD88l.ltrans3.ltrans.o
                                                  obj/main/OPENDRONEBRH/navigation/navigation_pos_estimator.o (symbol from plugin)
                                                  /tmp/ccjoD88l.ltrans2.ltrans.o
                                                  obj/main/OPENDRONEBRH/fc/fc_msp.o (symbol from plugin)
                                                  obj/main/OPENDRONEBRH/io/gps.o (symbol from plugin)
onSerialRxPinChange                               obj/main/OPENDRONEBRH/drivers/serial_softserial.o (symbol from plugin)
onSerialTimerOverflow                             obj/main/OPENDRONEBRH/drivers/serial_softserial.o (symbol from plugin)
openSerialPort                                    /tmp/ccjoD88l.ltrans5.ltrans.o
                                                  obj/main/OPENDRONEBRH/io/serial.o (symbol from plugin)
                                                  /tmp/ccjoD88l.ltrans4.ltrans.o
                                                  /tmp/ccjoD88l.ltrans1.ltrans.o
                                                  /tmp/ccjoD88l.ltrans0.ltrans.o
                                                  obj/main/OPENDRONEBRH/rx/xbus.o (symbol from plugin)
                                                  obj/main/OPENDRONEBRH/rx/sumh.o (symbol from plugin)
                                                  obj/main/OPENDRONEBRH/rx/sumd.o (symbol from plugin)
                                                  obj/main/OPENDRONEBRH/rx/spektrum.o (symbol from plugin)
                                                  obj/main/OPENDRONEBRH/rx/sbus.o (symbol from plugin)
                                                  obj/main/OPENDRONEBRH/rx/crsf.o (symbol from plugin)
                                                  obj/main/OPENDRONEBRH/rx/jetiexbus.o (symbol from plugin)
                                                  obj/main/OPENDRONEBRH/rx/ibus.o (symbol from plugin)
                                                  obj/main/OPENDRONEBRH/rx/fport.o (symbol from plugin)
                                                  obj/main/OPENDRONEBRH/msp/msp_serial.o (symbol from plugin)
                                                  obj/main/OPENDRONEBRH/io/rcdevice.o (symbol from plugin)
                                                  obj/main/OPENDRONEBRH/fc/cli.o (symbol from plugin)
                                                  obj/main/OPENDRONEBRH/build/debug.o (symbol from plugin)
                                                  obj/main/OPENDRONEBRH/telemetry/smartport.o (symbol from plugin)
                                                  obj/main/OPENDRONEBRH/telemetry/mavlink.o (symbol from plugin)
                                                  obj/main/OPENDRONEBRH/telemetry/ibus.o (symbol from plugin)
                                                  obj/main/OPENDRONEBRH/telemetry/hott.o (symbol from plugin)
                                                  obj/main/OPENDRONEBRH/telemetry/frsky.o (symbol from plugin)
                                                  obj/main/OPENDRONEBRH/io/gps.o (symbol from plugin)
openSoftSerial                                    /tmp/ccjoD88l.ltrans3.ltrans.o
                                                  obj/main/OPENDRONEBRH/drivers/serial_softserial.o (symbol from plugin)
                                                  /tmp/ccjoD88l.ltrans5.ltrans.o
                                                  obj/main/OPENDRONEBRH/io/serial.o (symbol from plugin)
opflow                                            obj/main/OPENDRONEBRH/sensors/opflow.o (symbol from plugin)
orientation                                       /tmp/ccjoD88l.ltrans4.ltrans.o
                                                  obj/main/OPENDRONEBRH/flight/imu.o (symbol from plugin)
                                                  /tmp/ccjoD88l.ltrans5.ltrans.o
                                                  /tmp/ccjoD88l.ltrans1.ltrans.o
outboundBytesToIgnoreOnRxCount.lto_priv.478       /tmp/ccjoD88l.ltrans2.ltrans.o
                                                  /tmp/ccjoD88l.ltrans1.ltrans.o
ownerNames                                        obj/main/OPENDRONEBRH/drivers/resource.o (symbol from plugin)
                                                  obj/main/OPENDRONEBRH/fc/cli.o (symbol from plugin)
pEpInt_IN                                         obj/main/OPENDRONEBRH/vcp/usb_istr.o (symbol from plugin)
                                                  obj/main/OPENDRONEBRH/usb_int.o (symbol from plugin)
pEpInt_OUT                                        obj/main/OPENDRONEBRH/vcp/usb_istr.o (symbol from plugin)
                                                  obj/main/OPENDRONEBRH/usb_int.o (symbol from plugin)
pInformation                                      /tmp/ccjoD88l.ltrans4.ltrans.o
                                                  obj/main/OPENDRONEBRH/usb_init.o (symbol from plugin)
                                                  /tmp/ccjoD88l.ltrans1.ltrans.o
                                                  obj/main/OPENDRONEBRH/vcp/usb_prop.o (symbol from plugin)
                                                  obj/main/OPENDRONEBRH/usb_core.o (symbol from plugin)
pProperty                                         /tmp/ccjoD88l.ltrans4.ltrans.o
                                                  obj/main/OPENDRONEBRH/usb_init.o (symbol from plugin)
                                                  /tmp/ccjoD88l.ltrans1.ltrans.o
                                                  obj/main/OPENDRONEBRH/usb_core.o (symbol from plugin)
pUser_Standard_Requests                           /tmp/ccjoD88l.ltrans4.ltrans.o
                                                  obj/main/OPENDRONEBRH/usb_init.o (symbol from plugin)
                                                  /tmp/ccjoD88l.ltrans1.ltrans.o
                                                  obj/main/OPENDRONEBRH/usb_core.o (symbol from plugin)
packBoxModeFlags                                  /tmp/ccjoD88l.ltrans5.ltrans.o
                                                  obj/main/OPENDRONEBRH/fc/fc_msp_box.o (symbol from plugin)
                                                  /tmp/ccjoD88l.ltrans2.ltrans.o
                                                  obj/main/OPENDRONEBRH/fc/fc_msp.o (symbol from plugin)
packSensorStatus                                  /tmp/ccjoD88l.ltrans5.ltrans.o
                                                  obj/main/OPENDRONEBRH/fc/fc_msp_box.o (symbol from plugin)
                                                  /tmp/ccjoD88l.ltrans2.ltrans.o
                                                  obj/main/OPENDRONEBRH/fc/fc_msp.o (symbol from plugin)
packetSent                                        /tmp/ccjoD88l.ltrans4.ltrans.o
                                                  obj/main/OPENDRONEBRH/vcp/hw_config.o (symbol from plugin)
                                                  /tmp/ccjoD88l.ltrans3.ltrans.o
                                                  obj/main/OPENDRONEBRH/vcp/usb_endp.o (symbol from plugin)
parseRcChannels                                   /tmp/ccjoD88l.ltrans4.ltrans.o
                                                  obj/main/OPENDRONEBRH/rx/rx.o (symbol from plugin)
                                                  /tmp/ccjoD88l.ltrans0.ltrans.o
                                                  obj/main/OPENDRONEBRH/fc/config.o (symbol from plugin)
                                                  obj/main/OPENDRONEBRH/fc/cli.o (symbol from plugin)
pca9685Initialize                                 /tmp/ccjoD88l.ltrans1.ltrans.o
                                                  obj/main/OPENDRONEBRH/drivers/io_pca9685.o (symbol from plugin)
                                                  /tmp/ccjoD88l.ltrans2.ltrans.o
                                                  obj/main/OPENDRONEBRH/io/pwmdriver_i2c.o (symbol from plugin)
pca9685setPWMFreq                                 /tmp/ccjoD88l.ltrans1.ltrans.o
                                                  obj/main/OPENDRONEBRH/drivers/io_pca9685.o (symbol from plugin)
                                                  /tmp/ccjoD88l.ltrans2.ltrans.o
                                                  obj/main/OPENDRONEBRH/io/pwmdriver_i2c.o (symbol from plugin)
pca9685setPWMOff                                  obj/main/OPENDRONEBRH/drivers/io_pca9685.o (symbol from plugin)
pca9685setPWMOn                                   obj/main/OPENDRONEBRH/drivers/io_pca9685.o (symbol from plugin)
pca9685setServoPulse                              /tmp/ccjoD88l.ltrans1.ltrans.o
                                                  obj/main/OPENDRONEBRH/drivers/io_pca9685.o (symbol from plugin)
                                                  /tmp/ccjoD88l.ltrans2.ltrans.o
                                                  obj/main/OPENDRONEBRH/io/pwmdriver_i2c.o (symbol from plugin)
pca9685sync                                       /tmp/ccjoD88l.ltrans1.ltrans.o
                                                  obj/main/OPENDRONEBRH/drivers/io_pca9685.o (symbol from plugin)
                                                  /tmp/ccjoD88l.ltrans2.ltrans.o
                                                  obj/main/OPENDRONEBRH/io/pwmdriver_i2c.o (symbol from plugin)
pgActivateProfile                                 /tmp/ccjoD88l.ltrans1.ltrans.o
                                                  obj/main/OPENDRONEBRH/config/parameter_group.o (symbol from plugin)
                                                  /tmp/ccjoD88l.ltrans0.ltrans.o
                                                  obj/main/OPENDRONEBRH/fc/config.o (symbol from plugin)
pgFind                                            /tmp/ccjoD88l.ltrans1.ltrans.o
                                                  obj/main/OPENDRONEBRH/config/parameter_group.o (symbol from plugin)
                                                  /tmp/ccjoD88l.ltrans5.ltrans.o
                                                  /tmp/ccjoD88l.ltrans0.ltrans.o
                                                  obj/main/OPENDRONEBRH/fc/settings.o (symbol from plugin)
pgLoad                                            obj/main/OPENDRONEBRH/config/parameter_group.o (symbol from plugin)
                                                  obj/main/OPENDRONEBRH/config/config_eeprom.o (symbol from plugin)
pgReset                                           /tmp/ccjoD88l.ltrans1.ltrans.o
                                                  obj/main/OPENDRONEBRH/config/parameter_group.o (symbol from plugin)
                                                  /tmp/ccjoD88l.ltrans0.ltrans.o
                                                  obj/main/OPENDRONEBRH/config/config_eeprom.o (symbol from plugin)
pgResetAll                                        obj/main/OPENDRONEBRH/config/parameter_group.o (symbol from plugin)
                                                  obj/main/OPENDRONEBRH/fc/config.o (symbol from plugin)
pgResetCopy                                       obj/main/OPENDRONEBRH/config/parameter_group.o (symbol from plugin)
                                                  obj/main/OPENDRONEBRH/fc/config.o (symbol from plugin)
                                                  obj/main/OPENDRONEBRH/fc/cli.o (symbol from plugin)
pgResetCurrent                                    obj/main/OPENDRONEBRH/config/parameter_group.o (symbol from plugin)
                                                  obj/main/OPENDRONEBRH/fc/fc_msp.o (symbol from plugin)
pgResetFn_accelerometerConfig                     obj/main/OPENDRONEBRH/sensors/acceleration.o (symbol from plugin)
pgResetFn_controlRateProfiles                     obj/main/OPENDRONEBRH/fc/controlrate_profile.o (symbol from plugin)
pgResetFn_rxChannelRangeConfigs                   obj/main/OPENDRONEBRH/rx/rx.o (symbol from plugin)
pgResetFn_serialConfig                            /tmp/ccjoD88l.ltrans5.ltrans.o
                                                  obj/main/OPENDRONEBRH/io/serial.o (symbol from plugin)
                                                  /tmp/ccjoD88l.ltrans4.ltrans.o
pgResetFn_servoParams                             obj/main/OPENDRONEBRH/flight/servos.o (symbol from plugin)
pgResetInstance.lto_priv.323                      /tmp/ccjoD88l.ltrans1.ltrans.o
                                                  /tmp/ccjoD88l.ltrans2.ltrans.o
                                                  /tmp/ccjoD88l.ltrans0.ltrans.o
pgResetTemplate_adcChannelConfig                  /tmp/ccjoD88l.ltrans0.ltrans.o
                                                  obj/main/OPENDRONEBRH/fc/config.o (symbol from plugin)
pgResetTemplate_armingConfig                      /tmp/ccjoD88l.ltrans2.ltrans.o
                                                  obj/main/OPENDRONEBRH/fc/rc_controls.o (symbol from plugin)
pgResetTemplate_barometerConfig                   /tmp/ccjoD88l.ltrans4.ltrans.o
                                                  obj/main/OPENDRONEBRH/sensors/barometer.o (symbol from plugin)
pgResetTemplate_batteryConfig                     /tmp/ccjoD88l.ltrans4.ltrans.o
                                                  obj/main/OPENDRONEBRH/sensors/battery.o (symbol from plugin)
pgResetTemplate_compassConfig                     /tmp/ccjoD88l.ltrans2.ltrans.o
                                                  obj/main/OPENDRONEBRH/sensors/compass.o (symbol from plugin)
pgResetTemplate_displayConfig                     /tmp/ccjoD88l.ltrans3.ltrans.o
                                                  obj/main/OPENDRONEBRH/drivers/display.o (symbol from plugin)
pgResetTemplate_failsafeConfig                    /tmp/ccjoD88l.ltrans5.ltrans.o
                                                  obj/main/OPENDRONEBRH/flight/failsafe.o (symbol from plugin)
pgResetTemplate_featureConfig                     /tmp/ccjoD88l.ltrans2.ltrans.o
                                                  obj/main/OPENDRONEBRH/fc/config.o (symbol from plugin)
pgResetTemplate_flight3DConfig                    /tmp/ccjoD88l.ltrans5.ltrans.o
                                                  obj/main/OPENDRONEBRH/flight/mixer.o (symbol from plugin)
pgResetTemplate_gpsConfig                         /tmp/ccjoD88l.ltrans2.ltrans.o
                                                  obj/main/OPENDRONEBRH/io/gps.o (symbol from plugin)
pgResetTemplate_gyroConfig                        /tmp/ccjoD88l.ltrans2.ltrans.o
                                                  obj/main/OPENDRONEBRH/sensors/gyro.o (symbol from plugin)
pgResetTemplate_imuConfig                         /tmp/ccjoD88l.ltrans0.ltrans.o
                                                  obj/main/OPENDRONEBRH/flight/imu.o (symbol from plugin)
pgResetTemplate_mixerConfig                       /tmp/ccjoD88l.ltrans5.ltrans.o
                                                  obj/main/OPENDRONEBRH/flight/mixer.o (symbol from plugin)
pgResetTemplate_motorConfig                       /tmp/ccjoD88l.ltrans5.ltrans.o
                                                  obj/main/OPENDRONEBRH/flight/mixer.o (symbol from plugin)
pgResetTemplate_navConfig                         /tmp/ccjoD88l.ltrans2.ltrans.o
                                                  obj/main/OPENDRONEBRH/navigation/navigation.o (symbol from plugin)
pgResetTemplate_pidAutotuneConfig                 /tmp/ccjoD88l.ltrans0.ltrans.o
                                                  obj/main/OPENDRONEBRH/flight/pid_autotune.o (symbol from plugin)
pgResetTemplate_pidProfile                        /tmp/ccjoD88l.ltrans5.ltrans.o
                                                  obj/main/OPENDRONEBRH/flight/pid.o (symbol from plugin)
pgResetTemplate_pitotmeterConfig                  /tmp/ccjoD88l.ltrans4.ltrans.o
                                                  obj/main/OPENDRONEBRH/sensors/pitotmeter.o (symbol from plugin)
pgResetTemplate_positionEstimationConfig          /tmp/ccjoD88l.ltrans2.ltrans.o
                                                  obj/main/OPENDRONEBRH/navigation/navigation_pos_estimator.o (symbol from plugin)
pgResetTemplate_rcControlsConfig                  /tmp/ccjoD88l.ltrans5.ltrans.o
                                                  obj/main/OPENDRONEBRH/fc/rc_controls.o (symbol from plugin)
pgResetTemplate_rxConfig                          /tmp/ccjoD88l.ltrans4.ltrans.o
                                                  obj/main/OPENDRONEBRH/rx/rx.o (symbol from plugin)
pgResetTemplate_servoConfig                       /tmp/ccjoD88l.ltrans2.ltrans.o
                                                  obj/main/OPENDRONEBRH/flight/servos.o (symbol from plugin)
pgResetTemplate_statsConfig                       /tmp/ccjoD88l.ltrans0.ltrans.o
                                                  obj/main/OPENDRONEBRH/fc/stats.o (symbol from plugin)
pgResetTemplate_systemConfig                      /tmp/ccjoD88l.ltrans4.ltrans.o
                                                  obj/main/OPENDRONEBRH/fc/config.o (symbol from plugin)
pgResetTemplate_telemetryConfig                   /tmp/ccjoD88l.ltrans2.ltrans.o
                                                  obj/main/OPENDRONEBRH/telemetry/telemetry.o (symbol from plugin)
pgResetTemplate_timeConfig                        /tmp/ccjoD88l.ltrans2.ltrans.o
                                                  obj/main/OPENDRONEBRH/common/time.o (symbol from plugin)
pgStore                                           obj/main/OPENDRONEBRH/config/parameter_group.o (symbol from plugin)
pidAngleToRcCommand                               /tmp/ccjoD88l.ltrans5.ltrans.o
                                                  obj/main/OPENDRONEBRH/flight/pid.o (symbol from plugin)
                                                  /tmp/ccjoD88l.ltrans3.ltrans.o
                                                  /tmp/ccjoD88l.ltrans0.ltrans.o
                                                  obj/main/OPENDRONEBRH/flight/failsafe.o (symbol from plugin)
                                                  obj/main/OPENDRONEBRH/navigation/navigation_multicopter.o (symbol from plugin)
                                                  obj/main/OPENDRONEBRH/navigation/navigation_fw_launch.o (symbol from plugin)
                                                  obj/main/OPENDRONEBRH/navigation/navigation_fixedwing.o (symbol from plugin)
pidAutotuneConfig_Copy                            obj/main/OPENDRONEBRH/flight/pid_autotune.o (symbol from plugin)
pidAutotuneConfig_Registry                        /tmp/ccjoD88l.ltrans0.ltrans.o
                                                  obj/main/OPENDRONEBRH/flight/pid_autotune.o (symbol from plugin)
pidAutotuneConfig_System                          obj/main/OPENDRONEBRH/flight/pid_autotune.o (symbol from plugin)
pidBank.lto_priv.238.lto_priv.324                 /tmp/ccjoD88l.ltrans5.ltrans.o
                                                  /tmp/ccjoD88l.ltrans2.ltrans.o
pidBank.lto_priv.239.lto_priv.431                 /tmp/ccjoD88l.ltrans5.ltrans.o
                                                  /tmp/ccjoD88l.ltrans0.ltrans.o
pidBank.lto_priv.240.lto_priv.436                 /tmp/ccjoD88l.ltrans5.ltrans.o
                                                  /tmp/ccjoD88l.ltrans0.ltrans.o
pidBank.lto_priv.241.lto_priv.429                 /tmp/ccjoD88l.ltrans5.ltrans.o
                                                  /tmp/ccjoD88l.ltrans0.ltrans.o
pidBankMutable.lto_priv.242.lto_priv.322          /tmp/ccjoD88l.ltrans5.ltrans.o
                                                  /tmp/ccjoD88l.ltrans2.ltrans.o
pidBankMutable.lto_priv.243.lto_priv.430          /tmp/ccjoD88l.ltrans5.ltrans.o
                                                  /tmp/ccjoD88l.ltrans0.ltrans.o
pidController                                     obj/main/OPENDRONEBRH/flight/pid.o (symbol from plugin)
                                                  obj/main/OPENDRONEBRH/fc/fc_core.o (symbol from plugin)
pidGainsUpdateRequired.lto_priv.268               /tmp/ccjoD88l.ltrans5.ltrans.o
                                                  /tmp/ccjoD88l.ltrans2.ltrans.o
                                                  /tmp/ccjoD88l.ltrans0.ltrans.o
pidHeadingHold                                    obj/main/OPENDRONEBRH/flight/pid.o (symbol from plugin)
pidInit                                           obj/main/OPENDRONEBRH/flight/pid.o (symbol from plugin)
                                                  obj/main/OPENDRONEBRH/fc/config.o (symbol from plugin)
pidInitFilters                                    /tmp/ccjoD88l.ltrans5.ltrans.o
                                                  obj/main/OPENDRONEBRH/flight/pid.o (symbol from plugin)
                                                  /tmp/ccjoD88l.ltrans2.ltrans.o
                                                  /tmp/ccjoD88l.ltrans1.ltrans.o
                                                  obj/main/OPENDRONEBRH/fc/fc_msp.o (symbol from plugin)
                                                  obj/main/OPENDRONEBRH/fc/fc_init.o (symbol from plugin)
pidLevel.lto_priv.435                             /tmp/ccjoD88l.ltrans5.ltrans.o
                                                  /tmp/ccjoD88l.ltrans0.ltrans.o
pidProfile_CopyStorage.lto_priv.320               /tmp/ccjoD88l.ltrans5.ltrans.o
pidProfile_ProfileCurrent                         /tmp/ccjoD88l.ltrans5.ltrans.o
                                                  obj/main/OPENDRONEBRH/flight/pid.o (symbol from plugin)
                                                  /tmp/ccjoD88l.ltrans3.ltrans.o
                                                  /tmp/ccjoD88l.ltrans2.ltrans.o
                                                  /tmp/ccjoD88l.ltrans0.ltrans.o
                                                  obj/main/OPENDRONEBRH/flight/pid_autotune.o (symbol from plugin)
                                                  obj/main/OPENDRONEBRH/flight/failsafe.o (symbol from plugin)
                                                  obj/main/OPENDRONEBRH/fc/rc_adjustments.o (symbol from plugin)
                                                  obj/main/OPENDRONEBRH/fc/fc_msp.o (symbol from plugin)
                                                  obj/main/OPENDRONEBRH/fc/config.o (symbol from plugin)
                                                  obj/main/OPENDRONEBRH/navigation/navigation_multicopter.o (symbol from plugin)
                                                  obj/main/OPENDRONEBRH/navigation/navigation_fw_launch.o (symbol from plugin)
                                                  obj/main/OPENDRONEBRH/navigation/navigation_fixedwing.o (symbol from plugin)
                                                  obj/main/OPENDRONEBRH/navigation/navigation.o (symbol from plugin)
pidProfile_Registry                               /tmp/ccjoD88l.ltrans5.ltrans.o
                                                  obj/main/OPENDRONEBRH/flight/pid.o (symbol from plugin)
                                                  /tmp/ccjoD88l.ltrans2.ltrans.o
                                                  obj/main/OPENDRONEBRH/fc/fc_msp.o (symbol from plugin)
pidProfile_Storage.lto_priv.319                   /tmp/ccjoD88l.ltrans5.ltrans.o
pidRateToRcCommand                                obj/main/OPENDRONEBRH/flight/pid.o (symbol from plugin)
                                                  obj/main/OPENDRONEBRH/flight/failsafe.o (symbol from plugin)
                                                  obj/main/OPENDRONEBRH/navigation/navigation_fixedwing.o (symbol from plugin)
pidRcCommandToRate                                obj/main/OPENDRONEBRH/flight/pid.o (symbol from plugin)
pidResetErrorAccumulators                         /tmp/ccjoD88l.ltrans5.ltrans.o
                                                  obj/main/OPENDRONEBRH/flight/pid.o (symbol from plugin)
                                                  /tmp/ccjoD88l.ltrans3.ltrans.o
                                                  /tmp/ccjoD88l.ltrans0.ltrans.o
                                                  obj/main/OPENDRONEBRH/fc/fc_core.o (symbol from plugin)
                                                  obj/main/OPENDRONEBRH/navigation/navigation_fw_launch.o (symbol from plugin)
pidResetTPAFilter                                 obj/main/OPENDRONEBRH/flight/pid.o (symbol from plugin)
                                                  obj/main/OPENDRONEBRH/navigation/navigation_fw_launch.o (symbol from plugin)
pidResetTPAFilter.part.0                          /tmp/ccjoD88l.ltrans5.ltrans.o
                                                  /tmp/ccjoD88l.ltrans3.ltrans.o
                                                  /tmp/ccjoD88l.ltrans0.ltrans.o
pidState.lto_priv.360                             /tmp/ccjoD88l.ltrans5.ltrans.o
                                                  /tmp/ccjoD88l.ltrans0.ltrans.o
pitot                                             /tmp/ccjoD88l.ltrans4.ltrans.o
                                                  obj/main/OPENDRONEBRH/sensors/pitotmeter.o (symbol from plugin)
                                                  /tmp/ccjoD88l.ltrans3.ltrans.o
                                                  /tmp/ccjoD88l.ltrans2.ltrans.o
                                                  /tmp/ccjoD88l.ltrans1.ltrans.o
                                                  /tmp/ccjoD88l.ltrans0.ltrans.o
                                                  obj/main/OPENDRONEBRH/flight/pid.o (symbol from plugin)
                                                  obj/main/OPENDRONEBRH/fc/fc_msp.o (symbol from plugin)
                                                  obj/main/OPENDRONEBRH/telemetry/smartport.o (symbol from plugin)
                                                  obj/main/OPENDRONEBRH/telemetry/mavlink.o (symbol from plugin)
                                                  obj/main/OPENDRONEBRH/telemetry/ibus_shared.o (symbol from plugin)
pitotCalculateAirSpeed                            obj/main/OPENDRONEBRH/sensors/pitotmeter.o (symbol from plugin)
                                                  obj/main/OPENDRONEBRH/navigation/navigation_pos_estimator.o (symbol from plugin)
pitotCalibrationFinished.lto_priv.457             /tmp/ccjoD88l.ltrans0.ltrans.o
                                                  /tmp/ccjoD88l.ltrans3.ltrans.o
                                                  /tmp/ccjoD88l.ltrans1.ltrans.o
pitotCalibrationTimeout.lto_priv.517              /tmp/ccjoD88l.ltrans1.ltrans.o
                                                  /tmp/ccjoD88l.ltrans3.ltrans.o
pitotDetect                                       obj/main/OPENDRONEBRH/sensors/pitotmeter.o (symbol from plugin)
pitotInit                                         obj/main/OPENDRONEBRH/sensors/pitotmeter.o (symbol from plugin)
                                                  obj/main/OPENDRONEBRH/sensors/initialisation.o (symbol from plugin)
pitotIsCalibrationComplete                        obj/main/OPENDRONEBRH/sensors/pitotmeter.o (symbol from plugin)
                                                  obj/main/OPENDRONEBRH/fc/fc_core.o (symbol from plugin)
                                                  obj/main/OPENDRONEBRH/navigation/navigation_pos_estimator.o (symbol from plugin)
pitotIsHealthy                                    obj/main/OPENDRONEBRH/sensors/pitotmeter.o (symbol from plugin)
                                                  obj/main/OPENDRONEBRH/sensors/diagnostics.o (symbol from plugin)
pitotPressure.lto_priv.516                        /tmp/ccjoD88l.ltrans2.ltrans.o
                                                  /tmp/ccjoD88l.ltrans3.ltrans.o
pitotStartCalibration                             obj/main/OPENDRONEBRH/sensors/pitotmeter.o (symbol from plugin)
                                                  obj/main/OPENDRONEBRH/fc/fc_init.o (symbol from plugin)
pitotUpdate                                       obj/main/OPENDRONEBRH/sensors/pitotmeter.o (symbol from plugin)
                                                  obj/main/OPENDRONEBRH/fc/fc_tasks.o (symbol from plugin)
pitotmeterConfig_Copy                             obj/main/OPENDRONEBRH/sensors/pitotmeter.o (symbol from plugin)
pitotmeterConfig_Registry                         /tmp/ccjoD88l.ltrans4.ltrans.o
                                                  obj/main/OPENDRONEBRH/sensors/pitotmeter.o (symbol from plugin)
pitotmeterConfig_System                           /tmp/ccjoD88l.ltrans4.ltrans.o
                                                  obj/main/OPENDRONEBRH/sensors/pitotmeter.o (symbol from plugin)
                                                  /tmp/ccjoD88l.ltrans3.ltrans.o
                                                  /tmp/ccjoD88l.ltrans2.ltrans.o
                                                  /tmp/ccjoD88l.ltrans1.ltrans.o
                                                  obj/main/OPENDRONEBRH/sensors/initialisation.o (symbol from plugin)
                                                  obj/main/OPENDRONEBRH/fc/fc_msp.o (symbol from plugin)
                                                  obj/main/OPENDRONEBRH/fc/fc_init.o (symbol from plugin)
posControl                                        /tmp/ccjoD88l.ltrans4.ltrans.o
                                                  obj/main/OPENDRONEBRH/navigation/navigation.o (symbol from plugin)
                                                  /tmp/ccjoD88l.ltrans3.ltrans.o
                                                  /tmp/ccjoD88l.ltrans2.ltrans.o
                                                  /tmp/ccjoD88l.ltrans1.ltrans.o
                                                  /tmp/ccjoD88l.ltrans0.ltrans.o
                                                  obj/main/OPENDRONEBRH/navigation/navigation_pos_estimator.o (symbol from plugin)
                                                  obj/main/OPENDRONEBRH/navigation/navigation_multicopter.o (symbol from plugin)
                                                  obj/main/OPENDRONEBRH/navigation/navigation_fixedwing.o (symbol from plugin)
posEstimator.lto_priv.372                         /tmp/ccjoD88l.ltrans2.ltrans.o
                                                  /tmp/ccjoD88l.ltrans3.ltrans.o
                                                  /tmp/ccjoD88l.ltrans0.ltrans.o
positionEstimationConfig_Copy                     obj/main/OPENDRONEBRH/navigation/navigation_pos_estimator.o (symbol from plugin)
positionEstimationConfig_Registry                 /tmp/ccjoD88l.ltrans2.ltrans.o
                                                  obj/main/OPENDRONEBRH/navigation/navigation_pos_estimator.o (symbol from plugin)
positionEstimationConfig_System                   /tmp/ccjoD88l.ltrans2.ltrans.o
                                                  obj/main/OPENDRONEBRH/navigation/navigation_pos_estimator.o (symbol from plugin)
                                                  /tmp/ccjoD88l.ltrans3.ltrans.o
                                                  obj/main/OPENDRONEBRH/fc/fc_msp.o (symbol from plugin)
powerMeterUpdate                                  obj/main/OPENDRONEBRH/sensors/battery.o (symbol from plugin)
                                                  obj/main/OPENDRONEBRH/fc/fc_tasks.o (symbol from plugin)
powf                                              /home/ethan/developer/opendrone/tools/gcc-arm-none-eabi-7-2017-q4-major/bin/../lib/gcc/arm-none-eabi/7.2.1/../../../../arm-none-eabi/lib/thumb/v7e-m/fpv4-sp/hard/libm.a(lib_a-sf_pow.o)
                                                  /tmp/ccjoD88l.ltrans2.ltrans.o
                                                  /tmp/ccjoD88l.ltrans1.ltrans.o
ppmAvoidPWMTimerClash                             obj/main/OPENDRONEBRH/drivers/rx_pwm.o (symbol from plugin)
ppmDev                                            obj/main/OPENDRONEBRH/drivers/rx_pwm.o (symbol from plugin)
ppmFrameCount.lto_priv.448                        /tmp/ccjoD88l.ltrans4.ltrans.o
                                                  /tmp/ccjoD88l.ltrans1.ltrans.o
ppmISREvent                                       obj/main/OPENDRONEBRH/drivers/rx_pwm.o (symbol from plugin)
ppmInConfig                                       obj/main/OPENDRONEBRH/drivers/rx_pwm.o (symbol from plugin)
                                                  obj/main/OPENDRONEBRH/drivers/pwm_mapping.o (symbol from plugin)
ppmRead                                           obj/main/OPENDRONEBRH/drivers/rx_pwm.o (symbol from plugin)
                                                  obj/main/OPENDRONEBRH/rx/pwm.o (symbol from plugin)
prepareForNextRxByte                              obj/main/OPENDRONEBRH/drivers/serial_softserial.o (symbol from plugin)
printfSerialPort.lto_priv.453                     /tmp/ccjoD88l.ltrans2.ltrans.o
                                                  /tmp/ccjoD88l.ltrans1.ltrans.o
printfSupportInit                                 obj/main/OPENDRONEBRH/common/printf.o (symbol from plugin)
                                                  obj/main/OPENDRONEBRH/fc/fc_init.o (symbol from plugin)
processMAVLinkTelemetry                           obj/main/OPENDRONEBRH/telemetry/mavlink.o (symbol from plugin)
processRcAdjustments                              obj/main/OPENDRONEBRH/fc/rc_adjustments.o (symbol from plugin)
                                                  obj/main/OPENDRONEBRH/fc/fc_core.o (symbol from plugin)
processRcStickPositions                           obj/main/OPENDRONEBRH/fc/rc_controls.o (symbol from plugin)
                                                  obj/main/OPENDRONEBRH/fc/fc_core.o (symbol from plugin)
processRx                                         obj/main/OPENDRONEBRH/fc/fc_core.o (symbol from plugin)
processRxState                                    obj/main/OPENDRONEBRH/drivers/serial_softserial.o (symbol from plugin)
processServoAutotrim                              obj/main/OPENDRONEBRH/flight/servos.o (symbol from plugin)
                                                  obj/main/OPENDRONEBRH/fc/fc_core.o (symbol from plugin)
processServoTilt                                  obj/main/OPENDRONEBRH/flight/servos.o (symbol from plugin)
                                                  obj/main/OPENDRONEBRH/fc/fc_core.o (symbol from plugin)
processSmartPortTelemetry                         /tmp/ccjoD88l.ltrans1.ltrans.o
                                                  obj/main/OPENDRONEBRH/telemetry/smartport.o (symbol from plugin)
                                                  /tmp/ccjoD88l.ltrans4.ltrans.o
                                                  /tmp/ccjoD88l.ltrans2.ltrans.o
                                                  obj/main/OPENDRONEBRH/rx/fport.o (symbol from plugin)
processTxState                                    obj/main/OPENDRONEBRH/drivers/serial_softserial.o (symbol from plugin)
pt1FilterApply                                    obj/main/OPENDRONEBRH/common/filter.o (symbol from plugin)
pt1FilterApply3                                   obj/main/OPENDRONEBRH/common/filter.o (symbol from plugin)
                                                  obj/main/OPENDRONEBRH/flight/pid.o (symbol from plugin)
pt1FilterApply4                                   /tmp/ccjoD88l.ltrans1.ltrans.o
                                                  obj/main/OPENDRONEBRH/common/filter.o (symbol from plugin)
                                                  /tmp/ccjoD88l.ltrans5.ltrans.o
                                                  /tmp/ccjoD88l.ltrans4.ltrans.o
                                                  /tmp/ccjoD88l.ltrans3.ltrans.o
                                                  /tmp/ccjoD88l.ltrans2.ltrans.o
                                                  /tmp/ccjoD88l.ltrans0.ltrans.o
                                                  obj/main/OPENDRONEBRH/sensors/battery.o (symbol from plugin)
                                                  obj/main/OPENDRONEBRH/flight/pid.o (symbol from plugin)
                                                  obj/main/OPENDRONEBRH/navigation/navigation_multicopter.o (symbol from plugin)
                                                  obj/main/OPENDRONEBRH/navigation/navigation_fixedwing.o (symbol from plugin)
                                                  obj/main/OPENDRONEBRH/navigation/navigation.o (symbol from plugin)
pt1FilterInit                                     obj/main/OPENDRONEBRH/common/filter.o (symbol from plugin)
pt1FilterInitRC                                   obj/main/OPENDRONEBRH/common/filter.o (symbol from plugin)
                                                  obj/main/OPENDRONEBRH/flight/pid.o (symbol from plugin)
pt1FilterReset                                    obj/main/OPENDRONEBRH/common/filter.o (symbol from plugin)
                                                  obj/main/OPENDRONEBRH/flight/pid.o (symbol from plugin)
                                                  obj/main/OPENDRONEBRH/navigation/navigation_multicopter.o (symbol from plugin)
                                                  obj/main/OPENDRONEBRH/navigation/navigation_fixedwing.o (symbol from plugin)
pwmDisableMotors                                  obj/main/OPENDRONEBRH/drivers/pwm_output.o (symbol from plugin)
pwmDriverInitialize                               obj/main/OPENDRONEBRH/io/pwmdriver_i2c.o (symbol from plugin)
                                                  obj/main/OPENDRONEBRH/fc/fc_init.o (symbol from plugin)
pwmDriverSetPulse                                 obj/main/OPENDRONEBRH/io/pwmdriver_i2c.o (symbol from plugin)
                                                  obj/main/OPENDRONEBRH/drivers/pwm_output.o (symbol from plugin)
pwmDriverSync                                     obj/main/OPENDRONEBRH/io/pwmdriver_i2c.o (symbol from plugin)
                                                  obj/main/OPENDRONEBRH/fc/fc_tasks.o (symbol from plugin)
pwmDrivers                                        /tmp/ccjoD88l.ltrans2.ltrans.o
                                                  obj/main/OPENDRONEBRH/io/pwmdriver_i2c.o (symbol from plugin)
pwmEnableMotors                                   obj/main/OPENDRONEBRH/drivers/pwm_output.o (symbol from plugin)
pwmGetOutputConfiguration                         obj/main/OPENDRONEBRH/drivers/pwm_mapping.o (symbol from plugin)
                                                  obj/main/OPENDRONEBRH/flight/mixer.o (symbol from plugin)
pwmICConfig                                       obj/main/OPENDRONEBRH/drivers/rx_pwm.o (symbol from plugin)
pwmInConfig                                       obj/main/OPENDRONEBRH/drivers/rx_pwm.o (symbol from plugin)
                                                  obj/main/OPENDRONEBRH/drivers/pwm_mapping.o (symbol from plugin)
pwmInit                                           obj/main/OPENDRONEBRH/drivers/pwm_mapping.o (symbol from plugin)
                                                  obj/main/OPENDRONEBRH/fc/fc_init.o (symbol from plugin)
pwmMotorConfig                                    obj/main/OPENDRONEBRH/drivers/pwm_output.o (symbol from plugin)
                                                  obj/main/OPENDRONEBRH/drivers/pwm_mapping.o (symbol from plugin)
pwmRead                                           obj/main/OPENDRONEBRH/drivers/rx_pwm.o (symbol from plugin)
                                                  obj/main/OPENDRONEBRH/rx/pwm.o (symbol from plugin)
pwmRxInit                                         obj/main/OPENDRONEBRH/drivers/rx_pwm.o (symbol from plugin)
                                                  obj/main/OPENDRONEBRH/fc/fc_init.o (symbol from plugin)
pwmServoConfig                                    obj/main/OPENDRONEBRH/drivers/pwm_output.o (symbol from plugin)
                                                  obj/main/OPENDRONEBRH/drivers/pwm_mapping.o (symbol from plugin)
pwmShutdownPulsesForAllMotors                     obj/main/OPENDRONEBRH/drivers/pwm_output.o (symbol from plugin)
                                                  obj/main/OPENDRONEBRH/flight/mixer.o (symbol from plugin)
pwmWriteMotor                                     obj/main/OPENDRONEBRH/drivers/pwm_output.o (symbol from plugin)
                                                  obj/main/OPENDRONEBRH/flight/mixer.o (symbol from plugin)
pwmWriteServo                                     /tmp/ccjoD88l.ltrans1.ltrans.o
                                                  obj/main/OPENDRONEBRH/drivers/pwm_output.o (symbol from plugin)
                                                  /tmp/ccjoD88l.ltrans0.ltrans.o
                                                  obj/main/OPENDRONEBRH/flight/servos.o (symbol from plugin)
quaternionMultiply.lto_priv.228                   /tmp/ccjoD88l.ltrans5.ltrans.o
                                                  /tmp/ccjoD88l.ltrans4.ltrans.o
quaternionNormalize.constprop.22                  /tmp/ccjoD88l.ltrans4.ltrans.o
                                                  /tmp/ccjoD88l.ltrans5.ltrans.o
quaternionRotateVector.constprop.124              /tmp/ccjoD88l.ltrans4.ltrans.o
                                                  /tmp/ccjoD88l.ltrans5.ltrans.o
                                                  /tmp/ccjoD88l.ltrans3.ltrans.o
                                                  /tmp/ccjoD88l.ltrans0.ltrans.o
quaternionRotateVectorInv.constprop.125           /tmp/ccjoD88l.ltrans4.ltrans.o
                                                  /tmp/ccjoD88l.ltrans5.ltrans.o
                                                  /tmp/ccjoD88l.ltrans3.ltrans.o
queueAdd.lto_priv.504                             /tmp/ccjoD88l.ltrans4.ltrans.o
                                                  /tmp/ccjoD88l.ltrans1.ltrans.o
quickMedianFilter3                                /tmp/ccjoD88l.ltrans1.ltrans.o
                                                  obj/main/OPENDRONEBRH/common/maths.o (symbol from plugin)
                                                  /tmp/ccjoD88l.ltrans2.ltrans.o
                                                  obj/main/OPENDRONEBRH/sensors/pitotmeter.o (symbol from plugin)
                                                  obj/main/OPENDRONEBRH/sensors/barometer.o (symbol from plugin)
quickMedianFilter3_16                             obj/main/OPENDRONEBRH/common/maths.o (symbol from plugin)
quickMedianFilter5                                obj/main/OPENDRONEBRH/common/maths.o (symbol from plugin)
quickMedianFilter5_16                             obj/main/OPENDRONEBRH/common/maths.o (symbol from plugin)
                                                  obj/main/OPENDRONEBRH/rx/rx.o (symbol from plugin)
quickMedianFilter7                                obj/main/OPENDRONEBRH/common/maths.o (symbol from plugin)
quickMedianFilter9                                obj/main/OPENDRONEBRH/common/maths.o (symbol from plugin)
rangefinder                                       obj/main/OPENDRONEBRH/sensors/rangefinder.o (symbol from plugin)
rateLimitFilterApply4                             obj/main/OPENDRONEBRH/common/filter.o (symbol from plugin)
                                                  obj/main/OPENDRONEBRH/flight/servos.o (symbol from plugin)
                                                  obj/main/OPENDRONEBRH/flight/pid.o (symbol from plugin)
rateLimitFilterInit                               obj/main/OPENDRONEBRH/common/filter.o (symbol from plugin)
rcChannelLetters                                  /tmp/ccjoD88l.ltrans4.ltrans.o
                                                  obj/main/OPENDRONEBRH/rx/rx.o (symbol from plugin)
                                                  /tmp/ccjoD88l.ltrans0.ltrans.o
                                                  obj/main/OPENDRONEBRH/fc/cli.o (symbol from plugin)
rcCommand                                         /tmp/ccjoD88l.ltrans5.ltrans.o
                                                  obj/main/OPENDRONEBRH/fc/rc_controls.o (symbol from plugin)
                                                  /tmp/ccjoD88l.ltrans3.ltrans.o
                                                  /tmp/ccjoD88l.ltrans2.ltrans.o
                                                  /tmp/ccjoD88l.ltrans0.ltrans.o
                                                  obj/main/OPENDRONEBRH/sensors/battery.o (symbol from plugin)
                                                  obj/main/OPENDRONEBRH/flight/servos.o (symbol from plugin)
                                                  obj/main/OPENDRONEBRH/flight/pid.o (symbol from plugin)
                                                  obj/main/OPENDRONEBRH/flight/mixer.o (symbol from plugin)
                                                  obj/main/OPENDRONEBRH/flight/failsafe.o (symbol from plugin)
                                                  obj/main/OPENDRONEBRH/fc/fc_core.o (symbol from plugin)
                                                  obj/main/OPENDRONEBRH/telemetry/ibus_shared.o (symbol from plugin)
                                                  obj/main/OPENDRONEBRH/telemetry/frsky.o (symbol from plugin)
                                                  obj/main/OPENDRONEBRH/navigation/navigation_multicopter.o (symbol from plugin)
                                                  obj/main/OPENDRONEBRH/navigation/navigation_fw_launch.o (symbol from plugin)
                                                  obj/main/OPENDRONEBRH/navigation/navigation_fixedwing.o (symbol from plugin)
rcCommandAdjustedThrottle.lto_priv.524            /tmp/ccjoD88l.ltrans0.ltrans.o
                                                  /tmp/ccjoD88l.ltrans3.ltrans.o
rcControlsConfig_Copy                             obj/main/OPENDRONEBRH/fc/rc_controls.o (symbol from plugin)
rcControlsConfig_Registry                         /tmp/ccjoD88l.ltrans5.ltrans.o
                                                  obj/main/OPENDRONEBRH/fc/rc_controls.o (symbol from plugin)
rcControlsConfig_System                           /tmp/ccjoD88l.ltrans5.ltrans.o
                                                  obj/main/OPENDRONEBRH/fc/rc_controls.o (symbol from plugin)
                                                  /tmp/ccjoD88l.ltrans3.ltrans.o
                                                  /tmp/ccjoD88l.ltrans2.ltrans.o
                                                  /tmp/ccjoD88l.ltrans0.ltrans.o
                                                  obj/main/OPENDRONEBRH/flight/mixer.o (symbol from plugin)
                                                  obj/main/OPENDRONEBRH/fc/fc_msp.o (symbol from plugin)
                                                  obj/main/OPENDRONEBRH/fc/fc_core.o (symbol from plugin)
                                                  obj/main/OPENDRONEBRH/navigation/navigation_multicopter.o (symbol from plugin)
                                                  obj/main/OPENDRONEBRH/navigation/navigation_fixedwing.o (symbol from plugin)
rcData                                            /tmp/ccjoD88l.ltrans4.ltrans.o
                                                  obj/main/OPENDRONEBRH/rx/rx.o (symbol from plugin)
                                                  /tmp/ccjoD88l.ltrans5.ltrans.o
                                                  /tmp/ccjoD88l.ltrans2.ltrans.o
                                                  /tmp/ccjoD88l.ltrans0.ltrans.o
                                                  obj/main/OPENDRONEBRH/io/rcdevice_cam.o (symbol from plugin)
                                                  obj/main/OPENDRONEBRH/flight/servos.o (symbol from plugin)
                                                  obj/main/OPENDRONEBRH/flight/mixer.o (symbol from plugin)
                                                  obj/main/OPENDRONEBRH/flight/failsafe.o (symbol from plugin)
                                                  obj/main/OPENDRONEBRH/fc/rc_modes.o (symbol from plugin)
                                                  obj/main/OPENDRONEBRH/fc/rc_controls.o (symbol from plugin)
                                                  obj/main/OPENDRONEBRH/fc/rc_adjustments.o (symbol from plugin)
                                                  obj/main/OPENDRONEBRH/fc/fc_msp.o (symbol from plugin)
                                                  obj/main/OPENDRONEBRH/fc/fc_core.o (symbol from plugin)
                                                  obj/main/OPENDRONEBRH/telemetry/mavlink.o (symbol from plugin)
rcInvalidPulsPeriod                               /tmp/ccjoD88l.ltrans4.ltrans.o
                                                  obj/main/OPENDRONEBRH/rx/rx.o (symbol from plugin)
                                                  /tmp/ccjoD88l.ltrans0.ltrans.o
rcLookup                                          obj/main/OPENDRONEBRH/fc/rc_curves.o (symbol from plugin)
                                                  obj/main/OPENDRONEBRH/fc/fc_core.o (symbol from plugin)
rcLookupThrottle                                  obj/main/OPENDRONEBRH/fc/rc_curves.o (symbol from plugin)
                                                  obj/main/OPENDRONEBRH/fc/fc_core.o (symbol from plugin)
rcLookupThrottleMid                               obj/main/OPENDRONEBRH/fc/rc_curves.o (symbol from plugin)
                                                  obj/main/OPENDRONEBRH/navigation/navigation_multicopter.o (symbol from plugin)
rcModeActivationMask                              /tmp/ccjoD88l.ltrans5.ltrans.o
                                                  obj/main/OPENDRONEBRH/fc/rc_modes.o (symbol from plugin)
                                                  /tmp/ccjoD88l.ltrans0.ltrans.o
rcModeUpdate                                      obj/main/OPENDRONEBRH/fc/rc_modes.o (symbol from plugin)
rcRaw                                             obj/main/OPENDRONEBRH/rx/rx.o (symbol from plugin)
rcSampleIndex.lto_priv.354                        /tmp/ccjoD88l.ltrans4.ltrans.o
                                                  /tmp/ccjoD88l.ltrans0.ltrans.o
rcStickPositions                                  obj/main/OPENDRONEBRH/fc/rc_controls.o (symbol from plugin)
rcdeviceInMenu                                    obj/main/OPENDRONEBRH/io/rcdevice_cam.o (symbol from plugin)
rcdeviceInit                                      obj/main/OPENDRONEBRH/io/rcdevice_cam.o (symbol from plugin)
                                                  obj/main/OPENDRONEBRH/fc/fc_init.o (symbol from plugin)
rcdeviceIsCameraControlEnabled.lto_priv.502       /tmp/ccjoD88l.ltrans4.ltrans.o
                                                  /tmp/ccjoD88l.ltrans1.ltrans.o
rcdeviceIsEnabled                                 obj/main/OPENDRONEBRH/io/rcdevice_cam.o (symbol from plugin)
                                                  obj/main/OPENDRONEBRH/fc/fc_tasks.o (symbol from plugin)
rcdeviceUpdate                                    obj/main/OPENDRONEBRH/io/rcdevice_cam.o (symbol from plugin)
                                                  obj/main/OPENDRONEBRH/fc/fc_tasks.o (symbol from plugin)
readEEPROM                                        /tmp/ccjoD88l.ltrans0.ltrans.o
                                                  obj/main/OPENDRONEBRH/fc/config.o (symbol from plugin)
                                                  /tmp/ccjoD88l.ltrans2.ltrans.o
                                                  /tmp/ccjoD88l.ltrans1.ltrans.o
                                                  obj/main/OPENDRONEBRH/fc/fc_msp.o (symbol from plugin)
                                                  obj/main/OPENDRONEBRH/fc/fc_init.o (symbol from plugin)
receiveBuffer                                     /tmp/ccjoD88l.ltrans4.ltrans.o
                                                  obj/main/OPENDRONEBRH/vcp/hw_config.o (symbol from plugin)
                                                  /tmp/ccjoD88l.ltrans3.ltrans.o
                                                  obj/main/OPENDRONEBRH/vcp/usb_endp.o (symbol from plugin)
receiveLength                                     /tmp/ccjoD88l.ltrans4.ltrans.o
                                                  obj/main/OPENDRONEBRH/vcp/usb_endp.o (symbol from plugin)
                                                  /tmp/ccjoD88l.ltrans3.ltrans.o
                                                  obj/main/OPENDRONEBRH/vcp/hw_config.o (symbol from plugin)
registerExtiCallbackHandler                       obj/main/OPENDRONEBRH/drivers/system.o (symbol from plugin)
releaseSharedTelemetryPorts                       obj/main/OPENDRONEBRH/fc/fc_core.o (symbol from plugin)
remotewakeupon                                    obj/main/OPENDRONEBRH/vcp/usb_pwr.o (symbol from plugin)
requestedSensors                                  obj/main/OPENDRONEBRH/sensors/initialisation.o (symbol from plugin)
                                                  obj/main/OPENDRONEBRH/sensors/diagnostics.o (symbol from plugin)
                                                  obj/main/OPENDRONEBRH/sensors/acceleration.o (symbol from plugin)
                                                  obj/main/OPENDRONEBRH/sensors/pitotmeter.o (symbol from plugin)
                                                  obj/main/OPENDRONEBRH/sensors/barometer.o (symbol from plugin)
rescheduleTask                                    obj/main/OPENDRONEBRH/scheduler/scheduler.o (symbol from plugin)
                                                  obj/main/OPENDRONEBRH/fc/fc_tasks.o (symbol from plugin)
                                                  obj/main/OPENDRONEBRH/telemetry/ibus.o (symbol from plugin)
resetAdjustmentStates                             obj/main/OPENDRONEBRH/fc/rc_adjustments.o (symbol from plugin)
                                                  obj/main/OPENDRONEBRH/fc/config.o (symbol from plugin)
resetAllRxChannelRangeConfigurations              obj/main/OPENDRONEBRH/rx/rx.o (symbol from plugin)
                                                  obj/main/OPENDRONEBRH/fc/cli.o (symbol from plugin)
resetConfigs                                      /tmp/ccjoD88l.ltrans0.ltrans.o
                                                  obj/main/OPENDRONEBRH/fc/config.o (symbol from plugin)
                                                  /tmp/ccjoD88l.ltrans2.ltrans.o
                                                  /tmp/ccjoD88l.ltrans1.ltrans.o
                                                  obj/main/OPENDRONEBRH/fc/cli.o (symbol from plugin)
resetEEPROM                                       obj/main/OPENDRONEBRH/fc/config.o (symbol from plugin)
                                                  obj/main/OPENDRONEBRH/fc/fc_msp.o (symbol from plugin)
                                                  obj/main/OPENDRONEBRH/fc/cli.o (symbol from plugin)
resetFixedWingAltitudeController                  obj/main/OPENDRONEBRH/navigation/navigation_fixedwing.o (symbol from plugin)
                                                  obj/main/OPENDRONEBRH/navigation/navigation.o (symbol from plugin)
resetFixedWingHeadingController                   obj/main/OPENDRONEBRH/navigation/navigation_fixedwing.o (symbol from plugin)
                                                  obj/main/OPENDRONEBRH/navigation/navigation.o (symbol from plugin)
resetFixedWingLandingDetector                     obj/main/OPENDRONEBRH/navigation/navigation_fixedwing.o (symbol from plugin)
                                                  obj/main/OPENDRONEBRH/navigation/navigation.o (symbol from plugin)
resetFixedWingLaunchController                    obj/main/OPENDRONEBRH/navigation/navigation_fw_launch.o (symbol from plugin)
                                                  obj/main/OPENDRONEBRH/navigation/navigation.o (symbol from plugin)
resetFixedWingPositionController                  obj/main/OPENDRONEBRH/navigation/navigation_fixedwing.o (symbol from plugin)
                                                  obj/main/OPENDRONEBRH/navigation/navigation.o (symbol from plugin)
resetGCSFlags                                     obj/main/OPENDRONEBRH/navigation/navigation.o (symbol from plugin)
resetHeadingHoldTarget                            obj/main/OPENDRONEBRH/flight/pid.o (symbol from plugin)
                                                  obj/main/OPENDRONEBRH/flight/imu.o (symbol from plugin)
                                                  obj/main/OPENDRONEBRH/fc/fc_core.o (symbol from plugin)
resetLandingDetector                              obj/main/OPENDRONEBRH/navigation/navigation.o (symbol from plugin)
resetMulticopterAltitudeController                /tmp/ccjoD88l.ltrans3.ltrans.o
                                                  obj/main/OPENDRONEBRH/navigation/navigation_multicopter.o (symbol from plugin)
                                                  /tmp/ccjoD88l.ltrans0.ltrans.o
                                                  obj/main/OPENDRONEBRH/navigation/navigation.o (symbol from plugin)
resetMulticopterHeadingController                 obj/main/OPENDRONEBRH/navigation/navigation_multicopter.o (symbol from plugin)
                                                  obj/main/OPENDRONEBRH/navigation/navigation.o (symbol from plugin)
resetMulticopterLandingDetector                   obj/main/OPENDRONEBRH/navigation/navigation_multicopter.o (symbol from plugin)
                                                  obj/main/OPENDRONEBRH/navigation/navigation.o (symbol from plugin)
resetMulticopterPositionController                /tmp/ccjoD88l.ltrans3.ltrans.o
                                                  obj/main/OPENDRONEBRH/navigation/navigation_multicopter.o (symbol from plugin)
                                                  /tmp/ccjoD88l.ltrans0.ltrans.o
                                                  obj/main/OPENDRONEBRH/navigation/navigation.o (symbol from plugin)
resetNavigation                                   obj/main/OPENDRONEBRH/navigation/navigation.o (symbol from plugin)
resetPPMDataReceivedState                         obj/main/OPENDRONEBRH/drivers/rx_pwm.o (symbol from plugin)
                                                  obj/main/OPENDRONEBRH/rx/pwm.o (symbol from plugin)
resetWaypointList                                 /tmp/ccjoD88l.ltrans3.ltrans.o
                                                  obj/main/OPENDRONEBRH/navigation/navigation.o (symbol from plugin)
                                                  /tmp/ccjoD88l.ltrans2.ltrans.o
                                                  obj/main/OPENDRONEBRH/telemetry/mavlink.o (symbol from plugin)
resourceNames                                     obj/main/OPENDRONEBRH/drivers/resource.o (symbol from plugin)
                                                  obj/main/OPENDRONEBRH/fc/cli.o (symbol from plugin)
respondToIbusRequest                              /tmp/ccjoD88l.ltrans3.ltrans.o
                                                  obj/main/OPENDRONEBRH/telemetry/ibus_shared.o (symbol from plugin)
                                                  /tmp/ccjoD88l.ltrans4.ltrans.o
                                                  /tmp/ccjoD88l.ltrans2.ltrans.o
                                                  obj/main/OPENDRONEBRH/rx/ibus.o (symbol from plugin)
                                                  obj/main/OPENDRONEBRH/telemetry/ibus.o (symbol from plugin)
resumeRxSignal                                    /tmp/ccjoD88l.ltrans4.ltrans.o
                                                  obj/main/OPENDRONEBRH/rx/rx.o (symbol from plugin)
                                                  /tmp/ccjoD88l.ltrans0.ltrans.o
                                                  obj/main/OPENDRONEBRH/fc/config.o (symbol from plugin)
rotationMatrixFromAngles                          obj/main/OPENDRONEBRH/common/maths.o (symbol from plugin)
                                                  obj/main/OPENDRONEBRH/sensors/boardalignment.o (symbol from plugin)
rotationMatrixFromAxisAngle                       obj/main/OPENDRONEBRH/common/maths.o (symbol from plugin)
rssi.lto_priv.267                                 /tmp/ccjoD88l.ltrans4.ltrans.o
                                                  /tmp/ccjoD88l.ltrans2.ltrans.o
                                                  /tmp/ccjoD88l.ltrans0.ltrans.o
rssiSource.lto_priv.266                           /tmp/ccjoD88l.ltrans4.ltrans.o
                                                  /tmp/ccjoD88l.ltrans2.ltrans.o
                                                  /tmp/ccjoD88l.ltrans0.ltrans.o
rtcGet                                            /tmp/ccjoD88l.ltrans1.ltrans.o
                                                  obj/main/OPENDRONEBRH/common/time.o (symbol from plugin)
                                                  /tmp/ccjoD88l.ltrans2.ltrans.o
                                                  obj/main/OPENDRONEBRH/fc/fc_msp.o (symbol from plugin)
rtcGetDateTime                                    /tmp/ccjoD88l.ltrans1.ltrans.o
                                                  obj/main/OPENDRONEBRH/common/time.o (symbol from plugin)
                                                  /tmp/ccjoD88l.ltrans4.ltrans.o
                                                  /tmp/ccjoD88l.ltrans2.ltrans.o
                                                  /tmp/ccjoD88l.ltrans0.ltrans.o
                                                  obj/main/OPENDRONEBRH/io/asyncfatfs/asyncfatfs.o (symbol from plugin)
                                                  obj/main/OPENDRONEBRH/io/rcdevice_cam.o (symbol from plugin)
                                                  obj/main/OPENDRONEBRH/fc/fc_msp.o (symbol from plugin)
                                                  obj/main/OPENDRONEBRH/fc/cli.o (symbol from plugin)
rtcHasTime                                        obj/main/OPENDRONEBRH/common/time.o (symbol from plugin)
                                                  obj/main/OPENDRONEBRH/io/gps.o (symbol from plugin)
rtcSet                                            obj/main/OPENDRONEBRH/common/time.o (symbol from plugin)
                                                  obj/main/OPENDRONEBRH/fc/fc_msp.o (symbol from plugin)
rtcSetDateTime                                    obj/main/OPENDRONEBRH/common/time.o (symbol from plugin)
                                                  obj/main/OPENDRONEBRH/io/gps.o (symbol from plugin)
rtcTimeGetMillis                                  obj/main/OPENDRONEBRH/common/time.o (symbol from plugin)
                                                  obj/main/OPENDRONEBRH/fc/fc_msp.o (symbol from plugin)
rtcTimeGetSeconds                                 obj/main/OPENDRONEBRH/common/time.o (symbol from plugin)
                                                  obj/main/OPENDRONEBRH/fc/fc_msp.o (symbol from plugin)
rtcTimeMake                                       obj/main/OPENDRONEBRH/common/time.o (symbol from plugin)
                                                  obj/main/OPENDRONEBRH/fc/fc_msp.o (symbol from plugin)
rtcTimeToDateTime.lto_priv.442                    /tmp/ccjoD88l.ltrans1.ltrans.o
                                                  /tmp/ccjoD88l.ltrans0.ltrans.o
runcamDevice.lto_priv.496                         /tmp/ccjoD88l.ltrans4.ltrans.o
                                                  /tmp/ccjoD88l.ltrans1.ltrans.o
runcamDeviceClose5KeyOSDCableConnection           obj/main/OPENDRONEBRH/io/rcdevice.o (symbol from plugin)
                                                  obj/main/OPENDRONEBRH/io/rcdevice_cam.o (symbol from plugin)
runcamDeviceGetSettingDetail                      obj/main/OPENDRONEBRH/io/rcdevice.o (symbol from plugin)
runcamDeviceInit                                  obj/main/OPENDRONEBRH/io/rcdevice.o (symbol from plugin)
                                                  obj/main/OPENDRONEBRH/io/rcdevice_cam.o (symbol from plugin)
runcamDeviceOpen5KeyOSDCableConnection            obj/main/OPENDRONEBRH/io/rcdevice.o (symbol from plugin)
                                                  obj/main/OPENDRONEBRH/io/rcdevice_cam.o (symbol from plugin)
runcamDeviceSendPacket.part.3.lto_priv.264        /tmp/ccjoD88l.ltrans4.ltrans.o
                                                  /tmp/ccjoD88l.ltrans5.ltrans.o
runcamDeviceSendRequestAndWaitingResp.lto_priv.231 /tmp/ccjoD88l.ltrans5.ltrans.o
                                                  /tmp/ccjoD88l.ltrans4.ltrans.o
                                                  /tmp/ccjoD88l.ltrans1.ltrans.o
runcamDeviceSimulate5KeyOSDCableButtonPress       obj/main/OPENDRONEBRH/io/rcdevice.o (symbol from plugin)
                                                  obj/main/OPENDRONEBRH/io/rcdevice_cam.o (symbol from plugin)
runcamDeviceSimulate5KeyOSDCableButtonRelease     obj/main/OPENDRONEBRH/io/rcdevice.o (symbol from plugin)
                                                  obj/main/OPENDRONEBRH/io/rcdevice_cam.o (symbol from plugin)
runcamDeviceSimulateCameraButton                  obj/main/OPENDRONEBRH/io/rcdevice.o (symbol from plugin)
                                                  obj/main/OPENDRONEBRH/io/rcdevice_cam.o (symbol from plugin)
runcamDeviceWriteSetting                          obj/main/OPENDRONEBRH/io/rcdevice.o (symbol from plugin)
                                                  obj/main/OPENDRONEBRH/io/rcdevice_cam.o (symbol from plugin)
rxAreFlightChannelsValid                          obj/main/OPENDRONEBRH/rx/rx.o (symbol from plugin)
rxChannelRangeConfigs_CopyArray                   /tmp/ccjoD88l.ltrans4.ltrans.o
                                                  obj/main/OPENDRONEBRH/rx/rx.o (symbol from plugin)
                                                  /tmp/ccjoD88l.ltrans0.ltrans.o
                                                  obj/main/OPENDRONEBRH/fc/cli.o (symbol from plugin)
rxChannelRangeConfigs_Registry                    /tmp/ccjoD88l.ltrans4.ltrans.o
                                                  obj/main/OPENDRONEBRH/rx/rx.o (symbol from plugin)
rxChannelRangeConfigs_SystemArray                 /tmp/ccjoD88l.ltrans4.ltrans.o
                                                  obj/main/OPENDRONEBRH/rx/rx.o (symbol from plugin)
                                                  /tmp/ccjoD88l.ltrans0.ltrans.o
                                                  obj/main/OPENDRONEBRH/fc/cli.o (symbol from plugin)
rxConfig_Copy                                     /tmp/ccjoD88l.ltrans4.ltrans.o
                                                  obj/main/OPENDRONEBRH/rx/rx.o (symbol from plugin)
                                                  /tmp/ccjoD88l.ltrans0.ltrans.o
                                                  obj/main/OPENDRONEBRH/fc/cli.o (symbol from plugin)
rxConfig_Registry                                 /tmp/ccjoD88l.ltrans4.ltrans.o
                                                  obj/main/OPENDRONEBRH/rx/rx.o (symbol from plugin)
rxConfig_System                                   /tmp/ccjoD88l.ltrans4.ltrans.o
                                                  obj/main/OPENDRONEBRH/rx/rx.o (symbol from plugin)
                                                  /tmp/ccjoD88l.ltrans5.ltrans.o
                                                  /tmp/ccjoD88l.ltrans2.ltrans.o
                                                  /tmp/ccjoD88l.ltrans1.ltrans.o
                                                  /tmp/ccjoD88l.ltrans0.ltrans.o
                                                  obj/main/OPENDRONEBRH/flight/servos.o (symbol from plugin)
                                                  obj/main/OPENDRONEBRH/flight/pid.o (symbol from plugin)
                                                  obj/main/OPENDRONEBRH/flight/mixer.o (symbol from plugin)
                                                  obj/main/OPENDRONEBRH/flight/failsafe.o (symbol from plugin)
                                                  obj/main/OPENDRONEBRH/fc/rc_controls.o (symbol from plugin)
                                                  obj/main/OPENDRONEBRH/fc/rc_adjustments.o (symbol from plugin)
                                                  obj/main/OPENDRONEBRH/fc/fc_msp.o (symbol from plugin)
                                                  obj/main/OPENDRONEBRH/fc/fc_init.o (symbol from plugin)
                                                  obj/main/OPENDRONEBRH/fc/fc_core.o (symbol from plugin)
                                                  obj/main/OPENDRONEBRH/fc/config.o (symbol from plugin)
                                                  obj/main/OPENDRONEBRH/fc/cli.o (symbol from plugin)
rxGetRefreshRate                                  obj/main/OPENDRONEBRH/rx/rx.o (symbol from plugin)
                                                  obj/main/OPENDRONEBRH/fc/fc_core.o (symbol from plugin)
rxInit                                            /tmp/ccjoD88l.ltrans4.ltrans.o
                                                  obj/main/OPENDRONEBRH/rx/rx.o (symbol from plugin)
                                                  /tmp/ccjoD88l.ltrans1.ltrans.o
                                                  obj/main/OPENDRONEBRH/fc/fc_init.o (symbol from plugin)
rxIsReceivingSignal                               obj/main/OPENDRONEBRH/rx/rx.o (symbol from plugin)
                                                  obj/main/OPENDRONEBRH/fc/rc_controls.o (symbol from plugin)
                                                  obj/main/OPENDRONEBRH/fc/rc_adjustments.o (symbol from plugin)
rxMspFrameDone.lto_priv.271                       /tmp/ccjoD88l.ltrans4.ltrans.o
                                                  /tmp/ccjoD88l.ltrans2.ltrans.o
rxMspFrameReceive                                 obj/main/OPENDRONEBRH/rx/msp.o (symbol from plugin)
                                                  obj/main/OPENDRONEBRH/fc/fc_msp.o (symbol from plugin)
rxMspInit                                         obj/main/OPENDRONEBRH/rx/msp.o (symbol from plugin)
                                                  obj/main/OPENDRONEBRH/rx/rx.o (symbol from plugin)
rxPwmInit                                         obj/main/OPENDRONEBRH/rx/pwm.o (symbol from plugin)
                                                  obj/main/OPENDRONEBRH/rx/rx.o (symbol from plugin)
rxRuntimeConfig                                   /tmp/ccjoD88l.ltrans4.ltrans.o
                                                  obj/main/OPENDRONEBRH/rx/rx.o (symbol from plugin)
                                                  /tmp/ccjoD88l.ltrans5.ltrans.o
                                                  /tmp/ccjoD88l.ltrans2.ltrans.o
                                                  /tmp/ccjoD88l.ltrans0.ltrans.o
                                                  obj/main/OPENDRONEBRH/flight/servos.o (symbol from plugin)
                                                  obj/main/OPENDRONEBRH/fc/fc_msp.o (symbol from plugin)
                                                  obj/main/OPENDRONEBRH/telemetry/mavlink.o (symbol from plugin)
rxUpdateCheck                                     obj/main/OPENDRONEBRH/rx/rx.o (symbol from plugin)
                                                  obj/main/OPENDRONEBRH/fc/fc_core.o (symbol from plugin)
rxUpdateRSSISource                                /tmp/ccjoD88l.ltrans4.ltrans.o
                                                  obj/main/OPENDRONEBRH/rx/rx.o (symbol from plugin)
                                                  /tmp/ccjoD88l.ltrans2.ltrans.o
                                                  obj/main/OPENDRONEBRH/fc/fc_msp.o (symbol from plugin)
saveConfigAndNotify                               /tmp/ccjoD88l.ltrans0.ltrans.o
                                                  obj/main/OPENDRONEBRH/fc/config.o (symbol from plugin)
                                                  /tmp/ccjoD88l.ltrans5.ltrans.o
                                                  /tmp/ccjoD88l.ltrans3.ltrans.o
                                                  /tmp/ccjoD88l.ltrans1.ltrans.o
                                                  obj/main/OPENDRONEBRH/sensors/acceleration.o (symbol from plugin)
                                                  obj/main/OPENDRONEBRH/rx/spektrum.o (symbol from plugin)
                                                  obj/main/OPENDRONEBRH/flight/servos.o (symbol from plugin)
                                                  obj/main/OPENDRONEBRH/fc/rc_controls.o (symbol from plugin)
                                                  obj/main/OPENDRONEBRH/navigation/navigation.o (symbol from plugin)
saveNonVolatileWaypointList                       /tmp/ccjoD88l.ltrans3.ltrans.o
                                                  obj/main/OPENDRONEBRH/navigation/navigation.o (symbol from plugin)
                                                  /tmp/ccjoD88l.ltrans2.ltrans.o
                                                  /tmp/ccjoD88l.ltrans0.ltrans.o
                                                  obj/main/OPENDRONEBRH/fc/rc_controls.o (symbol from plugin)
                                                  obj/main/OPENDRONEBRH/fc/fc_msp.o (symbol from plugin)
sbufAdvance                                       obj/main/OPENDRONEBRH/common/streambuf.o (symbol from plugin)
                                                  obj/main/OPENDRONEBRH/io/rcdevice.o (symbol from plugin)
                                                  obj/main/OPENDRONEBRH/telemetry/msp_shared.o (symbol from plugin)
sbufBytesRemaining                                obj/main/OPENDRONEBRH/common/streambuf.o (symbol from plugin)
                                                  obj/main/OPENDRONEBRH/msp/msp_serial.o (symbol from plugin)
                                                  obj/main/OPENDRONEBRH/io/rcdevice.o (symbol from plugin)
                                                  obj/main/OPENDRONEBRH/fc/fc_msp_box.o (symbol from plugin)
                                                  obj/main/OPENDRONEBRH/fc/fc_msp.o (symbol from plugin)
                                                  obj/main/OPENDRONEBRH/telemetry/msp_shared.o (symbol from plugin)
                                                  obj/main/OPENDRONEBRH/telemetry/crsf.o (symbol from plugin)
sbufConstPtr                                      obj/main/OPENDRONEBRH/common/streambuf.o (symbol from plugin)
                                                  obj/main/OPENDRONEBRH/io/rcdevice.o (symbol from plugin)
sbufFill                                          obj/main/OPENDRONEBRH/common/streambuf.o (symbol from plugin)
sbufInit                                          obj/main/OPENDRONEBRH/common/streambuf.o (symbol from plugin)
                                                  obj/main/OPENDRONEBRH/telemetry/msp_shared.o (symbol from plugin)
sbufPtr                                           obj/main/OPENDRONEBRH/common/streambuf.o (symbol from plugin)
                                                  obj/main/OPENDRONEBRH/msp/msp_serial.o (symbol from plugin)
                                                  obj/main/OPENDRONEBRH/io/rcdevice.o (symbol from plugin)
                                                  obj/main/OPENDRONEBRH/common/crc.o (symbol from plugin)
                                                  obj/main/OPENDRONEBRH/telemetry/crsf.o (symbol from plugin)
sbufReadData                                      obj/main/OPENDRONEBRH/common/streambuf.o (symbol from plugin)
                                                  obj/main/OPENDRONEBRH/fc/fc_msp.o (symbol from plugin)
                                                  obj/main/OPENDRONEBRH/telemetry/msp_shared.o (symbol from plugin)
sbufReadDataSafe                                  obj/main/OPENDRONEBRH/common/streambuf.o (symbol from plugin)
                                                  obj/main/OPENDRONEBRH/fc/fc_msp.o (symbol from plugin)
sbufReadI16Safe                                   obj/main/OPENDRONEBRH/common/streambuf.o (symbol from plugin)
                                                  obj/main/OPENDRONEBRH/fc/fc_msp.o (symbol from plugin)
sbufReadI32Safe                                   obj/main/OPENDRONEBRH/common/streambuf.o (symbol from plugin)
sbufReadI8Safe                                    obj/main/OPENDRONEBRH/common/streambuf.o (symbol from plugin)
                                                  obj/main/OPENDRONEBRH/fc/fc_msp.o (symbol from plugin)
sbufReadU16                                       /tmp/ccjoD88l.ltrans1.ltrans.o
                                                  obj/main/OPENDRONEBRH/common/streambuf.o (symbol from plugin)
                                                  /tmp/ccjoD88l.ltrans2.ltrans.o
                                                  obj/main/OPENDRONEBRH/io/rcdevice.o (symbol from plugin)
                                                  obj/main/OPENDRONEBRH/fc/fc_msp.o (symbol from plugin)
sbufReadU16Safe                                   /tmp/ccjoD88l.ltrans1.ltrans.o
                                                  obj/main/OPENDRONEBRH/common/streambuf.o (symbol from plugin)
                                                  /tmp/ccjoD88l.ltrans2.ltrans.o
                                                  obj/main/OPENDRONEBRH/fc/fc_msp.o (symbol from plugin)
sbufReadU32                                       /tmp/ccjoD88l.ltrans1.ltrans.o
                                                  obj/main/OPENDRONEBRH/common/streambuf.o (symbol from plugin)
                                                  /tmp/ccjoD88l.ltrans2.ltrans.o
                                                  obj/main/OPENDRONEBRH/io/rcdevice.o (symbol from plugin)
                                                  obj/main/OPENDRONEBRH/fc/fc_msp.o (symbol from plugin)
sbufReadU32Safe                                   obj/main/OPENDRONEBRH/common/streambuf.o (symbol from plugin)
                                                  obj/main/OPENDRONEBRH/fc/fc_msp.o (symbol from plugin)
sbufReadU8                                        /tmp/ccjoD88l.ltrans1.ltrans.o
                                                  obj/main/OPENDRONEBRH/common/streambuf.o (symbol from plugin)
                                                  /tmp/ccjoD88l.ltrans2.ltrans.o
                                                  obj/main/OPENDRONEBRH/io/rcdevice.o (symbol from plugin)
                                                  obj/main/OPENDRONEBRH/fc/fc_msp.o (symbol from plugin)
                                                  obj/main/OPENDRONEBRH/telemetry/msp_shared.o (symbol from plugin)
                                                  obj/main/OPENDRONEBRH/telemetry/crsf.o (symbol from plugin)
sbufReadU8Safe                                    /tmp/ccjoD88l.ltrans1.ltrans.o
                                                  obj/main/OPENDRONEBRH/common/streambuf.o (symbol from plugin)
                                                  /tmp/ccjoD88l.ltrans2.ltrans.o
                                                  obj/main/OPENDRONEBRH/fc/fc_msp.o (symbol from plugin)
sbufSwitchToReader                                obj/main/OPENDRONEBRH/common/streambuf.o (symbol from plugin)
                                                  obj/main/OPENDRONEBRH/msp/msp_serial.o (symbol from plugin)
                                                  obj/main/OPENDRONEBRH/io/rcdevice.o (symbol from plugin)
                                                  obj/main/OPENDRONEBRH/telemetry/msp_shared.o (symbol from plugin)
                                                  obj/main/OPENDRONEBRH/telemetry/crsf.o (symbol from plugin)
sbufWriteData                                     /tmp/ccjoD88l.ltrans1.ltrans.o
                                                  obj/main/OPENDRONEBRH/common/streambuf.o (symbol from plugin)
                                                  /tmp/ccjoD88l.ltrans4.ltrans.o
                                                  /tmp/ccjoD88l.ltrans2.ltrans.o
                                                  obj/main/OPENDRONEBRH/msp/msp_serial.o (symbol from plugin)
                                                  obj/main/OPENDRONEBRH/io/rcdevice.o (symbol from plugin)
                                                  obj/main/OPENDRONEBRH/fc/fc_msp_box.o (symbol from plugin)
                                                  obj/main/OPENDRONEBRH/fc/fc_msp.o (symbol from plugin)
                                                  obj/main/OPENDRONEBRH/telemetry/msp_shared.o (symbol from plugin)
sbufWriteDataSafe                                 obj/main/OPENDRONEBRH/common/streambuf.o (symbol from plugin)
                                                  obj/main/OPENDRONEBRH/fc/fc_msp.o (symbol from plugin)
sbufWriteString                                   obj/main/OPENDRONEBRH/common/streambuf.o (symbol from plugin)
sbufWriteStringWithZeroTerminator                 obj/main/OPENDRONEBRH/common/streambuf.o (symbol from plugin)
sbufWriteU16                                      /tmp/ccjoD88l.ltrans1.ltrans.o
                                                  obj/main/OPENDRONEBRH/common/streambuf.o (symbol from plugin)
                                                  /tmp/ccjoD88l.ltrans2.ltrans.o
                                                  obj/main/OPENDRONEBRH/fc/fc_msp.o (symbol from plugin)
                                                  obj/main/OPENDRONEBRH/common/crc.o (symbol from plugin)
sbufWriteU16BigEndian                             obj/main/OPENDRONEBRH/common/streambuf.o (symbol from plugin)
sbufWriteU32                                      /tmp/ccjoD88l.ltrans1.ltrans.o
                                                  obj/main/OPENDRONEBRH/common/streambuf.o (symbol from plugin)
                                                  /tmp/ccjoD88l.ltrans2.ltrans.o
                                                  obj/main/OPENDRONEBRH/fc/fc_msp.o (symbol from plugin)
sbufWriteU32BigEndian                             obj/main/OPENDRONEBRH/common/streambuf.o (symbol from plugin)
sbufWriteU8                                       obj/main/OPENDRONEBRH/common/streambuf.o (symbol from plugin)
                                                  obj/main/OPENDRONEBRH/io/rcdevice.o (symbol from plugin)
                                                  obj/main/OPENDRONEBRH/fc/fc_msp_box.o (symbol from plugin)
                                                  obj/main/OPENDRONEBRH/fc/fc_msp.o (symbol from plugin)
                                                  obj/main/OPENDRONEBRH/common/crc.o (symbol from plugin)
                                                  obj/main/OPENDRONEBRH/telemetry/msp_shared.o (symbol from plugin)
                                                  obj/main/OPENDRONEBRH/telemetry/crsf.o (symbol from plugin)
sbusChannelsDecode                                obj/main/OPENDRONEBRH/rx/sbus_channels.o (symbol from plugin)
                                                  obj/main/OPENDRONEBRH/rx/sbus.o (symbol from plugin)
                                                  obj/main/OPENDRONEBRH/rx/fport.o (symbol from plugin)
sbusChannelsInit                                  obj/main/OPENDRONEBRH/rx/sbus_channels.o (symbol from plugin)
                                                  obj/main/OPENDRONEBRH/rx/sbus.o (symbol from plugin)
                                                  obj/main/OPENDRONEBRH/rx/fport.o (symbol from plugin)
sbusInit                                          obj/main/OPENDRONEBRH/rx/sbus.o (symbol from plugin)
                                                  obj/main/OPENDRONEBRH/rx/rx.o (symbol from plugin)
scaleRange                                        obj/main/OPENDRONEBRH/common/maths.o (symbol from plugin)
                                                  obj/main/OPENDRONEBRH/rx/crsf.o (symbol from plugin)
                                                  obj/main/OPENDRONEBRH/rx/rx.o (symbol from plugin)
                                                  obj/main/OPENDRONEBRH/rx/fport.o (symbol from plugin)
                                                  obj/main/OPENDRONEBRH/flight/servos.o (symbol from plugin)
                                                  obj/main/OPENDRONEBRH/telemetry/mavlink.o (symbol from plugin)
scaleRangef                                       obj/main/OPENDRONEBRH/common/maths.o (symbol from plugin)
                                                  obj/main/OPENDRONEBRH/flight/pid.o (symbol from plugin)
                                                  obj/main/OPENDRONEBRH/navigation/navigation_fw_launch.o (symbol from plugin)
schedulePidGainsUpdate                            obj/main/OPENDRONEBRH/flight/pid.o (symbol from plugin)
                                                  obj/main/OPENDRONEBRH/flight/pid_autotune.o (symbol from plugin)
                                                  obj/main/OPENDRONEBRH/fc/rc_adjustments.o (symbol from plugin)
                                                  obj/main/OPENDRONEBRH/fc/fc_msp.o (symbol from plugin)
scheduler                                         obj/main/OPENDRONEBRH/scheduler/scheduler.o (symbol from plugin)
                                                  obj/main/OPENDRONEBRH/main.o (symbol from plugin)
schedulerInit                                     obj/main/OPENDRONEBRH/scheduler/scheduler.o (symbol from plugin)
                                                  obj/main/OPENDRONEBRH/fc/fc_tasks.o (symbol from plugin)
schedulerResetTaskStatistics                      obj/main/OPENDRONEBRH/scheduler/scheduler.o (symbol from plugin)
                                                  obj/main/OPENDRONEBRH/sensors/gyro.o (symbol from plugin)
sdcard_beginWriteBlocks                           obj/main/OPENDRONEBRH/io/asyncfatfs/asyncfatfs.o (symbol from plugin)
sdcard_poll                                       obj/main/OPENDRONEBRH/io/asyncfatfs/asyncfatfs.o (symbol from plugin)
sdcard_readBlock                                  obj/main/OPENDRONEBRH/io/asyncfatfs/asyncfatfs.o (symbol from plugin)
sdcard_writeBlock                                 obj/main/OPENDRONEBRH/io/asyncfatfs/asyncfatfs.o (symbol from plugin)
sectionTimes                                      obj/main/OPENDRONEBRH/build/debug.o (symbol from plugin)
selectNavEventFromBoxModeInput.lto_priv.434       /tmp/ccjoD88l.ltrans3.ltrans.o
                                                  /tmp/ccjoD88l.ltrans0.ltrans.o
sendCtrlCommand.isra.2.lto_priv.232               /tmp/ccjoD88l.ltrans5.ltrans.o
                                                  /tmp/ccjoD88l.ltrans4.ltrans.o
                                                  /tmp/ccjoD88l.ltrans1.ltrans.o
sendDataHead.lto_priv.335                         /tmp/ccjoD88l.ltrans3.ltrans.o
                                                  /tmp/ccjoD88l.ltrans2.ltrans.o
sendLatLong.lto_priv.336                          /tmp/ccjoD88l.ltrans3.ltrans.o
                                                  /tmp/ccjoD88l.ltrans2.ltrans.o
sendLength                                        obj/main/OPENDRONEBRH/vcp/hw_config.o (symbol from plugin)
sendMspErrorResponse                              /tmp/ccjoD88l.ltrans3.ltrans.o
                                                  obj/main/OPENDRONEBRH/telemetry/msp_shared.o (symbol from plugin)
                                                  /tmp/ccjoD88l.ltrans1.ltrans.o
sendMspReply                                      obj/main/OPENDRONEBRH/telemetry/msp_shared.o (symbol from plugin)
                                                  obj/main/OPENDRONEBRH/telemetry/smartport.o (symbol from plugin)
sendTelemetryTail.lto_priv.333                    /tmp/ccjoD88l.ltrans3.ltrans.o
                                                  /tmp/ccjoD88l.ltrans2.ltrans.o
sensorCalibrationPushSampleForOffsetCalculation   obj/main/OPENDRONEBRH/common/maths.o (symbol from plugin)
                                                  obj/main/OPENDRONEBRH/sensors/acceleration.o (symbol from plugin)
sensorCalibrationPushSampleForScaleCalculation    obj/main/OPENDRONEBRH/common/maths.o (symbol from plugin)
                                                  obj/main/OPENDRONEBRH/sensors/acceleration.o (symbol from plugin)
sensorCalibrationResetState                       obj/main/OPENDRONEBRH/common/maths.o (symbol from plugin)
                                                  obj/main/OPENDRONEBRH/sensors/acceleration.o (symbol from plugin)
sensorCalibrationSolveForOffset                   obj/main/OPENDRONEBRH/common/maths.o (symbol from plugin)
                                                  obj/main/OPENDRONEBRH/sensors/acceleration.o (symbol from plugin)
sensorCalibrationSolveForScale                    obj/main/OPENDRONEBRH/common/maths.o (symbol from plugin)
                                                  obj/main/OPENDRONEBRH/sensors/acceleration.o (symbol from plugin)
sensorCalibration_BackwardSubstitution            obj/main/OPENDRONEBRH/common/maths.o (symbol from plugin)
sensorCalibration_ForwardSubstitution             obj/main/OPENDRONEBRH/common/maths.o (symbol from plugin)
sensorCalibration_SolveLGS.lto_priv.265           /tmp/ccjoD88l.ltrans1.ltrans.o
                                                  /tmp/ccjoD88l.ltrans5.ltrans.o
sensors                                           obj/main/OPENDRONEBRH/fc/runtime_config.o (symbol from plugin)
                                                  obj/main/OPENDRONEBRH/sensors/diagnostics.o (symbol from plugin)
                                                  obj/main/OPENDRONEBRH/flight/pid.o (symbol from plugin)
                                                  obj/main/OPENDRONEBRH/flight/imu.o (symbol from plugin)
                                                  obj/main/OPENDRONEBRH/flight/failsafe.o (symbol from plugin)
                                                  obj/main/OPENDRONEBRH/fc/fc_msp_box.o (symbol from plugin)
                                                  obj/main/OPENDRONEBRH/fc/fc_tasks.o (symbol from plugin)
                                                  obj/main/OPENDRONEBRH/fc/fc_core.o (symbol from plugin)
                                                  obj/main/OPENDRONEBRH/telemetry/smartport.o (symbol from plugin)
                                                  obj/main/OPENDRONEBRH/telemetry/mavlink.o (symbol from plugin)
                                                  obj/main/OPENDRONEBRH/telemetry/ibus.o (symbol from plugin)
                                                  obj/main/OPENDRONEBRH/telemetry/ibus_shared.o (symbol from plugin)
                                                  obj/main/OPENDRONEBRH/telemetry/hott.o (symbol from plugin)
                                                  obj/main/OPENDRONEBRH/telemetry/frsky.o (symbol from plugin)
                                                  obj/main/OPENDRONEBRH/navigation/navigation_pos_estimator.o (symbol from plugin)
sensorsAutodetect                                 obj/main/OPENDRONEBRH/sensors/initialisation.o (symbol from plugin)
                                                  obj/main/OPENDRONEBRH/fc/fc_init.o (symbol from plugin)
sensorsAutodetect.part.0                          /tmp/ccjoD88l.ltrans4.ltrans.o
                                                  /tmp/ccjoD88l.ltrans1.ltrans.o
sensorsClear                                      obj/main/OPENDRONEBRH/fc/runtime_config.o (symbol from plugin)
                                                  obj/main/OPENDRONEBRH/sensors/pitotmeter.o (symbol from plugin)
                                                  obj/main/OPENDRONEBRH/sensors/barometer.o (symbol from plugin)
                                                  obj/main/OPENDRONEBRH/io/gps.o (symbol from plugin)
sensorsMask                                       obj/main/OPENDRONEBRH/fc/runtime_config.o (symbol from plugin)
                                                  obj/main/OPENDRONEBRH/fc/cli.o (symbol from plugin)
sensorsSet                                        /tmp/ccjoD88l.ltrans5.ltrans.o
                                                  obj/main/OPENDRONEBRH/fc/runtime_config.o (symbol from plugin)
                                                  /tmp/ccjoD88l.ltrans4.ltrans.o
                                                  /tmp/ccjoD88l.ltrans3.ltrans.o
                                                  /tmp/ccjoD88l.ltrans2.ltrans.o
                                                  /tmp/ccjoD88l.ltrans1.ltrans.o
                                                  obj/main/OPENDRONEBRH/sensors/gyro.o (symbol from plugin)
                                                  obj/main/OPENDRONEBRH/sensors/acceleration.o (symbol from plugin)
                                                  obj/main/OPENDRONEBRH/fc/fc_msp.o (symbol from plugin)
                                                  obj/main/OPENDRONEBRH/sensors/pitotmeter.o (symbol from plugin)
                                                  obj/main/OPENDRONEBRH/sensors/barometer.o (symbol from plugin)
                                                  obj/main/OPENDRONEBRH/io/gps.o (symbol from plugin)
serialBeginWrite                                  obj/main/OPENDRONEBRH/drivers/serial.o (symbol from plugin)
                                                  obj/main/OPENDRONEBRH/msp/msp_serial.o (symbol from plugin)
serialConfig_Copy                                 /tmp/ccjoD88l.ltrans4.ltrans.o
                                                  obj/main/OPENDRONEBRH/io/serial.o (symbol from plugin)
                                                  /tmp/ccjoD88l.ltrans0.ltrans.o
                                                  obj/main/OPENDRONEBRH/fc/cli.o (symbol from plugin)
serialConfig_Registry                             /tmp/ccjoD88l.ltrans4.ltrans.o
                                                  obj/main/OPENDRONEBRH/io/serial.o (symbol from plugin)
serialConfig_System                               /tmp/ccjoD88l.ltrans4.ltrans.o
                                                  obj/main/OPENDRONEBRH/io/serial.o (symbol from plugin)
                                                  /tmp/ccjoD88l.ltrans5.ltrans.o
                                                  /tmp/ccjoD88l.ltrans2.ltrans.o
                                                  /tmp/ccjoD88l.ltrans1.ltrans.o
                                                  /tmp/ccjoD88l.ltrans0.ltrans.o
                                                  obj/main/OPENDRONEBRH/msp/msp_serial.o (symbol from plugin)
                                                  obj/main/OPENDRONEBRH/fc/fc_msp.o (symbol from plugin)
                                                  obj/main/OPENDRONEBRH/fc/fc_init.o (symbol from plugin)
                                                  obj/main/OPENDRONEBRH/fc/config.o (symbol from plugin)
                                                  obj/main/OPENDRONEBRH/fc/cli.o (symbol from plugin)
                                                  obj/main/OPENDRONEBRH/io/gps.o (symbol from plugin)
serialEndWrite                                    obj/main/OPENDRONEBRH/drivers/serial.o (symbol from plugin)
                                                  obj/main/OPENDRONEBRH/msp/msp_serial.o (symbol from plugin)
serialFindPortConfiguration                       /tmp/ccjoD88l.ltrans5.ltrans.o
                                                  obj/main/OPENDRONEBRH/io/serial.o (symbol from plugin)
                                                  /tmp/ccjoD88l.ltrans2.ltrans.o
                                                  /tmp/ccjoD88l.ltrans1.ltrans.o
                                                  /tmp/ccjoD88l.ltrans0.ltrans.o
                                                  obj/main/OPENDRONEBRH/fc/fc_msp.o (symbol from plugin)
                                                  obj/main/OPENDRONEBRH/fc/cli.o (symbol from plugin)
serialGetAvailablePortCount                       obj/main/OPENDRONEBRH/io/serial.o (symbol from plugin)
serialGetBaudRate                                 obj/main/OPENDRONEBRH/drivers/serial.o (symbol from plugin)
serialInit                                        obj/main/OPENDRONEBRH/io/serial.o (symbol from plugin)
                                                  obj/main/OPENDRONEBRH/fc/fc_init.o (symbol from plugin)
serialIsConnected                                 obj/main/OPENDRONEBRH/drivers/serial.o (symbol from plugin)
                                                  obj/main/OPENDRONEBRH/msp/msp_serial.o (symbol from plugin)
                                                  obj/main/OPENDRONEBRH/build/debug.o (symbol from plugin)
serialIsPortAvailable                             obj/main/OPENDRONEBRH/io/serial.o (symbol from plugin)
                                                  obj/main/OPENDRONEBRH/fc/fc_msp.o (symbol from plugin)
                                                  obj/main/OPENDRONEBRH/fc/cli.o (symbol from plugin)
serialPassthrough                                 obj/main/OPENDRONEBRH/io/serial.o (symbol from plugin)
                                                  obj/main/OPENDRONEBRH/fc/cli.o (symbol from plugin)
serialPort.lto_priv.226                           /tmp/ccjoD88l.ltrans4.ltrans.o
                                                  /tmp/ccjoD88l.ltrans2.ltrans.o
                                                  /tmp/ccjoD88l.ltrans1.ltrans.o
serialPortIdentifiers                             /tmp/ccjoD88l.ltrans5.ltrans.o
                                                  obj/main/OPENDRONEBRH/io/serial.o (symbol from plugin)
                                                  /tmp/ccjoD88l.ltrans1.ltrans.o
serialPortUsageList.lto_priv.234                  /tmp/ccjoD88l.ltrans4.ltrans.o
                                                  /tmp/ccjoD88l.ltrans5.ltrans.o
                                                  /tmp/ccjoD88l.ltrans2.ltrans.o
                                                  /tmp/ccjoD88l.ltrans1.ltrans.o
                                                  /tmp/ccjoD88l.ltrans0.ltrans.o
serialPrint                                       obj/main/OPENDRONEBRH/drivers/serial.o (symbol from plugin)
                                                  obj/main/OPENDRONEBRH/build/debug.o (symbol from plugin)
serialRead                                        /tmp/ccjoD88l.ltrans1.ltrans.o
                                                  obj/main/OPENDRONEBRH/drivers/serial.o (symbol from plugin)
                                                  /tmp/ccjoD88l.ltrans5.ltrans.o
                                                  /tmp/ccjoD88l.ltrans3.ltrans.o
                                                  /tmp/ccjoD88l.ltrans2.ltrans.o
                                                  /tmp/ccjoD88l.ltrans0.ltrans.o
                                                  obj/main/OPENDRONEBRH/msp/msp_serial.o (symbol from plugin)
                                                  obj/main/OPENDRONEBRH/io/rcdevice.o (symbol from plugin)
                                                  obj/main/OPENDRONEBRH/io/serial.o (symbol from plugin)
                                                  obj/main/OPENDRONEBRH/fc/cli.o (symbol from plugin)
                                                  obj/main/OPENDRONEBRH/telemetry/smartport.o (symbol from plugin)
                                                  obj/main/OPENDRONEBRH/telemetry/mavlink.o (symbol from plugin)
                                                  obj/main/OPENDRONEBRH/telemetry/ibus.o (symbol from plugin)
                                                  obj/main/OPENDRONEBRH/telemetry/hott.o (symbol from plugin)
                                                  obj/main/OPENDRONEBRH/io/gps.o (symbol from plugin)
serialRemovePort                                  obj/main/OPENDRONEBRH/io/serial.o (symbol from plugin)
serialRxBytesWaiting                              /tmp/ccjoD88l.ltrans1.ltrans.o
                                                  obj/main/OPENDRONEBRH/drivers/serial.o (symbol from plugin)
                                                  /tmp/ccjoD88l.ltrans5.ltrans.o
                                                  /tmp/ccjoD88l.ltrans3.ltrans.o
                                                  /tmp/ccjoD88l.ltrans2.ltrans.o
                                                  /tmp/ccjoD88l.ltrans0.ltrans.o
                                                  obj/main/OPENDRONEBRH/msp/msp_serial.o (symbol from plugin)
                                                  obj/main/OPENDRONEBRH/io/rcdevice.o (symbol from plugin)
                                                  obj/main/OPENDRONEBRH/io/serial.o (symbol from plugin)
                                                  obj/main/OPENDRONEBRH/fc/cli.o (symbol from plugin)
                                                  obj/main/OPENDRONEBRH/telemetry/smartport.o (symbol from plugin)
                                                  obj/main/OPENDRONEBRH/telemetry/mavlink.o (symbol from plugin)
                                                  obj/main/OPENDRONEBRH/telemetry/ibus.o (symbol from plugin)
                                                  obj/main/OPENDRONEBRH/telemetry/hott.o (symbol from plugin)
                                                  obj/main/OPENDRONEBRH/io/gps.o (symbol from plugin)
serialRxInit                                      obj/main/OPENDRONEBRH/rx/rx.o (symbol from plugin)
serialSetBaudRate                                 obj/main/OPENDRONEBRH/drivers/serial.o (symbol from plugin)
                                                  obj/main/OPENDRONEBRH/io/gps.o (symbol from plugin)
serialSetMode                                     /tmp/ccjoD88l.ltrans1.ltrans.o
                                                  obj/main/OPENDRONEBRH/drivers/serial.o (symbol from plugin)
                                                  /tmp/ccjoD88l.ltrans4.ltrans.o
                                                  /tmp/ccjoD88l.ltrans0.ltrans.o
                                                  obj/main/OPENDRONEBRH/rx/jetiexbus.o (symbol from plugin)
                                                  obj/main/OPENDRONEBRH/fc/cli.o (symbol from plugin)
                                                  obj/main/OPENDRONEBRH/io/gps.o (symbol from plugin)
serialTxBytesFree                                 obj/main/OPENDRONEBRH/drivers/serial.o (symbol from plugin)
                                                  obj/main/OPENDRONEBRH/msp/msp_serial.o (symbol from plugin)
serialUART1                                       obj/main/OPENDRONEBRH/drivers/serial_uart_stm32f30x.o (symbol from plugin)
                                                  obj/main/OPENDRONEBRH/drivers/serial_uart.o (symbol from plugin)
serialUART2                                       obj/main/OPENDRONEBRH/drivers/serial_uart_stm32f30x.o (symbol from plugin)
                                                  obj/main/OPENDRONEBRH/drivers/serial_uart.o (symbol from plugin)
serialUART3                                       obj/main/OPENDRONEBRH/drivers/serial_uart_stm32f30x.o (symbol from plugin)
                                                  obj/main/OPENDRONEBRH/drivers/serial_uart.o (symbol from plugin)
serialUARTInit                                    obj/main/OPENDRONEBRH/drivers/serial_uart_stm32f30x.o (symbol from plugin)
serialUARTInit.constprop.176                      /tmp/ccjoD88l.ltrans4.ltrans.o
                                                  /tmp/ccjoD88l.ltrans1.ltrans.o
serialWrite                                       /tmp/ccjoD88l.ltrans1.ltrans.o
                                                  obj/main/OPENDRONEBRH/drivers/serial.o (symbol from plugin)
                                                  /tmp/ccjoD88l.ltrans3.ltrans.o
                                                  /tmp/ccjoD88l.ltrans2.ltrans.o
                                                  /tmp/ccjoD88l.ltrans0.ltrans.o
                                                  obj/main/OPENDRONEBRH/rx/jetiexbus.o (symbol from plugin)
                                                  obj/main/OPENDRONEBRH/io/serial.o (symbol from plugin)
                                                  obj/main/OPENDRONEBRH/common/printf.o (symbol from plugin)
                                                  obj/main/OPENDRONEBRH/telemetry/smartport.o (symbol from plugin)
                                                  obj/main/OPENDRONEBRH/telemetry/mavlink.o (symbol from plugin)
                                                  obj/main/OPENDRONEBRH/telemetry/ibus_shared.o (symbol from plugin)
                                                  obj/main/OPENDRONEBRH/telemetry/hott.o (symbol from plugin)
                                                  obj/main/OPENDRONEBRH/telemetry/frsky.o (symbol from plugin)
                                                  obj/main/OPENDRONEBRH/io/gps.o (symbol from plugin)
serialWriteBuf                                    /tmp/ccjoD88l.ltrans1.ltrans.o
                                                  obj/main/OPENDRONEBRH/drivers/serial.o (symbol from plugin)
                                                  /tmp/ccjoD88l.ltrans5.ltrans.o
                                                  /tmp/ccjoD88l.ltrans4.ltrans.o
                                                  /tmp/ccjoD88l.ltrans2.ltrans.o
                                                  obj/main/OPENDRONEBRH/rx/crsf.o (symbol from plugin)
                                                  obj/main/OPENDRONEBRH/msp/msp_serial.o (symbol from plugin)
                                                  obj/main/OPENDRONEBRH/io/rcdevice.o (symbol from plugin)
serialWriteBufShim                                /tmp/ccjoD88l.ltrans1.ltrans.o
                                                  obj/main/OPENDRONEBRH/drivers/serial.o (symbol from plugin)
                                                  /tmp/ccjoD88l.ltrans2.ltrans.o
                                                  obj/main/OPENDRONEBRH/fc/cli.o (symbol from plugin)
serialize16.lto_priv.334                          /tmp/ccjoD88l.ltrans3.ltrans.o
                                                  /tmp/ccjoD88l.ltrans2.ltrans.o
serializeBoxNamesReply                            obj/main/OPENDRONEBRH/fc/fc_msp_box.o (symbol from plugin)
                                                  obj/main/OPENDRONEBRH/fc/fc_msp.o (symbol from plugin)
serializeBoxReply                                 obj/main/OPENDRONEBRH/fc/fc_msp_box.o (symbol from plugin)
                                                  obj/main/OPENDRONEBRH/fc/fc_msp.o (symbol from plugin)
servo                                             /tmp/ccjoD88l.ltrans2.ltrans.o
                                                  obj/main/OPENDRONEBRH/flight/servos.o (symbol from plugin)
                                                  /tmp/ccjoD88l.ltrans1.ltrans.o
                                                  /tmp/ccjoD88l.ltrans0.ltrans.o
                                                  obj/main/OPENDRONEBRH/fc/fc_msp.o (symbol from plugin)
servoComputeScalingFactors                        /tmp/ccjoD88l.ltrans5.ltrans.o
                                                  obj/main/OPENDRONEBRH/flight/servos.o (symbol from plugin)
                                                  /tmp/ccjoD88l.ltrans2.ltrans.o
                                                  /tmp/ccjoD88l.ltrans1.ltrans.o
                                                  obj/main/OPENDRONEBRH/fc/fc_msp.o (symbol from plugin)
servoConfig_Copy                                  obj/main/OPENDRONEBRH/flight/servos.o (symbol from plugin)
servoConfig_Registry                              /tmp/ccjoD88l.ltrans2.ltrans.o
                                                  obj/main/OPENDRONEBRH/flight/servos.o (symbol from plugin)
servoConfig_System                                /tmp/ccjoD88l.ltrans2.ltrans.o
                                                  obj/main/OPENDRONEBRH/flight/servos.o (symbol from plugin)
                                                  /tmp/ccjoD88l.ltrans1.ltrans.o
                                                  /tmp/ccjoD88l.ltrans0.ltrans.o
                                                  obj/main/OPENDRONEBRH/fc/fc_msp.o (symbol from plugin)
                                                  obj/main/OPENDRONEBRH/fc/fc_init.o (symbol from plugin)
                                                  obj/main/OPENDRONEBRH/fc/fc_core.o (symbol from plugin)
servoDirection                                    obj/main/OPENDRONEBRH/flight/servos.o (symbol from plugin)
servoMetadata.lto_priv.359                        /tmp/ccjoD88l.ltrans5.ltrans.o
                                                  /tmp/ccjoD88l.ltrans0.ltrans.o
servoMixer                                        obj/main/OPENDRONEBRH/flight/servos.o (symbol from plugin)
                                                  obj/main/OPENDRONEBRH/fc/fc_core.o (symbol from plugin)
servoMixerAirplane.lto_priv.499                   /tmp/ccjoD88l.ltrans0.ltrans.o
servoMixerFlyingWing.lto_priv.498                 /tmp/ccjoD88l.ltrans0.ltrans.o
servoMixerLoadMix                                 obj/main/OPENDRONEBRH/flight/servos.o (symbol from plugin)
                                                  obj/main/OPENDRONEBRH/fc/cli.o (symbol from plugin)
servoMixerTri.lto_priv.497                        /tmp/ccjoD88l.ltrans0.ltrans.o
servoMixers                                       /tmp/ccjoD88l.ltrans0.ltrans.o
                                                  obj/main/OPENDRONEBRH/flight/servos.o (symbol from plugin)
                                                  /tmp/ccjoD88l.ltrans1.ltrans.o
servoOutputEnabled.lto_priv.472                   /tmp/ccjoD88l.ltrans0.ltrans.o
                                                  /tmp/ccjoD88l.ltrans1.ltrans.o
servoParams_CopyArray                             /tmp/ccjoD88l.ltrans5.ltrans.o
                                                  obj/main/OPENDRONEBRH/flight/servos.o (symbol from plugin)
                                                  /tmp/ccjoD88l.ltrans0.ltrans.o
                                                  obj/main/OPENDRONEBRH/fc/cli.o (symbol from plugin)
servoParams_Registry                              /tmp/ccjoD88l.ltrans5.ltrans.o
                                                  obj/main/OPENDRONEBRH/flight/servos.o (symbol from plugin)
servoParams_SystemArray                           /tmp/ccjoD88l.ltrans5.ltrans.o
                                                  obj/main/OPENDRONEBRH/flight/servos.o (symbol from plugin)
                                                  /tmp/ccjoD88l.ltrans2.ltrans.o
                                                  /tmp/ccjoD88l.ltrans0.ltrans.o
                                                  obj/main/OPENDRONEBRH/fc/fc_msp.o (symbol from plugin)
                                                  obj/main/OPENDRONEBRH/fc/cli.o (symbol from plugin)
servoRuleCount.lto_priv.355                       /tmp/ccjoD88l.ltrans5.ltrans.o
                                                  /tmp/ccjoD88l.ltrans1.ltrans.o
                                                  /tmp/ccjoD88l.ltrans0.ltrans.o
servosInit                                        obj/main/OPENDRONEBRH/flight/servos.o (symbol from plugin)
                                                  obj/main/OPENDRONEBRH/fc/fc_init.o (symbol from plugin)
setBeeperOffMask                                  obj/main/OPENDRONEBRH/fc/config.o (symbol from plugin)
                                                  obj/main/OPENDRONEBRH/fc/cli.o (symbol from plugin)
setConfigProfile                                  obj/main/OPENDRONEBRH/fc/config.o (symbol from plugin)
                                                  obj/main/OPENDRONEBRH/fc/cli.o (symbol from plugin)
setConfigProfileAndWriteEEPROM                    /tmp/ccjoD88l.ltrans0.ltrans.o
                                                  obj/main/OPENDRONEBRH/fc/config.o (symbol from plugin)
                                                  /tmp/ccjoD88l.ltrans2.ltrans.o
                                                  obj/main/OPENDRONEBRH/fc/rc_controls.o (symbol from plugin)
                                                  obj/main/OPENDRONEBRH/fc/fc_msp.o (symbol from plugin)
                                                  obj/main/OPENDRONEBRH/fc/cli.o (symbol from plugin)
setControlRateProfile                             obj/main/OPENDRONEBRH/fc/controlrate_profile.o (symbol from plugin)
                                                  obj/main/OPENDRONEBRH/fc/config.o (symbol from plugin)
setDesiredPosition                                /tmp/ccjoD88l.ltrans3.ltrans.o
                                                  obj/main/OPENDRONEBRH/navigation/navigation.o (symbol from plugin)
                                                  /tmp/ccjoD88l.ltrans0.ltrans.o
                                                  obj/main/OPENDRONEBRH/navigation/navigation_multicopter.o (symbol from plugin)
setHomePosition                                   /tmp/ccjoD88l.ltrans3.ltrans.o
                                                  obj/main/OPENDRONEBRH/navigation/navigation.o (symbol from plugin)
                                                  /tmp/ccjoD88l.ltrans0.ltrans.o
setPreferredBeeperOffMask                         obj/main/OPENDRONEBRH/fc/config.o (symbol from plugin)
                                                  obj/main/OPENDRONEBRH/fc/cli.o (symbol from plugin)
setPrintfSerialPort                               obj/main/OPENDRONEBRH/common/printf.o (symbol from plugin)
                                                  obj/main/OPENDRONEBRH/fc/cli.o (symbol from plugin)
setRSSI                                           obj/main/OPENDRONEBRH/rx/rx.o (symbol from plugin)
                                                  obj/main/OPENDRONEBRH/rx/fport.o (symbol from plugin)
setRSSI.part.1                                    /tmp/ccjoD88l.ltrans4.ltrans.o
                                                  /tmp/ccjoD88l.ltrans0.ltrans.o
setRSSIFromMSP                                    obj/main/OPENDRONEBRH/rx/rx.o (symbol from plugin)
                                                  obj/main/OPENDRONEBRH/fc/fc_msp.o (symbol from plugin)
setTaskEnabled                                    obj/main/OPENDRONEBRH/scheduler/scheduler.o (symbol from plugin)
                                                  obj/main/OPENDRONEBRH/fc/fc_tasks.o (symbol from plugin)
setTaskEnabled.part.0                             /tmp/ccjoD88l.ltrans4.ltrans.o
                                                  /tmp/ccjoD88l.ltrans1.ltrans.o
setWaypoint                                       /tmp/ccjoD88l.ltrans3.ltrans.o
                                                  obj/main/OPENDRONEBRH/navigation/navigation.o (symbol from plugin)
                                                  /tmp/ccjoD88l.ltrans2.ltrans.o
                                                  obj/main/OPENDRONEBRH/fc/fc_msp.o (symbol from plugin)
                                                  obj/main/OPENDRONEBRH/telemetry/mavlink.o (symbol from plugin)
settingLookupTables                               /tmp/ccjoD88l.ltrans5.ltrans.o
                                                  obj/main/OPENDRONEBRH/fc/settings.o (symbol from plugin)
                                                  /tmp/ccjoD88l.ltrans0.ltrans.o
                                                  obj/main/OPENDRONEBRH/fc/cli.o (symbol from plugin)
settingMinMaxTable                                obj/main/OPENDRONEBRH/fc/settings.o (symbol from plugin)
setting_find                                      obj/main/OPENDRONEBRH/fc/settings.o (symbol from plugin)
                                                  obj/main/OPENDRONEBRH/fc/fc_msp.o (symbol from plugin)
setting_get_copy_value_pointer                    obj/main/OPENDRONEBRH/fc/settings.o (symbol from plugin)
                                                  obj/main/OPENDRONEBRH/fc/cli.o (symbol from plugin)
setting_get_max                                   /tmp/ccjoD88l.ltrans5.ltrans.o
                                                  obj/main/OPENDRONEBRH/fc/settings.o (symbol from plugin)
                                                  /tmp/ccjoD88l.ltrans2.ltrans.o
                                                  /tmp/ccjoD88l.ltrans0.ltrans.o
                                                  obj/main/OPENDRONEBRH/fc/fc_msp.o (symbol from plugin)
                                                  obj/main/OPENDRONEBRH/fc/cli.o (symbol from plugin)
setting_get_min                                   /tmp/ccjoD88l.ltrans5.ltrans.o
                                                  obj/main/OPENDRONEBRH/fc/settings.o (symbol from plugin)
                                                  /tmp/ccjoD88l.ltrans2.ltrans.o
                                                  /tmp/ccjoD88l.ltrans0.ltrans.o
                                                  obj/main/OPENDRONEBRH/fc/fc_msp.o (symbol from plugin)
                                                  obj/main/OPENDRONEBRH/fc/cli.o (symbol from plugin)
setting_get_name                                  /tmp/ccjoD88l.ltrans5.ltrans.o
                                                  obj/main/OPENDRONEBRH/fc/settings.o (symbol from plugin)
                                                  /tmp/ccjoD88l.ltrans2.ltrans.o
                                                  /tmp/ccjoD88l.ltrans0.ltrans.o
                                                  obj/main/OPENDRONEBRH/fc/cli.o (symbol from plugin)
setting_get_pgn                                   /tmp/ccjoD88l.ltrans5.ltrans.o
                                                  obj/main/OPENDRONEBRH/fc/settings.o (symbol from plugin)
                                                  /tmp/ccjoD88l.ltrans0.ltrans.o
setting_get_value_pointer                         /tmp/ccjoD88l.ltrans5.ltrans.o
                                                  obj/main/OPENDRONEBRH/fc/settings.o (symbol from plugin)
                                                  /tmp/ccjoD88l.ltrans2.ltrans.o
                                                  /tmp/ccjoD88l.ltrans0.ltrans.o
                                                  obj/main/OPENDRONEBRH/fc/fc_msp.o (symbol from plugin)
                                                  obj/main/OPENDRONEBRH/fc/cli.o (symbol from plugin)
setting_get_value_size                            obj/main/OPENDRONEBRH/fc/settings.o (symbol from plugin)
                                                  obj/main/OPENDRONEBRH/fc/fc_msp.o (symbol from plugin)
setting_name_contains                             obj/main/OPENDRONEBRH/fc/settings.o (symbol from plugin)
                                                  obj/main/OPENDRONEBRH/fc/cli.o (symbol from plugin)
setting_name_exact_match                          obj/main/OPENDRONEBRH/fc/settings.o (symbol from plugin)
                                                  obj/main/OPENDRONEBRH/fc/cli.o (symbol from plugin)
settingsPgn                                       obj/main/OPENDRONEBRH/fc/settings.o (symbol from plugin)
settingsPgnCounts                                 obj/main/OPENDRONEBRH/fc/settings.o (symbol from plugin)
settingsTable                                     /tmp/ccjoD88l.ltrans5.ltrans.o
                                                  obj/main/OPENDRONEBRH/fc/settings.o (symbol from plugin)
                                                  /tmp/ccjoD88l.ltrans2.ltrans.o
                                                  /tmp/ccjoD88l.ltrans0.ltrans.o
                                                  obj/main/OPENDRONEBRH/fc/cli.o (symbol from plugin)
setupFixedWingAltitudeController                  /tmp/ccjoD88l.ltrans4.ltrans.o
                                                  obj/main/OPENDRONEBRH/navigation/navigation_fixedwing.o (symbol from plugin)
                                                  obj/main/OPENDRONEBRH/navigation/navigation.o (symbol from plugin)
setupMulticopterAltitudeController                obj/main/OPENDRONEBRH/navigation/navigation_multicopter.o (symbol from plugin)
                                                  obj/main/OPENDRONEBRH/navigation/navigation.o (symbol from plugin)
shouldResetReferenceAltitude.lto_priv.337         /tmp/ccjoD88l.ltrans3.ltrans.o
                                                  /tmp/ccjoD88l.ltrans2.ltrans.o
sin_approx                                        /tmp/ccjoD88l.ltrans1.ltrans.o
                                                  obj/main/OPENDRONEBRH/common/maths.o (symbol from plugin)
                                                  /tmp/ccjoD88l.ltrans5.ltrans.o
                                                  /tmp/ccjoD88l.ltrans4.ltrans.o
                                                  /tmp/ccjoD88l.ltrans3.ltrans.o
                                                  /tmp/ccjoD88l.ltrans0.ltrans.o
                                                  obj/main/OPENDRONEBRH/sensors/boardalignment.o (symbol from plugin)
                                                  obj/main/OPENDRONEBRH/flight/pid.o (symbol from plugin)
                                                  obj/main/OPENDRONEBRH/flight/imu.o (symbol from plugin)
                                                  obj/main/OPENDRONEBRH/fc/fc_core.o (symbol from plugin)
                                                  obj/main/OPENDRONEBRH/common/filter.o (symbol from plugin)
                                                  obj/main/OPENDRONEBRH/navigation/navigation_fixedwing.o (symbol from plugin)
                                                  obj/main/OPENDRONEBRH/navigation/navigation.o (symbol from plugin)
skipRxSamples.lto_priv.352                        /tmp/ccjoD88l.ltrans4.ltrans.o
                                                  /tmp/ccjoD88l.ltrans0.ltrans.o
sl_isalnum                                        obj/main/OPENDRONEBRH/common/string_light.o (symbol from plugin)
                                                  obj/main/OPENDRONEBRH/fc/cli.o (symbol from plugin)
sl_isdigit                                        obj/main/OPENDRONEBRH/common/string_light.o (symbol from plugin)
                                                  obj/main/OPENDRONEBRH/common/gps_conversion.o (symbol from plugin)
sl_islower                                        obj/main/OPENDRONEBRH/common/string_light.o (symbol from plugin)
sl_isupper                                        obj/main/OPENDRONEBRH/common/string_light.o (symbol from plugin)
sl_strcasecmp                                     obj/main/OPENDRONEBRH/common/string_light.o (symbol from plugin)
                                                  obj/main/OPENDRONEBRH/fc/cli.o (symbol from plugin)
sl_strncasecmp                                    /tmp/ccjoD88l.ltrans1.ltrans.o
                                                  obj/main/OPENDRONEBRH/common/string_light.o (symbol from plugin)
                                                  /tmp/ccjoD88l.ltrans2.ltrans.o
                                                  /tmp/ccjoD88l.ltrans0.ltrans.o
                                                  obj/main/OPENDRONEBRH/fc/settings.o (symbol from plugin)
                                                  obj/main/OPENDRONEBRH/fc/cli.o (symbol from plugin)
sl_tolower                                        obj/main/OPENDRONEBRH/common/string_light.o (symbol from plugin)
sl_toupper                                        obj/main/OPENDRONEBRH/common/string_light.o (symbol from plugin)
                                                  obj/main/OPENDRONEBRH/io/asyncfatfs/fat_standard.o (symbol from plugin)
                                                  obj/main/OPENDRONEBRH/fc/cli.o (symbol from plugin)
smallAngleCosZ.lto_priv.460                       /tmp/ccjoD88l.ltrans5.ltrans.o
                                                  /tmp/ccjoD88l.ltrans1.ltrans.o
smartPortDataReceive                              obj/main/OPENDRONEBRH/telemetry/smartport.o (symbol from plugin)
smartPortSendByte                                 /tmp/ccjoD88l.ltrans3.ltrans.o
                                                  obj/main/OPENDRONEBRH/telemetry/smartport.o (symbol from plugin)
                                                  /tmp/ccjoD88l.ltrans4.ltrans.o
                                                  /tmp/ccjoD88l.ltrans1.ltrans.o
                                                  obj/main/OPENDRONEBRH/rx/fport.o (symbol from plugin)
smartPortSerialPort.lto_priv.485                  /tmp/ccjoD88l.ltrans2.ltrans.o
                                                  /tmp/ccjoD88l.ltrans1.ltrans.o
smartPortWriteFrame.lto_priv.491                  /tmp/ccjoD88l.ltrans4.ltrans.o
                                                  /tmp/ccjoD88l.ltrans1.ltrans.o
smartPortWriteFrameSerial                         /tmp/ccjoD88l.ltrans1.ltrans.o
                                                  obj/main/OPENDRONEBRH/telemetry/smartport.o (symbol from plugin)
                                                  /tmp/ccjoD88l.ltrans4.ltrans.o
                                                  obj/main/OPENDRONEBRH/rx/fport.o (symbol from plugin)
softLpfFilter.lto_priv.466                        /tmp/ccjoD88l.ltrans0.ltrans.o
                                                  /tmp/ccjoD88l.ltrans1.ltrans.o
softLpfFilterApplyFn.lto_priv.463                 /tmp/ccjoD88l.ltrans0.ltrans.o
                                                  /tmp/ccjoD88l.ltrans1.ltrans.o
softSerialReadByte                                obj/main/OPENDRONEBRH/drivers/serial_softserial.o (symbol from plugin)
softSerialRxBytesWaiting                          obj/main/OPENDRONEBRH/drivers/serial_softserial.o (symbol from plugin)
softSerialSetBaudRate                             obj/main/OPENDRONEBRH/drivers/serial_softserial.o (symbol from plugin)
softSerialSetMode                                 obj/main/OPENDRONEBRH/drivers/serial_softserial.o (symbol from plugin)
softSerialTxBytesFree                             obj/main/OPENDRONEBRH/drivers/serial_softserial.o (symbol from plugin)
softSerialWriteByte                               obj/main/OPENDRONEBRH/drivers/serial_softserial.o (symbol from plugin)
specifiedConditionCountPerMode.lto_priv.348       /tmp/ccjoD88l.ltrans5.ltrans.o
                                                  /tmp/ccjoD88l.ltrans0.ltrans.o
spekShouldBind                                    obj/main/OPENDRONEBRH/rx/spektrum.o (symbol from plugin)
spektrumBind                                      obj/main/OPENDRONEBRH/rx/spektrum.o (symbol from plugin)
                                                  obj/main/OPENDRONEBRH/fc/fc_init.o (symbol from plugin)
spektrumInit                                      obj/main/OPENDRONEBRH/rx/spektrum.o (symbol from plugin)
                                                  obj/main/OPENDRONEBRH/rx/rx.o (symbol from plugin)
spiBusReadBuffer                                  obj/main/OPENDRONEBRH/drivers/bus_busdev_spi.o (symbol from plugin)
                                                  obj/main/OPENDRONEBRH/drivers/bus.o (symbol from plugin)
spiBusReadRegister                                obj/main/OPENDRONEBRH/drivers/bus_busdev_spi.o (symbol from plugin)
                                                  obj/main/OPENDRONEBRH/drivers/bus.o (symbol from plugin)
spiBusSetSpeed                                    obj/main/OPENDRONEBRH/drivers/bus_busdev_spi.o (symbol from plugin)
                                                  obj/main/OPENDRONEBRH/drivers/bus.o (symbol from plugin)
spiBusTransferMultiple                            obj/main/OPENDRONEBRH/drivers/bus_busdev_spi.o (symbol from plugin)
                                                  obj/main/OPENDRONEBRH/drivers/bus.o (symbol from plugin)
spiBusWriteBuffer                                 obj/main/OPENDRONEBRH/drivers/bus_busdev_spi.o (symbol from plugin)
                                                  obj/main/OPENDRONEBRH/drivers/bus.o (symbol from plugin)
spiBusWriteRegister                               obj/main/OPENDRONEBRH/drivers/bus_busdev_spi.o (symbol from plugin)
                                                  obj/main/OPENDRONEBRH/drivers/bus.o (symbol from plugin)
spiDeviceByInstance                               obj/main/OPENDRONEBRH/drivers/bus_spi.o (symbol from plugin)
spiGetErrorCounter                                obj/main/OPENDRONEBRH/drivers/bus_spi.o (symbol from plugin)
spiInit                                           obj/main/OPENDRONEBRH/drivers/bus_spi.o (symbol from plugin)
                                                  obj/main/OPENDRONEBRH/fc/fc_init.o (symbol from plugin)
spiInitDevice                                     obj/main/OPENDRONEBRH/drivers/bus_spi.o (symbol from plugin)
spiInstanceByDevice                               obj/main/OPENDRONEBRH/drivers/bus_spi.o (symbol from plugin)
                                                  obj/main/OPENDRONEBRH/drivers/bus_busdev_spi.o (symbol from plugin)
spiIsBusBusy                                      obj/main/OPENDRONEBRH/drivers/bus_spi.o (symbol from plugin)
spiResetErrorCounter                              obj/main/OPENDRONEBRH/drivers/bus_spi.o (symbol from plugin)
spiSetSpeed                                       obj/main/OPENDRONEBRH/drivers/bus_spi.o (symbol from plugin)
                                                  obj/main/OPENDRONEBRH/drivers/bus_busdev_spi.o (symbol from plugin)
spiTimeoutUserCallback                            /tmp/ccjoD88l.ltrans1.ltrans.o
                                                  obj/main/OPENDRONEBRH/drivers/bus_spi.o (symbol from plugin)
                                                  /tmp/ccjoD88l.ltrans4.ltrans.o
spiTransfer                                       obj/main/OPENDRONEBRH/drivers/bus_spi.o (symbol from plugin)
                                                  obj/main/OPENDRONEBRH/drivers/bus_busdev_spi.o (symbol from plugin)
spiTransfer.constprop.173                         /tmp/ccjoD88l.ltrans4.ltrans.o
                                                  /tmp/ccjoD88l.ltrans1.ltrans.o
spiTransferByte                                   obj/main/OPENDRONEBRH/drivers/bus_spi.o (symbol from plugin)
                                                  obj/main/OPENDRONEBRH/drivers/bus_busdev_spi.o (symbol from plugin)
sqrtf                                             /home/ethan/developer/opendrone/tools/gcc-arm-none-eabi-7-2017-q4-major/bin/../lib/gcc/arm-none-eabi/7.2.1/../../../../arm-none-eabi/lib/thumb/v7e-m/fpv4-sp/hard/libm.a(lib_a-wf_sqrt.o)
                                                  /tmp/ccjoD88l.ltrans5.ltrans.o
                                                  /tmp/ccjoD88l.ltrans4.ltrans.o
                                                  /tmp/ccjoD88l.ltrans3.ltrans.o
                                                  /tmp/ccjoD88l.ltrans1.ltrans.o
                                                  /tmp/ccjoD88l.ltrans0.ltrans.o
stackHighMem                                      obj/main/OPENDRONEBRH/drivers/stack_check.o (symbol from plugin)
                                                  obj/main/OPENDRONEBRH/fc/cli.o (symbol from plugin)
stackTotalSize                                    obj/main/OPENDRONEBRH/drivers/stack_check.o (symbol from plugin)
                                                  obj/main/OPENDRONEBRH/fc/cli.o (symbol from plugin)
standardBoardAlignment.lto_priv.250               /tmp/ccjoD88l.ltrans4.ltrans.o
                                                  /tmp/ccjoD88l.ltrans5.ltrans.o
                                                  /tmp/ccjoD88l.ltrans0.ltrans.o
started.lto_priv.452                              /tmp/ccjoD88l.ltrans2.ltrans.o
                                                  /tmp/ccjoD88l.ltrans3.ltrans.o
                                                  /tmp/ccjoD88l.ltrans1.ltrans.o
stateFlags                                        /tmp/ccjoD88l.ltrans4.ltrans.o
                                                  obj/main/OPENDRONEBRH/fc/runtime_config.o (symbol from plugin)
                                                  /tmp/ccjoD88l.ltrans5.ltrans.o
                                                  /tmp/ccjoD88l.ltrans3.ltrans.o
                                                  /tmp/ccjoD88l.ltrans2.ltrans.o
                                                  /tmp/ccjoD88l.ltrans1.ltrans.o
                                                  /tmp/ccjoD88l.ltrans0.ltrans.o
                                                  obj/main/OPENDRONEBRH/sensors/acceleration.o (symbol from plugin)
                                                  obj/main/OPENDRONEBRH/io/pwmdriver_i2c.o (symbol from plugin)
                                                  obj/main/OPENDRONEBRH/io/beeper.o (symbol from plugin)
                                                  obj/main/OPENDRONEBRH/flight/pid_autotune.o (symbol from plugin)
                                                  obj/main/OPENDRONEBRH/flight/pid.o (symbol from plugin)
                                                  obj/main/OPENDRONEBRH/flight/mixer.o (symbol from plugin)
                                                  obj/main/OPENDRONEBRH/flight/imu.o (symbol from plugin)
                                                  obj/main/OPENDRONEBRH/flight/failsafe.o (symbol from plugin)
                                                  obj/main/OPENDRONEBRH/fc/rc_controls.o (symbol from plugin)
                                                  obj/main/OPENDRONEBRH/fc/rc_adjustments.o (symbol from plugin)
                                                  obj/main/OPENDRONEBRH/fc/fc_msp_box.o (symbol from plugin)
                                                  obj/main/OPENDRONEBRH/fc/fc_msp.o (symbol from plugin)
                                                  obj/main/OPENDRONEBRH/fc/fc_core.o (symbol from plugin)
                                                  obj/main/OPENDRONEBRH/drivers/pwm_output.o (symbol from plugin)
                                                  obj/main/OPENDRONEBRH/telemetry/smartport.o (symbol from plugin)
                                                  obj/main/OPENDRONEBRH/telemetry/mavlink.o (symbol from plugin)
                                                  obj/main/OPENDRONEBRH/telemetry/ibus_shared.o (symbol from plugin)
                                                  obj/main/OPENDRONEBRH/telemetry/hott.o (symbol from plugin)
                                                  obj/main/OPENDRONEBRH/telemetry/frsky.o (symbol from plugin)
                                                  obj/main/OPENDRONEBRH/navigation/navigation_pos_estimator.o (symbol from plugin)
                                                  obj/main/OPENDRONEBRH/navigation/navigation_fw_launch.o (symbol from plugin)
                                                  obj/main/OPENDRONEBRH/navigation/navigation_fixedwing.o (symbol from plugin)
                                                  obj/main/OPENDRONEBRH/navigation/navigation.o (symbol from plugin)
                                                  obj/main/OPENDRONEBRH/io/gps.o (symbol from plugin)
statsConfig_Copy                                  obj/main/OPENDRONEBRH/fc/stats.o (symbol from plugin)
statsConfig_Registry                              /tmp/ccjoD88l.ltrans0.ltrans.o
                                                  obj/main/OPENDRONEBRH/fc/stats.o (symbol from plugin)
statsConfig_System                                obj/main/OPENDRONEBRH/fc/stats.o (symbol from plugin)
statsOnArm                                        obj/main/OPENDRONEBRH/fc/stats.o (symbol from plugin)
                                                  obj/main/OPENDRONEBRH/fc/fc_core.o (symbol from plugin)
statsOnDisarm                                     obj/main/OPENDRONEBRH/fc/stats.o (symbol from plugin)
                                                  obj/main/OPENDRONEBRH/fc/fc_core.o (symbol from plugin)
stopMotors                                        /tmp/ccjoD88l.ltrans5.ltrans.o
                                                  obj/main/OPENDRONEBRH/flight/mixer.o (symbol from plugin)
                                                  /tmp/ccjoD88l.ltrans2.ltrans.o
                                                  /tmp/ccjoD88l.ltrans0.ltrans.o
                                                  obj/main/OPENDRONEBRH/fc/fc_msp.o (symbol from plugin)
                                                  obj/main/OPENDRONEBRH/fc/fc_hardfaults.o (symbol from plugin)
                                                  obj/main/OPENDRONEBRH/fc/cli.o (symbol from plugin)
stopPwmAllMotors                                  obj/main/OPENDRONEBRH/flight/mixer.o (symbol from plugin)
                                                  obj/main/OPENDRONEBRH/fc/fc_msp.o (symbol from plugin)
                                                  obj/main/OPENDRONEBRH/fc/cli.o (symbol from plugin)
strcat                                            /home/ethan/developer/opendrone/tools/gcc-arm-none-eabi-7-2017-q4-major/bin/../lib/gcc/arm-none-eabi/7.2.1/../../../../arm-none-eabi/lib/thumb/v7e-m/fpv4-sp/hard/libc_nano.a(lib_a-strcat.o)
                                                  /tmp/ccjoD88l.ltrans1.ltrans.o
strchr                                            /home/ethan/developer/opendrone/tools/gcc-arm-none-eabi-7-2017-q4-major/bin/../lib/gcc/arm-none-eabi/7.2.1/../../../../arm-none-eabi/lib/thumb/v7e-m/fpv4-sp/hard/libc_nano.a(lib_a-strchr.o)
                                                  /tmp/ccjoD88l.ltrans4.ltrans.o
                                                  /tmp/ccjoD88l.ltrans2.ltrans.o
                                                  /tmp/ccjoD88l.ltrans0.ltrans.o
strcmp                                            /home/ethan/developer/opendrone/tools/gcc-arm-none-eabi-7-2017-q4-major/bin/../lib/gcc/arm-none-eabi/7.2.1/../../../../arm-none-eabi/lib/thumb/v7e-m/fpv4-sp/hard/libc_nano.a(lib_a-strcmp.o)
                                                  /tmp/ccjoD88l.ltrans2.ltrans.o
strcpy                                            /home/ethan/developer/opendrone/tools/gcc-arm-none-eabi-7-2017-q4-major/bin/../lib/gcc/arm-none-eabi/7.2.1/../../../../arm-none-eabi/lib/thumb/v7e-m/fpv4-sp/hard/libc_nano.a(lib_a-strcpy.o)
                                                  /tmp/ccjoD88l.ltrans5.ltrans.o
strlen                                            /home/ethan/developer/opendrone/tools/gcc-arm-none-eabi-7-2017-q4-major/bin/../lib/gcc/arm-none-eabi/7.2.1/../../../../arm-none-eabi/lib/thumb/v7e-m/fpv4-sp/hard/libc_nano.a(lib_a-strlen.o)
                                                  /tmp/ccjoD88l.ltrans5.ltrans.o
                                                  /tmp/ccjoD88l.ltrans2.ltrans.o
                                                  /tmp/ccjoD88l.ltrans1.ltrans.o
                                                  /tmp/ccjoD88l.ltrans0.ltrans.o
strncmp                                           /home/ethan/developer/opendrone/tools/gcc-arm-none-eabi-7-2017-q4-major/bin/../lib/gcc/arm-none-eabi/7.2.1/../../../../arm-none-eabi/lib/thumb/v7e-m/fpv4-sp/hard/libc_nano.a(lib_a-strncmp.o)
                                                  /tmp/ccjoD88l.ltrans0.ltrans.o
strncpy                                           /home/ethan/developer/opendrone/tools/gcc-arm-none-eabi-7-2017-q4-major/bin/../lib/gcc/arm-none-eabi/7.2.1/../../../../arm-none-eabi/lib/thumb/v7e-m/fpv4-sp/hard/libc_nano.a(lib_a-strncpy.o)
                                                  /tmp/ccjoD88l.ltrans1.ltrans.o
                                                  /tmp/ccjoD88l.ltrans0.ltrans.o
strspn                                            /home/ethan/developer/opendrone/tools/gcc-arm-none-eabi-7-2017-q4-major/bin/../lib/gcc/arm-none-eabi/7.2.1/../../../../arm-none-eabi/lib/thumb/v7e-m/fpv4-sp/hard/libc_nano.a(lib_a-strspn.o)
                                                  /tmp/ccjoD88l.ltrans0.ltrans.o
strstr                                            /home/ethan/developer/opendrone/tools/gcc-arm-none-eabi-7-2017-q4-major/bin/../lib/gcc/arm-none-eabi/7.2.1/../../../../arm-none-eabi/lib/thumb/v7e-m/fpv4-sp/hard/libc_nano.a(lib_a-strstr.o)
                                                  /tmp/ccjoD88l.ltrans0.ltrans.o
strtok_r                                          /home/ethan/developer/opendrone/tools/gcc-arm-none-eabi-7-2017-q4-major/bin/../lib/gcc/arm-none-eabi/7.2.1/../../../../arm-none-eabi/lib/thumb/v7e-m/fpv4-sp/hard/libc_nano.a(lib_a-strtok_r.o)
                                                  /tmp/ccjoD88l.ltrans0.ltrans.o
                                                  obj/main/OPENDRONEBRH/io/rcdevice.o (symbol from plugin)
                                                  obj/main/OPENDRONEBRH/fc/cli.o (symbol from plugin)
sumdInit                                          obj/main/OPENDRONEBRH/rx/sumd.o (symbol from plugin)
                                                  obj/main/OPENDRONEBRH/rx/rx.o (symbol from plugin)
sumhFrameStatus                                   obj/main/OPENDRONEBRH/rx/sumh.o (symbol from plugin)
sumhInit                                          obj/main/OPENDRONEBRH/rx/sumh.o (symbol from plugin)
                                                  obj/main/OPENDRONEBRH/rx/rx.o (symbol from plugin)
suspendRxSignal                                   /tmp/ccjoD88l.ltrans4.ltrans.o
                                                  obj/main/OPENDRONEBRH/rx/rx.o (symbol from plugin)
                                                  /tmp/ccjoD88l.ltrans0.ltrans.o
                                                  obj/main/OPENDRONEBRH/fc/config.o (symbol from plugin)
suspendRxSignalUntil.lto_priv.353                 /tmp/ccjoD88l.ltrans4.ltrans.o
                                                  /tmp/ccjoD88l.ltrans0.ltrans.o
switchStates                                      /tmp/ccjoD88l.ltrans4.ltrans.o
                                                  obj/main/OPENDRONEBRH/io/rcdevice_cam.o (symbol from plugin)
                                                  obj/main/OPENDRONEBRH/fc/fc_tasks.o (symbol from plugin)
                                                  obj/main/OPENDRONEBRH/fc/fc_init.o (symbol from plugin)
                                                  /tmp/ccjoD88l.ltrans1.ltrans.o
swithNavigationFlightModes                        obj/main/OPENDRONEBRH/navigation/navigation.o (symbol from plugin)
sysTickPending.lto_priv.445                       /tmp/ccjoD88l.ltrans0.ltrans.o
                                                  /tmp/ccjoD88l.ltrans1.ltrans.o
sysTickUptime.lto_priv.233                        /tmp/ccjoD88l.ltrans4.ltrans.o
                                                  /tmp/ccjoD88l.ltrans5.ltrans.o
                                                  /tmp/ccjoD88l.ltrans3.ltrans.o
                                                  /tmp/ccjoD88l.ltrans2.ltrans.o
                                                  /tmp/ccjoD88l.ltrans1.ltrans.o
                                                  /tmp/ccjoD88l.ltrans0.ltrans.o
systemBeep                                        /tmp/ccjoD88l.ltrans1.ltrans.o
                                                  obj/main/OPENDRONEBRH/drivers/sound_beeper.o (symbol from plugin)
                                                  /tmp/ccjoD88l.ltrans5.ltrans.o
                                                  /tmp/ccjoD88l.ltrans0.ltrans.o
                                                  obj/main/OPENDRONEBRH/io/beeper.o (symbol from plugin)
                                                  obj/main/OPENDRONEBRH/fc/fc_init.o (symbol from plugin)
                                                  obj/main/OPENDRONEBRH/drivers/system.o (symbol from plugin)
systemBeepToggle                                  obj/main/OPENDRONEBRH/drivers/sound_beeper.o (symbol from plugin)
systemClockSetup                                  obj/main/OPENDRONEBRH/drivers/system_stm32f30x.o (symbol from plugin)
                                                  obj/main/OPENDRONEBRH/fc/fc_init.o (symbol from plugin)
systemConfig_Copy                                 /tmp/ccjoD88l.ltrans4.ltrans.o
                                                  obj/main/OPENDRONEBRH/fc/config.o (symbol from plugin)
                                                  /tmp/ccjoD88l.ltrans0.ltrans.o
                                                  obj/main/OPENDRONEBRH/fc/cli.o (symbol from plugin)
systemConfig_Registry                             /tmp/ccjoD88l.ltrans4.ltrans.o
                                                  obj/main/OPENDRONEBRH/fc/config.o (symbol from plugin)
systemConfig_System                               /tmp/ccjoD88l.ltrans4.ltrans.o
                                                  obj/main/OPENDRONEBRH/fc/config.o (symbol from plugin)
                                                  /tmp/ccjoD88l.ltrans5.ltrans.o
                                                  /tmp/ccjoD88l.ltrans2.ltrans.o
                                                  /tmp/ccjoD88l.ltrans1.ltrans.o
                                                  /tmp/ccjoD88l.ltrans0.ltrans.o
                                                  obj/main/OPENDRONEBRH/fc/fc_msp.o (symbol from plugin)
                                                  obj/main/OPENDRONEBRH/fc/fc_init.o (symbol from plugin)
                                                  obj/main/OPENDRONEBRH/fc/fc_core.o (symbol from plugin)
                                                  obj/main/OPENDRONEBRH/fc/cli.o (symbol from plugin)
systemInit                                        obj/main/OPENDRONEBRH/drivers/system_stm32f30x.o (symbol from plugin)
                                                  obj/main/OPENDRONEBRH/fc/fc_init.o (symbol from plugin)
systemReset                                       obj/main/OPENDRONEBRH/drivers/system_stm32f30x.o (symbol from plugin)
                                                  obj/main/OPENDRONEBRH/fc/fc_msp.o (symbol from plugin)
                                                  obj/main/OPENDRONEBRH/fc/cli.o (symbol from plugin)
                                                  obj/main/OPENDRONEBRH/drivers/system.o (symbol from plugin)
systemResetToBootloader                           obj/main/OPENDRONEBRH/drivers/system_stm32f30x.o (symbol from plugin)
                                                  obj/main/OPENDRONEBRH/msp/msp_serial.o (symbol from plugin)
                                                  obj/main/OPENDRONEBRH/fc/cli.o (symbol from plugin)
systemState                                       /tmp/ccjoD88l.ltrans2.ltrans.o
                                                  obj/main/OPENDRONEBRH/fc/fc_init.o (symbol from plugin)
                                                  /tmp/ccjoD88l.ltrans1.ltrans.o
                                                  obj/main/OPENDRONEBRH/fc/fc_hardfaults.o (symbol from plugin)
systemTimekeepingSetup.lto_priv.506               /tmp/ccjoD88l.ltrans3.ltrans.o
                                                  /tmp/ccjoD88l.ltrans1.ltrans.o
table_acc_hardware                                /tmp/ccjoD88l.ltrans5.ltrans.o
                                                  obj/main/OPENDRONEBRH/fc/settings.o (symbol from plugin)
                                                  /tmp/ccjoD88l.ltrans0.ltrans.o
                                                  obj/main/OPENDRONEBRH/fc/cli.o (symbol from plugin)
table_alignment                                   /tmp/ccjoD88l.ltrans5.ltrans.o
                                                  obj/main/OPENDRONEBRH/fc/settings.o (symbol from plugin)
table_async_mode                                  /tmp/ccjoD88l.ltrans5.ltrans.o
                                                  obj/main/OPENDRONEBRH/fc/settings.o (symbol from plugin)
table_aux_operator                                /tmp/ccjoD88l.ltrans5.ltrans.o
                                                  obj/main/OPENDRONEBRH/fc/settings.o (symbol from plugin)
table_baro_hardware                               /tmp/ccjoD88l.ltrans5.ltrans.o
                                                  obj/main/OPENDRONEBRH/fc/settings.o (symbol from plugin)
                                                  /tmp/ccjoD88l.ltrans0.ltrans.o
                                                  obj/main/OPENDRONEBRH/fc/cli.o (symbol from plugin)
table_bat_capacity_unit                           /tmp/ccjoD88l.ltrans5.ltrans.o
                                                  obj/main/OPENDRONEBRH/fc/settings.o (symbol from plugin)
table_current_sensor                              /tmp/ccjoD88l.ltrans5.ltrans.o
                                                  obj/main/OPENDRONEBRH/fc/settings.o (symbol from plugin)
table_debug_modes                                 /tmp/ccjoD88l.ltrans5.ltrans.o
                                                  obj/main/OPENDRONEBRH/fc/settings.o (symbol from plugin)
table_failsafe_procedure                          /tmp/ccjoD88l.ltrans5.ltrans.o
                                                  obj/main/OPENDRONEBRH/fc/settings.o (symbol from plugin)
table_frsky_unit                                  /tmp/ccjoD88l.ltrans5.ltrans.o
                                                  obj/main/OPENDRONEBRH/fc/settings.o (symbol from plugin)
table_gimbal_mode                                 /tmp/ccjoD88l.ltrans5.ltrans.o
                                                  obj/main/OPENDRONEBRH/fc/settings.o (symbol from plugin)
table_gps_dyn_model                               /tmp/ccjoD88l.ltrans5.ltrans.o
                                                  obj/main/OPENDRONEBRH/fc/settings.o (symbol from plugin)
table_gps_provider                                /tmp/ccjoD88l.ltrans5.ltrans.o
                                                  obj/main/OPENDRONEBRH/fc/settings.o (symbol from plugin)
table_gps_sbas_mode                               /tmp/ccjoD88l.ltrans5.ltrans.o
                                                  obj/main/OPENDRONEBRH/fc/settings.o (symbol from plugin)
table_gyro_lpf                                    /tmp/ccjoD88l.ltrans5.ltrans.o
                                                  obj/main/OPENDRONEBRH/fc/settings.o (symbol from plugin)
table_i2c_speed                                   /tmp/ccjoD88l.ltrans5.ltrans.o
                                                  obj/main/OPENDRONEBRH/fc/settings.o (symbol from plugin)
table_motor_pwm_protocol                          /tmp/ccjoD88l.ltrans5.ltrans.o
                                                  obj/main/OPENDRONEBRH/fc/settings.o (symbol from plugin)
table_nav_rth_allow_landing                       /tmp/ccjoD88l.ltrans5.ltrans.o
                                                  obj/main/OPENDRONEBRH/fc/settings.o (symbol from plugin)
table_nav_rth_alt_mode                            /tmp/ccjoD88l.ltrans5.ltrans.o
                                                  obj/main/OPENDRONEBRH/fc/settings.o (symbol from plugin)
table_nav_user_control_mode                       /tmp/ccjoD88l.ltrans5.ltrans.o
                                                  obj/main/OPENDRONEBRH/fc/settings.o (symbol from plugin)
table_off_on                                      /tmp/ccjoD88l.ltrans5.ltrans.o
                                                  obj/main/OPENDRONEBRH/fc/settings.o (symbol from plugin)
table_pitot_hardware                              /tmp/ccjoD88l.ltrans5.ltrans.o
                                                  obj/main/OPENDRONEBRH/fc/settings.o (symbol from plugin)
                                                  /tmp/ccjoD88l.ltrans0.ltrans.o
                                                  obj/main/OPENDRONEBRH/fc/cli.o (symbol from plugin)
table_receiver_type                               /tmp/ccjoD88l.ltrans5.ltrans.o
                                                  obj/main/OPENDRONEBRH/fc/settings.o (symbol from plugin)
table_reset_altitude                              /tmp/ccjoD88l.ltrans5.ltrans.o
                                                  obj/main/OPENDRONEBRH/fc/settings.o (symbol from plugin)
table_serial_rx                                   /tmp/ccjoD88l.ltrans5.ltrans.o
                                                  obj/main/OPENDRONEBRH/fc/settings.o (symbol from plugin)
table_smartport_fuel_unit                         /tmp/ccjoD88l.ltrans5.ltrans.o
                                                  obj/main/OPENDRONEBRH/fc/settings.o (symbol from plugin)
targetName                                        /tmp/ccjoD88l.ltrans2.ltrans.o
                                                  obj/main/OPENDRONEBRH/build/version.o (symbol from plugin)
                                                  obj/main/OPENDRONEBRH/fc/fc_msp.o (symbol from plugin)
                                                  obj/main/OPENDRONEBRH/fc/cli.o (symbol from plugin)
                                                  obj/main/OPENDRONEBRH/build/debug.o (symbol from plugin)
taskAcc                                           /tmp/ccjoD88l.ltrans2.ltrans.o
                                                  obj/main/OPENDRONEBRH/fc/fc_tasks.o (symbol from plugin)
                                                  /tmp/ccjoD88l.ltrans4.ltrans.o
taskAttitude                                      /tmp/ccjoD88l.ltrans2.ltrans.o
                                                  obj/main/OPENDRONEBRH/fc/fc_tasks.o (symbol from plugin)
                                                  /tmp/ccjoD88l.ltrans4.ltrans.o
taskGyro                                          /tmp/ccjoD88l.ltrans0.ltrans.o
                                                  obj/main/OPENDRONEBRH/fc/fc_core.o (symbol from plugin)
                                                  /tmp/ccjoD88l.ltrans4.ltrans.o
                                                  obj/main/OPENDRONEBRH/fc/fc_tasks.o (symbol from plugin)
taskHandleSerial                                  /tmp/ccjoD88l.ltrans2.ltrans.o
                                                  obj/main/OPENDRONEBRH/fc/fc_tasks.o (symbol from plugin)
                                                  /tmp/ccjoD88l.ltrans4.ltrans.o
taskMainPidLoop                                   /tmp/ccjoD88l.ltrans0.ltrans.o
                                                  obj/main/OPENDRONEBRH/fc/fc_core.o (symbol from plugin)
                                                  /tmp/ccjoD88l.ltrans4.ltrans.o
                                                  obj/main/OPENDRONEBRH/fc/fc_tasks.o (symbol from plugin)
taskProcessGPS                                    /tmp/ccjoD88l.ltrans2.ltrans.o
                                                  obj/main/OPENDRONEBRH/fc/fc_tasks.o (symbol from plugin)
                                                  /tmp/ccjoD88l.ltrans4.ltrans.o
taskQueueArray.lto_priv.375                       /tmp/ccjoD88l.ltrans4.ltrans.o
                                                  /tmp/ccjoD88l.ltrans1.ltrans.o
                                                  /tmp/ccjoD88l.ltrans0.ltrans.o
taskQueueSize.lto_priv.376                        /tmp/ccjoD88l.ltrans4.ltrans.o
                                                  /tmp/ccjoD88l.ltrans1.ltrans.o
                                                  /tmp/ccjoD88l.ltrans0.ltrans.o
taskSyncPwmDriver                                 /tmp/ccjoD88l.ltrans2.ltrans.o
                                                  obj/main/OPENDRONEBRH/fc/fc_tasks.o (symbol from plugin)
                                                  /tmp/ccjoD88l.ltrans4.ltrans.o
taskSystem                                        obj/main/OPENDRONEBRH/scheduler/scheduler.o (symbol from plugin)
                                                  obj/main/OPENDRONEBRH/fc/fc_tasks.o (symbol from plugin)
taskTelemetry                                     /tmp/ccjoD88l.ltrans2.ltrans.o
                                                  obj/main/OPENDRONEBRH/fc/fc_tasks.o (symbol from plugin)
                                                  /tmp/ccjoD88l.ltrans4.ltrans.o
taskUpdateBaro                                    /tmp/ccjoD88l.ltrans2.ltrans.o
                                                  obj/main/OPENDRONEBRH/fc/fc_tasks.o (symbol from plugin)
                                                  /tmp/ccjoD88l.ltrans4.ltrans.o
taskUpdateBattery                                 /tmp/ccjoD88l.ltrans2.ltrans.o
                                                  obj/main/OPENDRONEBRH/fc/fc_tasks.o (symbol from plugin)
                                                  /tmp/ccjoD88l.ltrans4.ltrans.o
taskUpdatePitot                                   /tmp/ccjoD88l.ltrans2.ltrans.o
                                                  obj/main/OPENDRONEBRH/fc/fc_tasks.o (symbol from plugin)
                                                  /tmp/ccjoD88l.ltrans4.ltrans.o
taskUpdateRxCheck                                 /tmp/ccjoD88l.ltrans0.ltrans.o
                                                  obj/main/OPENDRONEBRH/fc/fc_core.o (symbol from plugin)
                                                  /tmp/ccjoD88l.ltrans4.ltrans.o
                                                  obj/main/OPENDRONEBRH/fc/fc_tasks.o (symbol from plugin)
taskUpdateRxMain                                  /tmp/ccjoD88l.ltrans0.ltrans.o
                                                  obj/main/OPENDRONEBRH/fc/fc_core.o (symbol from plugin)
                                                  /tmp/ccjoD88l.ltrans4.ltrans.o
                                                  obj/main/OPENDRONEBRH/fc/fc_tasks.o (symbol from plugin)
taskUpdateTemperature                             /tmp/ccjoD88l.ltrans2.ltrans.o
                                                  obj/main/OPENDRONEBRH/fc/fc_tasks.o (symbol from plugin)
                                                  /tmp/ccjoD88l.ltrans4.ltrans.o
telemetryBuf.lto_priv.514                         /tmp/ccjoD88l.ltrans2.ltrans.o
                                                  /tmp/ccjoD88l.ltrans3.ltrans.o
telemetryBufLen.lto_priv.515                      /tmp/ccjoD88l.ltrans2.ltrans.o
                                                  /tmp/ccjoD88l.ltrans3.ltrans.o
telemetryCheckRxPortShared                        /tmp/ccjoD88l.ltrans1.ltrans.o
                                                  obj/main/OPENDRONEBRH/telemetry/telemetry.o (symbol from plugin)
                                                  /tmp/ccjoD88l.ltrans4.ltrans.o
                                                  /tmp/ccjoD88l.ltrans0.ltrans.o
                                                  obj/main/OPENDRONEBRH/rx/xbus.o (symbol from plugin)
                                                  obj/main/OPENDRONEBRH/rx/sumh.o (symbol from plugin)
                                                  obj/main/OPENDRONEBRH/rx/sumd.o (symbol from plugin)
                                                  obj/main/OPENDRONEBRH/rx/spektrum.o (symbol from plugin)
                                                  obj/main/OPENDRONEBRH/rx/sbus.o (symbol from plugin)
                                                  obj/main/OPENDRONEBRH/io/serial.o (symbol from plugin)
                                                  obj/main/OPENDRONEBRH/telemetry/frsky.o (symbol from plugin)
telemetryCheckState                               /tmp/ccjoD88l.ltrans1.ltrans.o
                                                  obj/main/OPENDRONEBRH/telemetry/telemetry.o (symbol from plugin)
                                                  /tmp/ccjoD88l.ltrans2.ltrans.o
                                                  /tmp/ccjoD88l.ltrans0.ltrans.o
                                                  obj/main/OPENDRONEBRH/fc/fc_tasks.o (symbol from plugin)
                                                  obj/main/OPENDRONEBRH/fc/fc_core.o (symbol from plugin)
telemetryConfig_Copy                              obj/main/OPENDRONEBRH/telemetry/telemetry.o (symbol from plugin)
telemetryConfig_Registry                          /tmp/ccjoD88l.ltrans2.ltrans.o
                                                  obj/main/OPENDRONEBRH/telemetry/telemetry.o (symbol from plugin)
telemetryConfig_System                            /tmp/ccjoD88l.ltrans2.ltrans.o
                                                  obj/main/OPENDRONEBRH/telemetry/telemetry.o (symbol from plugin)
                                                  /tmp/ccjoD88l.ltrans3.ltrans.o
                                                  /tmp/ccjoD88l.ltrans1.ltrans.o
                                                  /tmp/ccjoD88l.ltrans0.ltrans.o
                                                  obj/main/OPENDRONEBRH/fc/fc_msp_box.o (symbol from plugin)
                                                  obj/main/OPENDRONEBRH/fc/fc_core.o (symbol from plugin)
                                                  obj/main/OPENDRONEBRH/telemetry/smartport.o (symbol from plugin)
                                                  obj/main/OPENDRONEBRH/telemetry/ibus.o (symbol from plugin)
                                                  obj/main/OPENDRONEBRH/telemetry/ibus_shared.o (symbol from plugin)
                                                  obj/main/OPENDRONEBRH/telemetry/hott.o (symbol from plugin)
                                                  obj/main/OPENDRONEBRH/telemetry/frsky.o (symbol from plugin)
telemetryDetermineEnabledState                    obj/main/OPENDRONEBRH/telemetry/telemetry.o (symbol from plugin)
                                                  obj/main/OPENDRONEBRH/telemetry/smartport.o (symbol from plugin)
                                                  obj/main/OPENDRONEBRH/telemetry/mavlink.o (symbol from plugin)
                                                  obj/main/OPENDRONEBRH/telemetry/ibus.o (symbol from plugin)
                                                  obj/main/OPENDRONEBRH/telemetry/hott.o (symbol from plugin)
                                                  obj/main/OPENDRONEBRH/telemetry/frsky.o (symbol from plugin)
telemetryInit                                     obj/main/OPENDRONEBRH/telemetry/telemetry.o (symbol from plugin)
                                                  obj/main/OPENDRONEBRH/fc/fc_init.o (symbol from plugin)
telemetryProcess                                  obj/main/OPENDRONEBRH/telemetry/telemetry.o (symbol from plugin)
                                                  obj/main/OPENDRONEBRH/fc/fc_tasks.o (symbol from plugin)
telemetrySharedPort                               /tmp/ccjoD88l.ltrans4.ltrans.o
                                                  obj/main/OPENDRONEBRH/telemetry/telemetry.o (symbol from plugin)
                                                  /tmp/ccjoD88l.ltrans1.ltrans.o
                                                  obj/main/OPENDRONEBRH/rx/xbus.o (symbol from plugin)
                                                  obj/main/OPENDRONEBRH/rx/sumh.o (symbol from plugin)
                                                  obj/main/OPENDRONEBRH/rx/sumd.o (symbol from plugin)
                                                  obj/main/OPENDRONEBRH/rx/spektrum.o (symbol from plugin)
                                                  obj/main/OPENDRONEBRH/rx/sbus.o (symbol from plugin)
                                                  obj/main/OPENDRONEBRH/telemetry/frsky.o (symbol from plugin)
telemetryState.lto_priv.282                       /tmp/ccjoD88l.ltrans4.ltrans.o
                                                  /tmp/ccjoD88l.ltrans2.ltrans.o
                                                  /tmp/ccjoD88l.ltrans1.ltrans.o
temperatureUpdate                                 obj/main/OPENDRONEBRH/sensors/temperature.o (symbol from plugin)
                                                  obj/main/OPENDRONEBRH/fc/fc_tasks.o (symbol from plugin)
tfp_format                                        /tmp/ccjoD88l.ltrans1.ltrans.o
                                                  obj/main/OPENDRONEBRH/common/printf.o (symbol from plugin)
                                                  /tmp/ccjoD88l.ltrans0.ltrans.o
                                                  obj/main/OPENDRONEBRH/fc/cli.o (symbol from plugin)
                                                  obj/main/OPENDRONEBRH/build/debug.o (symbol from plugin)
tfp_printf                                        /tmp/ccjoD88l.ltrans1.ltrans.o
                                                  obj/main/OPENDRONEBRH/common/printf.o (symbol from plugin)
                                                  /tmp/ccjoD88l.ltrans0.ltrans.o
                                                  obj/main/OPENDRONEBRH/fc/cli.o (symbol from plugin)
tfp_sprintf                                       /tmp/ccjoD88l.ltrans1.ltrans.o
                                                  obj/main/OPENDRONEBRH/common/printf.o (symbol from plugin)
                                                  /tmp/ccjoD88l.ltrans4.ltrans.o
                                                  /tmp/ccjoD88l.ltrans0.ltrans.o
                                                  obj/main/OPENDRONEBRH/io/rcdevice_cam.o (symbol from plugin)
                                                  obj/main/OPENDRONEBRH/common/time.o (symbol from plugin)
                                                  obj/main/OPENDRONEBRH/build/debug.o (symbol from plugin)
ticks                                             obj/main/OPENDRONEBRH/drivers/system.o (symbol from plugin)
                                                  obj/main/OPENDRONEBRH/drivers/bus_i2c_stm32f30x.o (symbol from plugin)
ticks_diff_us                                     obj/main/OPENDRONEBRH/drivers/system.o (symbol from plugin)
                                                  obj/main/OPENDRONEBRH/drivers/bus_i2c_stm32f30x.o (symbol from plugin)
timeConfig_Copy                                   obj/main/OPENDRONEBRH/common/time.o (symbol from plugin)
timeConfig_Registry                               /tmp/ccjoD88l.ltrans2.ltrans.o
                                                  obj/main/OPENDRONEBRH/common/time.o (symbol from plugin)
timeConfig_System                                 /tmp/ccjoD88l.ltrans2.ltrans.o
                                                  obj/main/OPENDRONEBRH/common/time.o (symbol from plugin)
                                                  /tmp/ccjoD88l.ltrans0.ltrans.o
                                                  obj/main/OPENDRONEBRH/fc/fc_msp.o (symbol from plugin)
timerCCR                                          obj/main/OPENDRONEBRH/drivers/timer.o (symbol from plugin)
                                                  obj/main/OPENDRONEBRH/drivers/pwm_output.o (symbol from plugin)
timerChCCHandlerInit                              obj/main/OPENDRONEBRH/drivers/timer.o (symbol from plugin)
                                                  obj/main/OPENDRONEBRH/drivers/rx_pwm.o (symbol from plugin)
                                                  obj/main/OPENDRONEBRH/drivers/serial_softserial.o (symbol from plugin)
timerChCCR                                        obj/main/OPENDRONEBRH/drivers/timer.o (symbol from plugin)
timerChCCRHi                                      obj/main/OPENDRONEBRH/drivers/timer.o (symbol from plugin)
timerChCCRLo                                      obj/main/OPENDRONEBRH/drivers/timer.o (symbol from plugin)
timerChClearCCFlag                                obj/main/OPENDRONEBRH/drivers/timer.o (symbol from plugin)
timerChConfigCallbacks                            /tmp/ccjoD88l.ltrans0.ltrans.o
                                                  obj/main/OPENDRONEBRH/drivers/timer.o (symbol from plugin)
                                                  /tmp/ccjoD88l.ltrans3.ltrans.o
                                                  /tmp/ccjoD88l.ltrans1.ltrans.o
                                                  obj/main/OPENDRONEBRH/drivers/rx_pwm.o (symbol from plugin)
                                                  obj/main/OPENDRONEBRH/drivers/serial_softserial.o (symbol from plugin)
timerChConfigCallbacksDual                        obj/main/OPENDRONEBRH/drivers/timer.o (symbol from plugin)
timerChConfigGPIO                                 obj/main/OPENDRONEBRH/drivers/timer.o (symbol from plugin)
timerChConfigIC                                   obj/main/OPENDRONEBRH/drivers/timer.o (symbol from plugin)
                                                  obj/main/OPENDRONEBRH/drivers/serial_softserial.o (symbol from plugin)
timerChConfigIC.constprop.154                     /tmp/ccjoD88l.ltrans4.ltrans.o
                                                  /tmp/ccjoD88l.ltrans3.ltrans.o
timerChConfigICDual                               obj/main/OPENDRONEBRH/drivers/timer.o (symbol from plugin)
timerChConfigOC                                   obj/main/OPENDRONEBRH/drivers/timer.o (symbol from plugin)
timerChICPolarity                                 obj/main/OPENDRONEBRH/drivers/timer.o (symbol from plugin)
timerChITConfig                                   obj/main/OPENDRONEBRH/drivers/timer.o (symbol from plugin)
timerChITConfigDualLo                             obj/main/OPENDRONEBRH/drivers/timer.o (symbol from plugin)
timerChInit                                       obj/main/OPENDRONEBRH/drivers/timer.o (symbol from plugin)
timerChOvrHandlerInit                             obj/main/OPENDRONEBRH/drivers/timer.o (symbol from plugin)
                                                  obj/main/OPENDRONEBRH/drivers/rx_pwm.o (symbol from plugin)
                                                  obj/main/OPENDRONEBRH/drivers/serial_softserial.o (symbol from plugin)
timerChannelInfo                                  obj/main/OPENDRONEBRH/drivers/timer.o (symbol from plugin)
timerClockDivisor                                 obj/main/OPENDRONEBRH/drivers/timer_stm32f30x.o (symbol from plugin)
                                                  obj/main/OPENDRONEBRH/drivers/timer.o (symbol from plugin)
                                                  obj/main/OPENDRONEBRH/drivers/serial_softserial.o (symbol from plugin)
timerConfig                                       /tmp/ccjoD88l.ltrans0.ltrans.o
                                                  obj/main/OPENDRONEBRH/drivers/timer.o (symbol from plugin)
                                                  /tmp/ccjoD88l.ltrans1.ltrans.o
timerConfigure                                    /tmp/ccjoD88l.ltrans0.ltrans.o
                                                  obj/main/OPENDRONEBRH/drivers/timer.o (symbol from plugin)
                                                  /tmp/ccjoD88l.ltrans3.ltrans.o
                                                  /tmp/ccjoD88l.ltrans1.ltrans.o
                                                  obj/main/OPENDRONEBRH/drivers/rx_pwm.o (symbol from plugin)
                                                  obj/main/OPENDRONEBRH/drivers/serial_softserial.o (symbol from plugin)
timerDefinitions                                  /tmp/ccjoD88l.ltrans0.ltrans.o
                                                  obj/main/OPENDRONEBRH/drivers/timer_stm32f30x.o (symbol from plugin)
                                                  /tmp/ccjoD88l.ltrans1.ltrans.o
                                                  obj/main/OPENDRONEBRH/drivers/timer.o (symbol from plugin)
timerDmaSource                                    obj/main/OPENDRONEBRH/drivers/timer.o (symbol from plugin)
timerForceOverflow                                obj/main/OPENDRONEBRH/drivers/timer.o (symbol from plugin)
timerGetByTag                                     obj/main/OPENDRONEBRH/drivers/timer.o (symbol from plugin)
                                                  obj/main/OPENDRONEBRH/drivers/pwm_mapping.o (symbol from plugin)
                                                  obj/main/OPENDRONEBRH/drivers/serial_softserial.o (symbol from plugin)
timerGetByTag.part.2.constprop.153                /tmp/ccjoD88l.ltrans4.ltrans.o
                                                  /tmp/ccjoD88l.ltrans3.ltrans.o
                                                  /tmp/ccjoD88l.ltrans1.ltrans.o
timerGetPeriod                                    obj/main/OPENDRONEBRH/drivers/timer.o (symbol from plugin)
                                                  obj/main/OPENDRONEBRH/drivers/rx_pwm.o (symbol from plugin)
timerGetPeriodByPrescaler                         obj/main/OPENDRONEBRH/drivers/timer.o (symbol from plugin)
timerGetPrescalerByDesiredMhz                     obj/main/OPENDRONEBRH/drivers/timer.o (symbol from plugin)
timerHardware                                     /tmp/ccjoD88l.ltrans4.ltrans.o
                                                  obj/main/OPENDRONEBRH/target.o (symbol from plugin)
                                                  /tmp/ccjoD88l.ltrans1.ltrans.o
                                                  obj/main/OPENDRONEBRH/drivers/timer.o (symbol from plugin)
                                                  obj/main/OPENDRONEBRH/drivers/rx_pwm.o (symbol from plugin)
                                                  obj/main/OPENDRONEBRH/drivers/pwm_mapping.o (symbol from plugin)
timerInfo                                         obj/main/OPENDRONEBRH/drivers/timer.o (symbol from plugin)
timerInit                                         obj/main/OPENDRONEBRH/drivers/timer.o (symbol from plugin)
                                                  obj/main/OPENDRONEBRH/fc/fc_init.o (symbol from plugin)
timerInputIrq                                     obj/main/OPENDRONEBRH/drivers/timer.o (symbol from plugin)
timerNVICConfigure                                obj/main/OPENDRONEBRH/drivers/timer.o (symbol from plugin)
timerOCInit                                       obj/main/OPENDRONEBRH/drivers/timer.o (symbol from plugin)
                                                  obj/main/OPENDRONEBRH/drivers/pwm_output.o (symbol from plugin)
timerOCPreloadConfig                              obj/main/OPENDRONEBRH/drivers/timer.o (symbol from plugin)
                                                  obj/main/OPENDRONEBRH/drivers/pwm_output.o (symbol from plugin)
timerRCC                                          obj/main/OPENDRONEBRH/drivers/timer.o (symbol from plugin)
timerStart                                        obj/main/OPENDRONEBRH/drivers/timer.o (symbol from plugin)
                                                  obj/main/OPENDRONEBRH/fc/fc_init.o (symbol from plugin)
totalWaitingTasks.lto_priv.455                    /tmp/ccjoD88l.ltrans4.ltrans.o
                                                  /tmp/ccjoD88l.ltrans1.ltrans.o
totalWaitingTasksSamples.lto_priv.454             /tmp/ccjoD88l.ltrans4.ltrans.o
                                                  /tmp/ccjoD88l.ltrans1.ltrans.o
uartOpen                                          /tmp/ccjoD88l.ltrans1.ltrans.o
                                                  obj/main/OPENDRONEBRH/drivers/serial_uart.o (symbol from plugin)
                                                  /tmp/ccjoD88l.ltrans5.ltrans.o
                                                  obj/main/OPENDRONEBRH/io/serial.o (symbol from plugin)
uartPort1.lto_priv.531                            /tmp/ccjoD88l.ltrans1.ltrans.o
                                                  /tmp/ccjoD88l.ltrans3.ltrans.o
uartPort2.lto_priv.530                            /tmp/ccjoD88l.ltrans1.ltrans.o
                                                  /tmp/ccjoD88l.ltrans3.ltrans.o
uartPort3.lto_priv.529                            /tmp/ccjoD88l.ltrans1.ltrans.o
                                                  /tmp/ccjoD88l.ltrans3.ltrans.o
uartRead                                          obj/main/OPENDRONEBRH/drivers/serial_uart.o (symbol from plugin)
uartSetBaudRate                                   obj/main/OPENDRONEBRH/drivers/serial_uart.o (symbol from plugin)
uartSetMode                                       obj/main/OPENDRONEBRH/drivers/serial_uart.o (symbol from plugin)
uartStartTxDMA                                    /tmp/ccjoD88l.ltrans1.ltrans.o
                                                  obj/main/OPENDRONEBRH/drivers/serial_uart.o (symbol from plugin)
                                                  /tmp/ccjoD88l.ltrans3.ltrans.o
                                                  obj/main/OPENDRONEBRH/drivers/serial_uart_stm32f30x.o (symbol from plugin)
uartTotalRxBytesWaiting                           obj/main/OPENDRONEBRH/drivers/serial_uart.o (symbol from plugin)
                                                  obj/main/OPENDRONEBRH/rx/jetiexbus.o (symbol from plugin)
uartTotalTxBytesFree                              obj/main/OPENDRONEBRH/drivers/serial_uart.o (symbol from plugin)
uartVTable                                        obj/main/OPENDRONEBRH/drivers/serial_uart.o (symbol from plugin)
                                                  obj/main/OPENDRONEBRH/drivers/serial_uart_stm32f30x.o (symbol from plugin)
uartWrite                                         obj/main/OPENDRONEBRH/drivers/serial_uart.o (symbol from plugin)
ui2a                                              obj/main/OPENDRONEBRH/common/typeconversion.o (symbol from plugin)
                                                  obj/main/OPENDRONEBRH/common/printf.o (symbol from plugin)
uli2a                                             obj/main/OPENDRONEBRH/common/typeconversion.o (symbol from plugin)
                                                  obj/main/OPENDRONEBRH/common/printf.o (symbol from plugin)
updateActivatedModes                              obj/main/OPENDRONEBRH/fc/rc_modes.o (symbol from plugin)
                                                  obj/main/OPENDRONEBRH/fc/fc_core.o (symbol from plugin)
updateActualAltitudeAndClimbRate                  obj/main/OPENDRONEBRH/navigation/navigation.o (symbol from plugin)
                                                  obj/main/OPENDRONEBRH/navigation/navigation_pos_estimator.o (symbol from plugin)
updateActualHeading                               obj/main/OPENDRONEBRH/navigation/navigation.o (symbol from plugin)
                                                  obj/main/OPENDRONEBRH/navigation/navigation_pos_estimator.o (symbol from plugin)
updateActualHorizontalPositionAndVelocity         obj/main/OPENDRONEBRH/navigation/navigation.o (symbol from plugin)
                                                  obj/main/OPENDRONEBRH/navigation/navigation_pos_estimator.o (symbol from plugin)
updateAdjustmentStates                            obj/main/OPENDRONEBRH/fc/rc_adjustments.o (symbol from plugin)
                                                  obj/main/OPENDRONEBRH/fc/fc_core.o (symbol from plugin)
updateAltitudeThrottleController_MC.lto_priv.437  /tmp/ccjoD88l.ltrans3.ltrans.o
                                                  /tmp/ccjoD88l.ltrans0.ltrans.o
updateAltitudeVelocityController_MC.lto_priv.438  /tmp/ccjoD88l.ltrans3.ltrans.o
                                                  /tmp/ccjoD88l.ltrans0.ltrans.o
updateBatteryVoltage.lto_priv.340                 /tmp/ccjoD88l.ltrans4.ltrans.o
                                                  /tmp/ccjoD88l.ltrans2.ltrans.o
updateBoardAlignment                              /tmp/ccjoD88l.ltrans4.ltrans.o
                                                  obj/main/OPENDRONEBRH/sensors/boardalignment.o (symbol from plugin)
                                                  /tmp/ccjoD88l.ltrans0.ltrans.o
                                                  obj/main/OPENDRONEBRH/fc/rc_adjustments.o (symbol from plugin)
                                                  obj/main/OPENDRONEBRH/fc/config.o (symbol from plugin)
updateCRC.lto_priv.440                            /tmp/ccjoD88l.ltrans1.ltrans.o
                                                  /tmp/ccjoD88l.ltrans0.ltrans.o
updateClimbRateToAltitudeController               /tmp/ccjoD88l.ltrans3.ltrans.o
                                                  obj/main/OPENDRONEBRH/navigation/navigation.o (symbol from plugin)
                                                  /tmp/ccjoD88l.ltrans0.ltrans.o
                                                  obj/main/OPENDRONEBRH/navigation/navigation_multicopter.o (symbol from plugin)
                                                  obj/main/OPENDRONEBRH/navigation/navigation_fixedwing.o (symbol from plugin)
updateFlightBehaviorModifiers                     obj/main/OPENDRONEBRH/navigation/navigation.o (symbol from plugin)
updateGpsIndicator                                obj/main/OPENDRONEBRH/io/gps.o (symbol from plugin)
                                                  obj/main/OPENDRONEBRH/fc/fc_tasks.o (symbol from plugin)
updateHeadingHoldTarget                           obj/main/OPENDRONEBRH/flight/pid.o (symbol from plugin)
                                                  obj/main/OPENDRONEBRH/fc/fc_msp.o (symbol from plugin)
                                                  obj/main/OPENDRONEBRH/navigation/navigation_multicopter.o (symbol from plugin)
                                                  obj/main/OPENDRONEBRH/navigation/navigation_fixedwing.o (symbol from plugin)
updateHomePosition                                obj/main/OPENDRONEBRH/navigation/navigation.o (symbol from plugin)
updateHomePositionCompatibility.lto_priv.439      /tmp/ccjoD88l.ltrans3.ltrans.o
                                                  /tmp/ccjoD88l.ltrans0.ltrans.o
updatePIDCoefficients                             obj/main/OPENDRONEBRH/flight/pid.o (symbol from plugin)
                                                  obj/main/OPENDRONEBRH/fc/fc_core.o (symbol from plugin)
updatePositionEstimator                           /tmp/ccjoD88l.ltrans3.ltrans.o
                                                  obj/main/OPENDRONEBRH/navigation/navigation_pos_estimator.o (symbol from plugin)
                                                  /tmp/ccjoD88l.ltrans0.ltrans.o
                                                  obj/main/OPENDRONEBRH/fc/fc_core.o (symbol from plugin)
updatePositionEstimator_BaroTopic                 obj/main/OPENDRONEBRH/navigation/navigation_pos_estimator.o (symbol from plugin)
                                                  obj/main/OPENDRONEBRH/fc/fc_tasks.o (symbol from plugin)
updateRSSI                                        obj/main/OPENDRONEBRH/rx/rx.o (symbol from plugin)
                                                  obj/main/OPENDRONEBRH/fc/fc_core.o (symbol from plugin)
updateUsedModeActivationConditionFlags            /tmp/ccjoD88l.ltrans5.ltrans.o
                                                  obj/main/OPENDRONEBRH/fc/rc_modes.o (symbol from plugin)
                                                  /tmp/ccjoD88l.ltrans2.ltrans.o
                                                  /tmp/ccjoD88l.ltrans0.ltrans.o
                                                  obj/main/OPENDRONEBRH/fc/fc_msp.o (symbol from plugin)
                                                  obj/main/OPENDRONEBRH/fc/config.o (symbol from plugin)
updateWaypointsAndNavigationMode                  obj/main/OPENDRONEBRH/navigation/navigation.o (symbol from plugin)
                                                  obj/main/OPENDRONEBRH/fc/fc_core.o (symbol from plugin)
usTicks.lto_priv.528                              /tmp/ccjoD88l.ltrans0.ltrans.o
                                                  /tmp/ccjoD88l.ltrans3.ltrans.o
usartIrqHandler                                   obj/main/OPENDRONEBRH/drivers/serial_uart_stm32f30x.o (symbol from plugin)
usbCableDetectDeinit                              obj/main/OPENDRONEBRH/drivers/usb_io.o (symbol from plugin)
usbCableDetectInit                                obj/main/OPENDRONEBRH/drivers/usb_io.o (symbol from plugin)
usbCableIsInserted                                obj/main/OPENDRONEBRH/drivers/usb_io.o (symbol from plugin)
usbGenerateDisconnectPulse                        obj/main/OPENDRONEBRH/drivers/usb_io.o (symbol from plugin)
usbIsConfigured                                   obj/main/OPENDRONEBRH/vcp/hw_config.o (symbol from plugin)
                                                  obj/main/OPENDRONEBRH/drivers/serial_usb_vcp.o (symbol from plugin)
usbIsConnected                                    obj/main/OPENDRONEBRH/vcp/hw_config.o (symbol from plugin)
                                                  obj/main/OPENDRONEBRH/drivers/serial_usb_vcp.o (symbol from plugin)
usbTxBytesFree.lto_priv.255                       /tmp/ccjoD88l.ltrans3.ltrans.o
                                                  /tmp/ccjoD88l.ltrans5.ltrans.o
usbVcpAvailable.lto_priv.254                      /tmp/ccjoD88l.ltrans3.ltrans.o
                                                  /tmp/ccjoD88l.ltrans5.ltrans.o
usbVcpBeginWrite.lto_priv.262                     /tmp/ccjoD88l.ltrans3.ltrans.o
                                                  /tmp/ccjoD88l.ltrans5.ltrans.o
usbVcpEndWrite.lto_priv.263                       /tmp/ccjoD88l.ltrans3.ltrans.o
                                                  /tmp/ccjoD88l.ltrans5.ltrans.o
usbVcpGetBaudRate                                 obj/main/OPENDRONEBRH/drivers/serial_usb_vcp.o (symbol from plugin)
usbVcpInitHardware                                obj/main/OPENDRONEBRH/drivers/serial_usb_vcp.o (symbol from plugin)
                                                  obj/main/OPENDRONEBRH/fc/fc_init.o (symbol from plugin)
usbVcpIsConnected.lto_priv.261                    /tmp/ccjoD88l.ltrans3.ltrans.o
                                                  /tmp/ccjoD88l.ltrans5.ltrans.o
usbVcpOpen                                        obj/main/OPENDRONEBRH/drivers/serial_usb_vcp.o (symbol from plugin)
                                                  obj/main/OPENDRONEBRH/io/serial.o (symbol from plugin)
usbVcpRead.lto_priv.256                           /tmp/ccjoD88l.ltrans3.ltrans.o
                                                  /tmp/ccjoD88l.ltrans5.ltrans.o
usbVcpSetBaudRate.lto_priv.257                    /tmp/ccjoD88l.ltrans3.ltrans.o
                                                  /tmp/ccjoD88l.ltrans5.ltrans.o
usbVcpSetMode.lto_priv.259                        /tmp/ccjoD88l.ltrans3.ltrans.o
                                                  /tmp/ccjoD88l.ltrans5.ltrans.o
usbVcpWrite.lto_priv.253                          /tmp/ccjoD88l.ltrans3.ltrans.o
                                                  /tmp/ccjoD88l.ltrans5.ltrans.o
usbVcpWriteBuf.lto_priv.260                       /tmp/ccjoD88l.ltrans3.ltrans.o
                                                  /tmp/ccjoD88l.ltrans5.ltrans.o
usedTimers                                        obj/main/OPENDRONEBRH/drivers/timer.o (symbol from plugin)
validateAndFixConfig                              obj/main/OPENDRONEBRH/fc/config.o (symbol from plugin)
validateNavConfig                                 obj/main/OPENDRONEBRH/fc/config.o (symbol from plugin)
validateRTHSanityChecker                          obj/main/OPENDRONEBRH/navigation/navigation.o (symbol from plugin)
vbat.lto_priv.275                                 /tmp/ccjoD88l.ltrans4.ltrans.o
                                                  /tmp/ccjoD88l.ltrans3.ltrans.o
                                                  /tmp/ccjoD88l.ltrans2.ltrans.o
                                                  /tmp/ccjoD88l.ltrans1.ltrans.o
                                                  /tmp/ccjoD88l.ltrans0.ltrans.o
vbatLatestADC.lto_priv.284                        /tmp/ccjoD88l.ltrans4.ltrans.o
                                                  /tmp/ccjoD88l.ltrans2.ltrans.o
virtualOpflowDetect                               obj/main/OPENDRONEBRH/drivers/opflow/opflow_virtual.o (symbol from plugin)
wCNTR                                             obj/main/OPENDRONEBRH/vcp/usb_istr.o (symbol from plugin)
wInterrupt_Mask                                   obj/main/OPENDRONEBRH/usb_init.o (symbol from plugin)
                                                  obj/main/OPENDRONEBRH/vcp/usb_pwr.o (symbol from plugin)
                                                  obj/main/OPENDRONEBRH/vcp/usb_istr.o (symbol from plugin)
                                                  obj/main/OPENDRONEBRH/usb_sil.o (symbol from plugin)
wIstr                                             obj/main/OPENDRONEBRH/vcp/usb_istr.o (symbol from plugin)
                                                  obj/main/OPENDRONEBRH/usb_int.o (symbol from plugin)
waitForSerialPortToFinishTransmitting             /tmp/ccjoD88l.ltrans5.ltrans.o
                                                  obj/main/OPENDRONEBRH/io/serial.o (symbol from plugin)
                                                  /tmp/ccjoD88l.ltrans2.ltrans.o
                                                  /tmp/ccjoD88l.ltrans1.ltrans.o
                                                  /tmp/ccjoD88l.ltrans0.ltrans.o
                                                  obj/main/OPENDRONEBRH/msp/msp_serial.o (symbol from plugin)
                                                  obj/main/OPENDRONEBRH/fc/cli.o (symbol from plugin)
                                                  obj/main/OPENDRONEBRH/build/debug.o (symbol from plugin)
                                                  obj/main/OPENDRONEBRH/io/gps.o (symbol from plugin)
warningLedDisable                                 obj/main/OPENDRONEBRH/io/statusindicator.o (symbol from plugin)
                                                  obj/main/OPENDRONEBRH/io/beeper.o (symbol from plugin)
                                                  obj/main/OPENDRONEBRH/fc/fc_core.o (symbol from plugin)
warningLedEnable                                  obj/main/OPENDRONEBRH/io/statusindicator.o (symbol from plugin)
                                                  obj/main/OPENDRONEBRH/io/beeper.o (symbol from plugin)
warningLedFlash                                   obj/main/OPENDRONEBRH/io/statusindicator.o (symbol from plugin)
                                                  obj/main/OPENDRONEBRH/fc/fc_core.o (symbol from plugin)
warningLedRefresh                                 /tmp/ccjoD88l.ltrans5.ltrans.o
                                                  obj/main/OPENDRONEBRH/io/statusindicator.o (symbol from plugin)
                                                  /tmp/ccjoD88l.ltrans0.ltrans.o
                                                  obj/main/OPENDRONEBRH/io/beeper.o (symbol from plugin)
warningLedResetTimer                              obj/main/OPENDRONEBRH/io/statusindicator.o (symbol from plugin)
warningLedState.lto_priv.370                      /tmp/ccjoD88l.ltrans5.ltrans.o
                                                  /tmp/ccjoD88l.ltrans0.ltrans.o
warningLedTimer.lto_priv.371                      /tmp/ccjoD88l.ltrans5.ltrans.o
                                                  /tmp/ccjoD88l.ltrans0.ltrans.o
warningLedUpdate                                  obj/main/OPENDRONEBRH/io/statusindicator.o (symbol from plugin)
                                                  obj/main/OPENDRONEBRH/fc/fc_core.o (symbol from plugin)
wrap_18000                                        /tmp/ccjoD88l.ltrans1.ltrans.o
                                                  obj/main/OPENDRONEBRH/common/maths.o (symbol from plugin)
                                                  /tmp/ccjoD88l.ltrans3.ltrans.o
                                                  /tmp/ccjoD88l.ltrans0.ltrans.o
                                                  obj/main/OPENDRONEBRH/navigation/navigation_multicopter.o (symbol from plugin)
                                                  obj/main/OPENDRONEBRH/navigation/navigation_fixedwing.o (symbol from plugin)
                                                  obj/main/OPENDRONEBRH/navigation/navigation.o (symbol from plugin)
wrap_36000                                        obj/main/OPENDRONEBRH/common/maths.o (symbol from plugin)
                                                  obj/main/OPENDRONEBRH/navigation/navigation.o (symbol from plugin)
writeAllMotors                                    obj/main/OPENDRONEBRH/flight/mixer.o (symbol from plugin)
writeConfigToEEPROM                               obj/main/OPENDRONEBRH/config/config_eeprom.o (symbol from plugin)
                                                  obj/main/OPENDRONEBRH/fc/config.o (symbol from plugin)
writeEEPROM                                       /tmp/ccjoD88l.ltrans0.ltrans.o
                                                  obj/main/OPENDRONEBRH/fc/config.o (symbol from plugin)
                                                  /tmp/ccjoD88l.ltrans4.ltrans.o
                                                  /tmp/ccjoD88l.ltrans2.ltrans.o
                                                  /tmp/ccjoD88l.ltrans1.ltrans.o
                                                  obj/main/OPENDRONEBRH/sensors/initialisation.o (symbol from plugin)
                                                  obj/main/OPENDRONEBRH/fc/stats.o (symbol from plugin)
                                                  obj/main/OPENDRONEBRH/fc/fc_msp.o (symbol from plugin)
                                                  obj/main/OPENDRONEBRH/fc/cli.o (symbol from plugin)
writeMotors                                       /tmp/ccjoD88l.ltrans5.ltrans.o
                                                  obj/main/OPENDRONEBRH/flight/mixer.o (symbol from plugin)
                                                  /tmp/ccjoD88l.ltrans0.ltrans.o
                                                  obj/main/OPENDRONEBRH/fc/fc_core.o (symbol from plugin)
writeServos                                       obj/main/OPENDRONEBRH/flight/servos.o (symbol from plugin)
                                                  obj/main/OPENDRONEBRH/fc/fc_core.o (symbol from plugin)
write_word.lto_priv.441                           /tmp/ccjoD88l.ltrans1.ltrans.o
                                                  /tmp/ccjoD88l.ltrans0.ltrans.o
xBusInit                                          obj/main/OPENDRONEBRH/rx/xbus.o (symbol from plugin)
                                                  obj/main/OPENDRONEBRH/rx/rx.o (symbol from plugin)
xBusRj01CRC8                                      obj/main/OPENDRONEBRH/rx/xbus.o (symbol from plugin)
zigzagEncode                                      obj/main/OPENDRONEBRH/common/encoding.o (symbol from plugin)
